"File: HT66F70A.c    Assembler  Version HGASM0202      Page 1


   1  0000              ; Generated by holtek-gcc v3.17, Fri Nov 10 12:22:51 2017
   2  0000              ; 
   3  0000              ; Configuration:
   4  0000              ;       with long instruction
   5  0000              ;       Multi-ROM, Multi-RAM
   6  0000              ;       bits_per_rom_unit:16
   7  0000              ;       with mp1
   8  0000              ;       with tbhp, address(0x9)
   9  0000              ;          Use tabrd-const
  10  0000              ;       
  11  0000              ; SFR address of long-instruction arch:
  12  0000              ;    mp0 = -1,1,0
  13  0000              ;    mp1 = 4,3,2
  14  0000              ;    mp2 = 14,13,12
  15  0000              ;    tbp = 9,7,8
  16  0000              ;    acc = 5
  17  0000              ;    pcl = 6
  18  0000              ;    status = 10
  19  0000              ;    bp = 11
  20  0000              ;    intc = 48
  21  0000              ;       
  22  0000              ;       
  23  0000              ; use 'tabrdc' instead of 'tabrd'
  24  0000              ;       
  25  0000              
  26  0000              #pragma translator "holtek-gcc 4.6.4" "3.17" "build 20130711"
  27  0000              ; Rebuild 307
  28  0000              
  29  0000              ir equ [2]
  30  0000              mp equ [3]
  31  0000              sbp equ [4]
  32  0000              acc equ [5]
  33  0000              bp equ [11]
  34  0000              tblp equ [7]
  35  0000              tbhp equ [9]
  36  0000              status equ [10]
  37  0000              c equ [10].0
  38  0000              ac equ [10].1
  39  0000              z equ [10].2
  40  0000              ov equ [10].3
  41  0000              cz equ [10].6
  42  0000              sc equ [10].7
  43  0000              intc equ [48]
  44  0000              
  45  0000              extern ra:byte
  46  0000              extern rb:byte
  47  0000              extern rc:byte
  48  0000              extern rd:byte
  49  0000              extern re:byte
  50  0000              extern rf:byte
  51  0000              extern rg:byte
  52  0000              extern rh:byte
  53  0000              extern _Crom2Prom:near
  54  0000              extern _Crom2PromNext:near
  55  0000              
  56  0000              RAMBANK 0 @BITDATASEC, @BITDATASEC1
  57  0000              @HCCINIT	.section 'data'
  58  0000              @HCCINIT0	.section 'data'
  59  0000              @BITDATASEC	 .section 'data'
"File: HT66F70A.ASM  Assembler  Version HGASM0202      Page 2

  60  0000              @BITDATASEC1	 .section 'data'
  61  0000              
  62  0000              #pragma debug scope 1 1
  63  0000              	extern __DELAY3:near
  64  0000              	extern __DELAYX3:near
  65  0000              	extern __DELAYX6:near
  66  0000              	extern __DELAYY5:near
  67  0000              	extern __DELAYY3:near
  68  0000              	extern _builtin_holtek_delay_2:byte
  69  0000              public _Delayms
  70  0000              #pragma debug scope 2 1

  21  0000              #line 21 "C:\Users\SA\Desktop\robot\HT66F70A.c"
  21  0000              _Delayms .section 'code'
  21  0000              _Delayms proc
  21  0000              public _Delayms_2
  21  0000  0002[           local _Delayms_2 db 2 dup(?)	; 2,0
            00
            ]
  21  0002              #pragma debug variable 10 2 _Delayms_2+0 "del"
  23  0002              #line 23 "C:\Users\SA\Desktop\robot\HT66F70A.c"
  23  0000  1F00     E  	clr rb
  23  0001  1F00     E  	clr rc
  23  0002  2800     R  	jmp _L2
  23  0003              _L3:
  23  0003              #line 23 "C:\Users\SA\Desktop\robot\HT66F70A.c"
  23  0003              ;# 23 "C:\Users\SA\Desktop\robot\HT66F70A.c" 1
  23  0003              	IF 2000>263690
  23  0003              ;# 23 "C:\Users\SA\Desktop\robot\HT66F70A.c" 1
  23  0003              	ERRMESSAGE 'the value 2000of the argument exceeds the maxinum 263690'
  23  0003              	ENDIF
  23  0003              ;# 23 "C:\Users\SA\Desktop\robot\HT66F70A.c" 1
  23  0003              	IF 2000<0
  23  0003              ;# 23 "C:\Users\SA\Desktop\robot\HT66F70A.c" 1
  23  0003              	ERRMESSAGE 'the value 2000 of the argument exceeds the mininum 0'
  23  0003              	ENDIF
  23  0003              ;# 23 "C:\Users\SA\Desktop\robot\HT66F70A.c" 1
  23  0003              	IF 2000==0
  23  0003              ;# 23 "C:\Users\SA\Desktop\robot\HT66F70A.c" 1
  23  0003              	JMP $
  23  0003              	ENDIF
  23  0003              ;# 23 "C:\Users\SA\Desktop\robot\HT66F70A.c" 1
  23  0003              	IF (2000>=1) AND (2000<( 4 + __PBP__ * 2))
  23  0003              ;# 23 "C:\Users\SA\Desktop\robot\HT66F70A.c" 1
  23  0003              	NOP
  23  0003              	ENDIF
  23  0003              ;# 23 "C:\Users\SA\Desktop\robot\HT66F70A.c" 1
  23  0003              	IF (2000>=2) AND (2000<( 4 + __PBP__ * 2))
  23  0003              ;# 23 "C:\Users\SA\Desktop\robot\HT66F70A.c" 1
  23  0003              	NOP
  23  0003              	ENDIF
  23  0003              ;# 23 "C:\Users\SA\Desktop\robot\HT66F70A.c" 1
  23  0003              	IF (2000>=3) AND (2000<( 4 + __PBP__ * 2))
  23  0003              ;# 23 "C:\Users\SA\Desktop\robot\HT66F70A.c" 1
  23  0003              	NOP
  23  0003              	ENDIF
  23  0003              ;# 23 "C:\Users\SA\Desktop\robot\HT66F70A.c" 1
  23  0003              	IF (2000>=4) AND (2000<( 4 + __PBP__ * 2)) AND ( __PBP__ > 0 )
  23  0003              ;# 23 "C:\Users\SA\Desktop\robot\HT66F70A.c" 1
  23  0003              	NOP
"File: HT66F70A.c    Assembler  Version HGASM0202      Page 3

  23  0003              	ENDIF
  23  0003              ;# 23 "C:\Users\SA\Desktop\robot\HT66F70A.c" 1
  23  0003              	IF (2000>=5) AND (2000<( 4 + __PBP__ * 2)) AND ( __PBP__ > 0 )
  23  0003              ;# 23 "C:\Users\SA\Desktop\robot\HT66F70A.c" 1
  23  0003              	NOP
  23  0003              	ENDIF
  23  0003              ;# 23 "C:\Users\SA\Desktop\robot\HT66F70A.c" 1
  23  0003              	IF (2000>=6) AND (2000<( 4 + __PBP__ * 2))  AND ( __PBP__ > 1 )
  23  0003              ;# 23 "C:\Users\SA\Desktop\robot\HT66F70A.c" 1
  23  0003              	NOP
  23  0003              	ENDIF
  23  0003              ;# 23 "C:\Users\SA\Desktop\robot\HT66F70A.c" 1
  23  0003              	IF (2000>=7) AND (2000<( 4 + __PBP__ * 2))  AND ( __PBP__ > 1 )
  23  0003              ;# 23 "C:\Users\SA\Desktop\robot\HT66F70A.c" 1
  23  0003              	NOP
  23  0003              	ENDIF
  23  0003              ;# 23 "C:\Users\SA\Desktop\robot\HT66F70A.c" 1
  23  0003              	IF (2000>=8) AND (2000<( 4 + __PBP__ * 2))  AND ( __PBP__ > 2 )
  23  0003              ;# 23 "C:\Users\SA\Desktop\robot\HT66F70A.c" 1
  23  0003              	NOP
  23  0003              	ENDIF
  23  0003              ;# 23 "C:\Users\SA\Desktop\robot\HT66F70A.c" 1
  23  0003              	IF (2000==9)  AND ( __PBP__ > 2 )
  23  0003              ;# 23 "C:\Users\SA\Desktop\robot\HT66F70A.c" 1
  23  0003              	NOP
  23  0003              	ENDIF
  23  0003              ;# 23 "C:\Users\SA\Desktop\robot\HT66F70A.c" 1
  23  0003              	IF (2000< ( 8 + __PBP__ * 2)) AND (2000>( 3 + __PBP__ * 2))
  23  0003              ;# 23 "C:\Users\SA\Desktop\robot\HT66F70A.c" 1
  23  0003              	fcall __DELAY3 + ( 7 + __PBP__ * 2) -2000
  23  0003              	ENDIF
  23  0003              ;# 23 "C:\Users\SA\Desktop\robot\HT66F70A.c" 1
  23  0003              	IF (2000< ( 0404h + __PBP__ * 2)) AND (2000>( 7 + __PBP__ * 2))
  23  0003              ;# 23 "C:\Users\SA\Desktop\robot\HT66F70A.c" 1
  23  0003              	MOV A,(2000-( 4 + __PBP__ * 2))/4
  23  0003              ;# 23 "C:\Users\SA\Desktop\robot\HT66F70A.c" 1
  23  0003              	fcall __DELAYX3 + 3 -((2000-( 4 + __PBP__ * 2)) MOD 4) 
  23  0003              	ENDIF
  23  0003              ;# 23 "C:\Users\SA\Desktop\robot\HT66F70A.c" 1
  23  0003              	IF (2000< ( 040bh + __PBP__ * 2)) AND (2000> ( 0403h + __PBP__ * 2))
  23  0003              ;# 23 "C:\Users\SA\Desktop\robot\HT66F70A.c" 1
  23  0003              	MOV A,0 
  23  0003              ;# 23 "C:\Users\SA\Desktop\robot\HT66F70A.c" 1
  23  0003              	fcall __DELAYX6 + ( 040ah + __PBP__ * 2) -2000
  23  0003              	ENDIF
  23  0003              ;# 23 "C:\Users\SA\Desktop\robot\HT66F70A.c" 1
  23  0003              	IF (2000 >= ( 040bh + __PBP__ * 2)) AND ((((2000-( 9 + __PBP__ * 2))%0402h)/4+1)>256)
  23  0003              ;# 23 "C:\Users\SA\Desktop\robot\HT66F70A.c" 1
  23  0003              	MOV A,(2000-( 9 + __PBP__ * 2))/0402h
  23  0003              ;# 23 "C:\Users\SA\Desktop\robot\HT66F70A.c" 1
  23  0003              	MOV _builtin_holtek_delay_2,A
  23  0003              ;# 23 "C:\Users\SA\Desktop\robot\HT66F70A.c" 1
  23  0003              	MOV A,0
  23  0003              ;# 23 "C:\Users\SA\Desktop\robot\HT66F70A.c" 1
  23  0003              	fcall __DELAYY5 +5- (((2000-( 9 + __PBP__ * 2))%0402h)%6) 
  23  0003              	ENDIF
  23  0003              ;# 23 "C:\Users\SA\Desktop\robot\HT66F70A.c" 1
  23  0003              	IF (2000 >= ( 040bh + __PBP__ * 2)) AND ((((2000-( 9 + __PBP__ * 2))%0402h)/4+1)<=256)
  23  0003              ;# 23 "C:\Users\SA\Desktop\robot\HT66F70A.c" 1
  23  0003  0F01        	MOV A,(2000-( 9 + __PBP__ * 2))/0402h
"File: HT66F70A.c    Assembler  Version HGASM0202      Page 4

  23  0004              ;# 23 "C:\Users\SA\Desktop\robot\HT66F70A.c" 1
  23  0004  0080     E  	MOV _builtin_holtek_delay_2,A
  23  0005              ;# 23 "C:\Users\SA\Desktop\robot\HT66F70A.c" 1
  23  0005  0FF1        	MOV A,((2000-( 9 + __PBP__ * 2))%0402h)/4+1
  23  0006              ;# 23 "C:\Users\SA\Desktop\robot\HT66F70A.c" 1
  23  0006              	fcall __DELAYY3 +3-(((2000-( 9 + __PBP__ * 2))%0402h)%4) 
  23  000D              	ENDIF
  23  000D  1480     E  	inc rb
  23  000E  3D0A        	sz z
  23  000F  1480     E  	inc rc
  23  0010              _L2:
  23  0010  0700     E  	mov a,rb
  23  0011  0200     R  	sub a,_Delayms_2[0]
  23  0012  0700     E  	mov a,rc
  23  0013  1200     R  	sbc a,_Delayms_2[1]
  23  0014  3B0A        	snz cz
  23  0015  2800     R  	jmp _L3
  23  0016  0003        	ret
  23  0017              _Delayms endp
  23  0017              #line 23 "C:\Users\SA\Desktop\robot\HT66F70A.c"
  23  0017              #pragma debug scope 1 1
  23  0017              public _command
  23  0017              #pragma debug scope 3 1
  27  0017              #line 27 "C:\Users\SA\Desktop\robot\HT66F70A.c"
  27  0000              _command .section 'code'
  27  0000              _command proc
  27  0000  00              local _command_2 db 1 dup(?)	; 0,1
  27  0000  0080     E  	mov ra,a
  27  0001              #pragma debug variable 7 3 _command_2+0 "c"
  28  0001              #line 28 "C:\Users\SA\Desktop\robot\HT66F70A.c"
  28  0001  0700     E  	mov a,ra
  28  0002  0A31        	sub a,49
  28  0003  3D0A        	sz z
  28  0004  2800     R  	jmp _L7
  28  0005  0A01        	sub a,(50)-(49)
  28  0006  3D0A        	sz z
  28  0007  2800     R  	jmp _L8
  28  0008              #line 28 "C:\Users\SA\Desktop\robot\HT66F70A.c"
  28  0008  0700     E  	mov a,ra
  28  0009  0A33        	sub a,51
  28  000A  3D0A        	sz z
  28  000B  2800     R  	jmp _L9
  28  000C  0A01        	sub a,(52)-(51)
  28  000D  3D0A        	sz z
  28  000E  2800     R  	jmp _L10
  28  000F  0700     E  	mov a,ra
  28  0010  0A35        	sub a,53
  28  0011  390A        	snz z
  28  0012  2800     R  	jmp _L5
  83  0013              #line 83 "C:\Users\SA\Desktop\robot\HT66F70A.c"
  83  0013  0FFF        	mov a,255
  83  0014              	fcall _PC_TX
  84  001B              #line 84 "C:\Users\SA\Desktop\robot\HT66F70A.c"
  84  001B  0FFF        	mov a,255
  84  001C              	fcall _PC_TX
  86  0023              #line 86 "C:\Users\SA\Desktop\robot\HT66F70A.c"
  86  0023  0F02        	mov a,2
  86  0024              	fcall _PC_TX
  87  002B              #line 87 "C:\Users\SA\Desktop\robot\HT66F70A.c"
  87  002B  0F00        	mov a,0
"File: HT66F70A.c    Assembler  Version HGASM0202      Page 5

  87  002C              	fcall _PC_TX
  88  0033              #line 88 "C:\Users\SA\Desktop\robot\HT66F70A.c"
  88  0033  0F00        	mov a,0
  88  0034  2800     R  	jmp _L12
  88  0035              _L7:
  31  0035              #line 31 "C:\Users\SA\Desktop\robot\HT66F70A.c"
  31  0035  0FFF        	mov a,255
  31  0036              	fcall _PC_TX
  32  003D              #line 32 "C:\Users\SA\Desktop\robot\HT66F70A.c"
  32  003D  0FFF        	mov a,255
  32  003E              	fcall _PC_TX
  34  0045              #line 34 "C:\Users\SA\Desktop\robot\HT66F70A.c"
  34  0045  0F02        	mov a,2
  34  0046              	fcall _PC_TX
  35  004D              #line 35 "C:\Users\SA\Desktop\robot\HT66F70A.c"
  35  004D  0F06        	mov a,6
  35  004E  2800     R  	jmp _L14
  35  004F              _L8:
  44  004F              #line 44 "C:\Users\SA\Desktop\robot\HT66F70A.c"
  44  004F  0FFF        	mov a,255
  44  0050              	fcall _PC_TX
  45  0057              #line 45 "C:\Users\SA\Desktop\robot\HT66F70A.c"
  45  0057  0FFF        	mov a,255
  45  0058              	fcall _PC_TX
  47  005F              #line 47 "C:\Users\SA\Desktop\robot\HT66F70A.c"
  47  005F  0F02        	mov a,2
  47  0060              	fcall _PC_TX
  48  0067              #line 48 "C:\Users\SA\Desktop\robot\HT66F70A.c"
  48  0067  0F16        	mov a,22
  48  0068  2800     R  	jmp _L13
  48  0069              _L9:
  57  0069              #line 57 "C:\Users\SA\Desktop\robot\HT66F70A.c"
  57  0069  0FFF        	mov a,255
  57  006A              	fcall _PC_TX
  58  0071              #line 58 "C:\Users\SA\Desktop\robot\HT66F70A.c"
  58  0071  0FFF        	mov a,255
  58  0072              	fcall _PC_TX
  60  0079              #line 60 "C:\Users\SA\Desktop\robot\HT66F70A.c"
  60  0079  0F02        	mov a,2
  60  007A              	fcall _PC_TX
  61  0081              #line 61 "C:\Users\SA\Desktop\robot\HT66F70A.c"
  61  0081  0F16        	mov a,22
  61  0082              _L14:
  61  0082              	fcall _PC_TX
  62  0089              #line 62 "C:\Users\SA\Desktop\robot\HT66F70A.c"
  62  0089  0F06        	mov a,6
  62  008A  2800     R  	jmp _L12
  62  008B              _L10:
  70  008B              #line 70 "C:\Users\SA\Desktop\robot\HT66F70A.c"
  70  008B  0FFF        	mov a,255
  70  008C              	fcall _PC_TX
  71  0093              #line 71 "C:\Users\SA\Desktop\robot\HT66F70A.c"
  71  0093  0FFF        	mov a,255
  71  0094              	fcall _PC_TX
  73  009B              #line 73 "C:\Users\SA\Desktop\robot\HT66F70A.c"
  73  009B  0F02        	mov a,2
  73  009C              	fcall _PC_TX
  74  00A3              #line 74 "C:\Users\SA\Desktop\robot\HT66F70A.c"
  74  00A3  0F06        	mov a,6
  74  00A4              _L13:
"File: HT66F70A.c    Assembler  Version HGASM0202      Page 6

  74  00A4              	fcall _PC_TX
  75  00AB              #line 75 "C:\Users\SA\Desktop\robot\HT66F70A.c"
  75  00AB  0F16        	mov a,22
  75  00AC              _L12:
  88  00AC              #line 88 "C:\Users\SA\Desktop\robot\HT66F70A.c"
  88  00AC              	fcall _PC_TX
  90  00B3              #line 90 "C:\Users\SA\Desktop\robot\HT66F70A.c"
  90  00B3  0FFF        	mov a,255
  90  00B4              	fcall _PC_TX
  91  00BB              #line 91 "C:\Users\SA\Desktop\robot\HT66F70A.c"
  91  00BB  0FFF        	mov a,255
  91  00BC              	fcall _PC_TX
  92  00C3              #line 92 "C:\Users\SA\Desktop\robot\HT66F70A.c"
  92  00C3  0F00        	mov a,0
  92  00C4              	fcall _PC_TX
  92  00CB              _L5:
  92  00CB  0003        	ret
  92  00CC              _command endp
  92  00CC              #line 92 "C:\Users\SA\Desktop\robot\HT66F70A.c"
  92  00CC              #pragma debug scope 1 1
  92  00CC              ___wdtc equ [62]
  92  0000              @crom	.section 'crom'
  92  0000              _LC0:
  92  0000              	db 041h,054h,02bh,043h,049h,050h,04dh,055h,058h,03dh
  92  0005              	db 031h,0dh,0ah,00h
  92  0007              @crom	.section 'crom'
  92  0007              _LC1:
  92  0007              	db 041h,054h,02bh,043h,049h,050h,053h,045h,052h,056h
  92  000C              	db 045h,052h,03dh,031h,02ch,038h,030h,038h,037h,0dh
  92  0011              	db 0ah,00h
  92  0012              public _main
  92  0012              #pragma debug scope 4 1
  98  0012              #line 98 "C:\Users\SA\Desktop\robot\HT66F70A.c"
  98  0012              IFDEF WITH_DEFAULT_STARTUP
  98  0012              extern _main_initial0:near
  98  0012              extern _main_startup:near
  98  0012              ENDIF
  98  0012              
  98  0012              ROMBANK 0 @start
  98  0000              @start .section com_l 'code'
  98  0000              _main_startup1:
  98  0000              @start .section com_e 'code'
  98  0000  0F00     R  	mov a,bank _main
  98  0001  008B        	mov bp,a
  98  0002  2800     R  	jmp _main
  98  0003              
  98  0000              _main .section 'code'
  98  0000              _main proc
 102  0000              #line 102 "C:\Users\SA\Desktop\robot\HT66F70A.c"
 102  0000  0FAF        	mov a,175
 102  0001  00BE        	mov [62],a
 103  0002              #line 103 "C:\Users\SA\Desktop\robot\HT66F70A.c"
 103  0002              	fcall _UART_init
 107  0009              #line 107 "C:\Users\SA\Desktop\robot\HT66F70A.c"
 107  0009  0F88        	mov a,-120
 107  000A  0080     R  	mov _Delayms_2[0],a
 107  000B  0F13        	mov a,19
 107  000C  0080     R  	mov _Delayms_2[1],a
 107  000D              	fcall _Delayms
 108  0014              #line 108 "C:\Users\SA\Desktop\robot\HT66F70A.c"
"File: HT66F70A.c    Assembler  Version HGASM0202      Page 7

 108  0014  0F0D        	mov a,13
 108  0015  0080     E  	mov _tx_string_115200_2[2],a
 108  0016  1F00     E  	clr _tx_string_115200_2[3]
 108  0017  0F00     R  	mov a,low offset _LC0
 108  0018  0080     E  	mov _tx_string_115200_2[0],a
 108  0019  0F00     R  	mov a,high offset _LC0
 108  001A  0080     E  	mov _tx_string_115200_2[1],a
 108  001B              	fcall _tx_string_115200
 109  0022              #line 109 "C:\Users\SA\Desktop\robot\HT66F70A.c"
 109  0022  0FE8        	mov a,-24
 109  0023  0080     R  	mov _Delayms_2[0],a
 109  0024  0F03        	mov a,3
 109  0025  0080     R  	mov _Delayms_2[1],a
 109  0026              	fcall _Delayms
 110  002D              #line 110 "C:\Users\SA\Desktop\robot\HT66F70A.c"
 110  002D  0F15        	mov a,21
 110  002E  0080     E  	mov _tx_string_115200_2[2],a
 110  002F  1F00     E  	clr _tx_string_115200_2[3]
 110  0030  0F00     R  	mov a,low offset _LC1
 110  0031  0080     E  	mov _tx_string_115200_2[0],a
 110  0032  0F00     R  	mov a,high offset _LC1
 110  0033  0080     E  	mov _tx_string_115200_2[1],a
 110  0034              	fcall _tx_string_115200
 110  003B              _L17:
 114  003B              #line 114 "C:\Users\SA\Desktop\robot\HT66F70A.c"
 114  003B              	fcall _PC_RX_115200
 114  0042  0080     E  	mov ra,a
 115  0043              #line 115 "C:\Users\SA\Desktop\robot\HT66F70A.c"
 115  0043  0700     E  	mov a,ra
 115  0044  0A3A        	sub a,58
 115  0045  390A        	snz z
 115  0046  2800     R  	jmp _L17
 117  0047              #line 117 "C:\Users\SA\Desktop\robot\HT66F70A.c"
 117  0047              	fcall _PC_RX_115200
 117  004E  0080     E  	mov ra,a
 118  004F              #line 118 "C:\Users\SA\Desktop\robot\HT66F70A.c"
 118  004F  0700     E  	mov a,ra
 118  0050              	fcall _command
 118  0057  2800     R  	jmp _L17
 118  0058  2800     R  	jmp $
 118  0059              _main endp
 118  0059              
 118  0059              @dummy endp
 118  0059              
 118  0059              #line 118 "C:\Users\SA\Desktop\robot\HT66F70A.c"
 118  0059              #pragma debug scope 1 1
 118  0059              public _f
 118  0000              @HCCINIT	.section 'data'
  18  0000              #line 18 "C:\Users\SA\Desktop\robot\HT66F70A.c"
  18  0000              @HCCINIT_f .section 'data'
  18  0000              _f label byte
  18  0000              #pragma debug variable 11 1 _f "f"
  18  0000              	db 0
  18  0000              @ROMDATA_BASE .section inpage 'code'
  18  0000              	db 0
  18  0001              @HCCINIT_f .section 'data'
  18  0001              	db 0
  18  0001              @ROMDATA_BASE .section inpage 'code'
  18  0001              	db 0
  18  0002              @HCCINIT_f .section 'data'
"File: HT66F70A.c    Assembler  Version HGASM0202      Page 8

  18  0002              public _g
  18  0002              #line 18 "C:\Users\SA\Desktop\robot\HT66F70A.c"
  18  0000              @HCCINIT_g .section 'data'
  18  0000              _g label byte
  18  0000              #pragma debug variable 11 1 _g "g"
  18  0000              	db 0
  18  0001              @ROMDATA_BASE .section inpage 'code'
  18  0001              	db 0
  18  0001              @HCCINIT_g .section 'data'
  18  0001              	db 0
  18  0002              @ROMDATA_BASE .section inpage 'code'
  18  0002              	db 0
  18  0002              @HCCINIT_g .section 'data'
  18  0002              public _output1
  17  0002              #line 17 "C:\Users\SA\Desktop\robot\HT66F70A.c"
  17  0000              @HCCINIT_output1 .section 'data'
  17  0000              _output1 label byte
  17  0000              #pragma debug array 42 7 4 1
  17  0000              #pragma debug array 42 7 4 1
  17  0000              #pragma debug variable 42 1 _output1 "output1"
  17  0000              	db 48
  17  0002              @ROMDATA_BASE .section inpage 'code'
  17  0002              	db 48
  17  0001              @HCCINIT_output1 .section 'data'
  17  0001              	db 49
  17  0003              @ROMDATA_BASE .section inpage 'code'
  17  0003              	db 49
  17  0002              @HCCINIT_output1 .section 'data'
  17  0002              	db 0
  17  0003              @ROMDATA_BASE .section inpage 'code'
  17  0003              	db 0
  17  0003              @HCCINIT_output1 .section 'data'
  17  0003              	db 0
  17  0004              @ROMDATA_BASE .section inpage 'code'
  17  0004              	db 0
  17  0004              @HCCINIT_output1 .section 'data'
  17  0004              #pragma debug struct_end
  17  0004              #pragma debug struct_end
  17  0004              #pragma debug union_end
  17  0004              #pragma debug union_end
  17  0004              #pragma debug variable 44 1 ___wdtc "__wdtc" 1
  98  0004              #line 98 "C:\Users\SA\Desktop\robot\HT66F70A.c"
  98  0000              @code .section at 0 'code'
  98  0000  1F0B        	clr bp
  98  0001  2800     R  	jmp _main_startup1
  98  0002              
  98  0002              extern _PC_TX:near
  98  0002              extern _UART_init:near
  98  0002              extern _tx_string_115200_2:byte
  98  0002              extern _tx_string_115200:near
  98  0002              extern _PC_RX_115200:near
  98  0002              
  98  0002              ; 
  98  0002              ; Generated by holtek-gcc v3.17, Fri Nov 10 12:22:51 2017
  98  0002              ; Rebuild 307
  98  0002              ; end of file


        0 Errors, 0