"File: HT66F70A.c    Assembler  Version HGASM0202      Page 1


   1  0000              ; Generated by holtek-gcc v3.13, Tue Oct 25 17:31:34 2016
   2  0000              ; 
   3  0000              ; Configuration:
   4  0000              ;       with long instruction
   5  0000              ;       Multi-ROM, Multi-RAM
   6  0000              ;       bits_per_rom_unit:16
   7  0000              ;       with mp1
   8  0000              ;       with tbhp, address(0x9)
   9  0000              ;          Use tabrd-const
  10  0000              ;       
  11  0000              ; SFR address of long-instruction arch:
  12  0000              ;    mp0 = -1,1,0
  13  0000              ;    mp1 = 4,3,2
  14  0000              ;    mp2 = 14,13,12
  15  0000              ;    tbp = 9,7,8
  16  0000              ;    acc = 5
  17  0000              ;    pcl = 6
  18  0000              ;    status = 10
  19  0000              ;    bp = 11
  20  0000              ;    intc = 48
  21  0000              ;       
  22  0000              ;       
  23  0000              ; use 'tabrdc' instead of 'tabrd'
  24  0000              ;       
  25  0000              
  26  0000              #pragma translator "holtek-gcc 4.6.4" "3.13" "build 20130711"
  27  0000              ; Rebuild 71
  28  0000              
  29  0000              ir equ [2]
  30  0000              mp equ [3]
  31  0000              sbp equ [4]
  32  0000              acc equ [5]
  33  0000              bp equ [11]
  34  0000              tblp equ [7]
  35  0000              tbhp equ [9]
  36  0000              status equ [10]
  37  0000              c equ [10].0
  38  0000              ac equ [10].1
  39  0000              z equ [10].2
  40  0000              ov equ [10].3
  41  0000              cz equ [10].6
  42  0000              sc equ [10].7
  43  0000              intc equ [48]
  44  0000              
  45  0000              extern ra:byte
  46  0000              extern rb:byte
  47  0000              extern rc:byte
  48  0000              extern rd:byte
  49  0000              extern re:byte
  50  0000              extern rf:byte
  51  0000              extern rg:byte
  52  0000              extern rh:byte
  53  0000              extern _Crom2Prom:near
  54  0000              extern _Crom2PromNext:near
  55  0000              @HCCINIT	.section 'data'
  56  0000              @HCCINIT0	.section 'data'
  57  0000              
  58  0000              #pragma debug scope 1 1
  59  0000              	extern __DELAY3:near
"File: HT66F70A.ASM  Assembler  Version HGASM0202      Page 2

  60  0000              	extern __DELAYX3:near
  61  0000              	extern __DELAYX6:near
  62  0000              	extern __DELAYY5:near
  63  0000              	extern __DELAYY3:near
  64  0000              	extern _builtin_holtek_delay_2:byte
  65  0000              public _Delayms
  66  0000              #pragma debug scope 2 1

  40  0000              #line 40 "C:\Users\bet\Desktop\學姐i2c_code\HT66F70A.c"
  40  0000              _Delayms .section 'code'
  40  0000              _Delayms proc
  40  0000              public _Delayms_2
  40  0000  0002[           local _Delayms_2 db 2 dup(?)	; 2,0
            00
            ]
  40  0002              #pragma debug variable 10 2 _Delayms_2+0 "del"
  42  0000              #line 42 "C:\Users\bet\Desktop\學姐i2c_code\HT66F70A.c"
  42  0000  1F00     E  	clr rb
  42  0001  1F00     E  	clr rc
  42  0002  2800     R  	jmp _L2
  42  0003              _L3:
  42  0003              #line 42 "C:\Users\bet\Desktop\學姐i2c_code\HT66F70A.c"
  42  0003              ;# 42 "C:\Users\bet\Desktop\學姐i2c_code\HT66F70A.c" 1
  42  0003              	IF 2000>263690
  42  0003              ;# 42 "C:\Users\bet\Desktop\學姐i2c_code\HT66F70A.c" 1
  42  0003              	ERRMESSAGE 'the value 2000of the argument exceeds the maxinum 263690'
  42  0003              	ENDIF
  42  0003              ;# 42 "C:\Users\bet\Desktop\學姐i2c_code\HT66F70A.c" 1
  42  0003              	IF 2000<0
  42  0003              ;# 42 "C:\Users\bet\Desktop\學姐i2c_code\HT66F70A.c" 1
  42  0003              	ERRMESSAGE 'the value 2000 of the argument exceeds the mininum 0'
  42  0003              	ENDIF
  42  0003              ;# 42 "C:\Users\bet\Desktop\學姐i2c_code\HT66F70A.c" 1
  42  0003              	IF 2000==0
  42  0003              ;# 42 "C:\Users\bet\Desktop\學姐i2c_code\HT66F70A.c" 1
  42  0003              	JMP $
  42  0003              	ENDIF
  42  0003              ;# 42 "C:\Users\bet\Desktop\學姐i2c_code\HT66F70A.c" 1
  42  0003              	IF (2000>=1) AND (2000<( 4 + __PBP__ * 2))
  42  0003              ;# 42 "C:\Users\bet\Desktop\學姐i2c_code\HT66F70A.c" 1
  42  0003              	NOP
  42  0003              	ENDIF
  42  0003              ;# 42 "C:\Users\bet\Desktop\學姐i2c_code\HT66F70A.c" 1
  42  0003              	IF (2000>=2) AND (2000<( 4 + __PBP__ * 2))
  42  0003              ;# 42 "C:\Users\bet\Desktop\學姐i2c_code\HT66F70A.c" 1
  42  0003              	NOP
  42  0003              	ENDIF
  42  0003              ;# 42 "C:\Users\bet\Desktop\學姐i2c_code\HT66F70A.c" 1
  42  0003              	IF (2000>=3) AND (2000<( 4 + __PBP__ * 2))
  42  0003              ;# 42 "C:\Users\bet\Desktop\學姐i2c_code\HT66F70A.c" 1
  42  0003              	NOP
  42  0003              	ENDIF
  42  0003              ;# 42 "C:\Users\bet\Desktop\學姐i2c_code\HT66F70A.c" 1
  42  0003              	IF (2000>=4) AND (2000<( 4 + __PBP__ * 2)) AND ( __PBP__ > 0 )
  42  0003              ;# 42 "C:\Users\bet\Desktop\學姐i2c_code\HT66F70A.c" 1
  42  0003              	NOP
  42  0003              	ENDIF
  42  0003              ;# 42 "C:\Users\bet\Desktop\學姐i2c_code\HT66F70A.c" 1
  42  0003              	IF (2000>=5) AND (2000<( 4 + __PBP__ * 2)) AND ( __PBP__ > 0 )
  42  0003              ;# 42 "C:\Users\bet\Desktop\學姐i2c_code\HT66F70A.c" 1
"File: HT66F70A.c    Assembler  Version HGASM0202      Page 3

  42  0003              	NOP
  42  0003              	ENDIF
  42  0003              ;# 42 "C:\Users\bet\Desktop\學姐i2c_code\HT66F70A.c" 1
  42  0003              	IF (2000>=6) AND (2000<( 4 + __PBP__ * 2))  AND ( __PBP__ > 1 )
  42  0003              ;# 42 "C:\Users\bet\Desktop\學姐i2c_code\HT66F70A.c" 1
  42  0003              	NOP
  42  0003              	ENDIF
  42  0003              ;# 42 "C:\Users\bet\Desktop\學姐i2c_code\HT66F70A.c" 1
  42  0003              	IF (2000>=7) AND (2000<( 4 + __PBP__ * 2))  AND ( __PBP__ > 1 )
  42  0003              ;# 42 "C:\Users\bet\Desktop\學姐i2c_code\HT66F70A.c" 1
  42  0003              	NOP
  42  0003              	ENDIF
  42  0003              ;# 42 "C:\Users\bet\Desktop\學姐i2c_code\HT66F70A.c" 1
  42  0003              	IF (2000>=8) AND (2000<( 4 + __PBP__ * 2))  AND ( __PBP__ > 2 )
  42  0003              ;# 42 "C:\Users\bet\Desktop\學姐i2c_code\HT66F70A.c" 1
  42  0003              	NOP
  42  0003              	ENDIF
  42  0003              ;# 42 "C:\Users\bet\Desktop\學姐i2c_code\HT66F70A.c" 1
  42  0003              	IF (2000==9)  AND ( __PBP__ > 2 )
  42  0003              ;# 42 "C:\Users\bet\Desktop\學姐i2c_code\HT66F70A.c" 1
  42  0003              	NOP
  42  0003              	ENDIF
  42  0003              ;# 42 "C:\Users\bet\Desktop\學姐i2c_code\HT66F70A.c" 1
  42  0003              	IF (2000< ( 8 + __PBP__ * 2)) AND (2000>( 3 + __PBP__ * 2))
  42  0003              ;# 42 "C:\Users\bet\Desktop\學姐i2c_code\HT66F70A.c" 1
  42  0003              	fcall __DELAY3 + ( 7 + __PBP__ * 2) -2000
  42  0003              	ENDIF
  42  0003              ;# 42 "C:\Users\bet\Desktop\學姐i2c_code\HT66F70A.c" 1
  42  0003              	IF (2000< ( 0404h + __PBP__ * 2)) AND (2000>( 7 + __PBP__ * 2))
  42  0003              ;# 42 "C:\Users\bet\Desktop\學姐i2c_code\HT66F70A.c" 1
  42  0003              	MOV A,(2000-( 4 + __PBP__ * 2))/4
  42  0003              ;# 42 "C:\Users\bet\Desktop\學姐i2c_code\HT66F70A.c" 1
  42  0003              	fcall __DELAYX3 + 3 -((2000-( 4 + __PBP__ * 2)) MOD 4) 
  42  0003              	ENDIF
  42  0003              ;# 42 "C:\Users\bet\Desktop\學姐i2c_code\HT66F70A.c" 1
  42  0003              	IF (2000< ( 040bh + __PBP__ * 2)) AND (2000> ( 0403h + __PBP__ * 2))
  42  0003              ;# 42 "C:\Users\bet\Desktop\學姐i2c_code\HT66F70A.c" 1
  42  0003              	MOV A,0 
  42  0003              ;# 42 "C:\Users\bet\Desktop\學姐i2c_code\HT66F70A.c" 1
  42  0003              	fcall __DELAYX6 + ( 040ah + __PBP__ * 2) -2000
  42  0003              	ENDIF
  42  0003              ;# 42 "C:\Users\bet\Desktop\學姐i2c_code\HT66F70A.c" 1
  42  0003              	IF (2000 >= ( 040bh + __PBP__ * 2)) AND ((((2000-( 9 + __PBP__ * 2))%0402h)/4+1)>256)
  42  0003              ;# 42 "C:\Users\bet\Desktop\學姐i2c_code\HT66F70A.c" 1
  42  0003              	MOV A,(2000-( 9 + __PBP__ * 2))/0402h
  42  0003              ;# 42 "C:\Users\bet\Desktop\學姐i2c_code\HT66F70A.c" 1
  42  0003              	MOV _builtin_holtek_delay_2,A
  42  0003              ;# 42 "C:\Users\bet\Desktop\學姐i2c_code\HT66F70A.c" 1
  42  0003              	MOV A,0
  42  0003              ;# 42 "C:\Users\bet\Desktop\學姐i2c_code\HT66F70A.c" 1
  42  0003              	fcall __DELAYY5 +5- (((2000-( 9 + __PBP__ * 2))%0402h)%6) 
  42  0003              	ENDIF
  42  0003              ;# 42 "C:\Users\bet\Desktop\學姐i2c_code\HT66F70A.c" 1
  42  0003              	IF (2000 >= ( 040bh + __PBP__ * 2)) AND ((((2000-( 9 + __PBP__ * 2))%0402h)/4+1)<=256)
  42  0003              ;# 42 "C:\Users\bet\Desktop\學姐i2c_code\HT66F70A.c" 1
  42  0003  0F01        	MOV A,(2000-( 9 + __PBP__ * 2))/0402h
  42  0004              ;# 42 "C:\Users\bet\Desktop\學姐i2c_code\HT66F70A.c" 1
  42  0004  0080     E  	MOV _builtin_holtek_delay_2,A
  42  0005              ;# 42 "C:\Users\bet\Desktop\學姐i2c_code\HT66F70A.c" 1
  42  0005  0FF1        	MOV A,((2000-( 9 + __PBP__ * 2))%0402h)/4+1
"File: HT66F70A.c    Assembler  Version HGASM0202      Page 4

  42  0006              ;# 42 "C:\Users\bet\Desktop\學姐i2c_code\HT66F70A.c" 1
  42  0006              	fcall __DELAYY3 +3-(((2000-( 9 + __PBP__ * 2))%0402h)%4) 
  42  000D              	ENDIF
  42  000D  1480     E  	inc rb
  42  000E  3D0A        	sz z
  42  000F  1480     E  	inc rc
  42  0010              _L2:
  42  0010  0700     E  	mov a,rb
  42  0011  0200     R  	sub a,_Delayms_2[0]
  42  0012  0700     E  	mov a,rc
  42  0013  1200     R  	sbc a,_Delayms_2[1]
  42  0014  3B0A        	snz cz
  42  0015  2800     R  	jmp _L3
  42  0016  0003        	ret
  42  0017              _Delayms endp
  42  0017              #line 42 "C:\Users\bet\Desktop\學姐i2c_code\HT66F70A.c"
  42  0017              #pragma debug scope 1 1
  42  0017              ___pcpu equ [25]
  42  0017              ___pcc equ [27]
  42  0017              public _GPIO_init
  42  0017              #pragma debug scope 3 1
  45  0017              #line 45 "C:\Users\bet\Desktop\學姐i2c_code\HT66F70A.c"
  45  0000              _GPIO_init .section 'code'
  45  0000              _GPIO_init proc
  46  0000              #line 46 "C:\Users\bet\Desktop\學姐i2c_code\HT66F70A.c"
  46  0000  3099        	set [25].1
  47  0001              #line 47 "C:\Users\bet\Desktop\學姐i2c_code\HT66F70A.c"
  47  0001  309B        	set [27].1
  47  0002  0003        	ret
  47  0003              _GPIO_init endp
  47  0003              #line 47 "C:\Users\bet\Desktop\學姐i2c_code\HT66F70A.c"
  47  0003              #pragma debug scope 1 1
  47  0003              public _delay
  47  0003              #pragma debug scope 4 1
  95  0003              #line 95 "C:\Users\bet\Desktop\學姐i2c_code\HT66F70A.c"
  95  0000              _delay .section 'code'
  95  0000              _delay proc
  95  0000              public _delay_2
  95  0000  0004[           local _delay_2 db 4 dup(?)	; 4,0
            00
            ]
  95  0004              #pragma debug variable 29 4 _delay_2+0 "del"
  97  0000              #line 97 "C:\Users\bet\Desktop\學姐i2c_code\HT66F70A.c"
  97  0000  1F00     E  	clr rd
  97  0001  1F00     E  	clr re
  97  0002  1F00     E  	clr rf
  97  0003  1F00     E  	clr rg
  97  0004  2800     R  	jmp _L7
  97  0005              _L8:
  97  0005              #line 97 "C:\Users\bet\Desktop\學姐i2c_code\HT66F70A.c"
  97  0005              ;# 97 "C:\Users\bet\Desktop\學姐i2c_code\HT66F70A.c" 1
  97  0005              	IF 2000>263690
  97  0005              ;# 97 "C:\Users\bet\Desktop\學姐i2c_code\HT66F70A.c" 1
  97  0005              	ERRMESSAGE 'the value 2000of the argument exceeds the maxinum 263690'
  97  0005              	ENDIF
  97  0005              ;# 97 "C:\Users\bet\Desktop\學姐i2c_code\HT66F70A.c" 1
  97  0005              	IF 2000<0
  97  0005              ;# 97 "C:\Users\bet\Desktop\學姐i2c_code\HT66F70A.c" 1
  97  0005              	ERRMESSAGE 'the value 2000 of the argument exceeds the mininum 0'
  97  0005              	ENDIF
"File: HT66F70A.c    Assembler  Version HGASM0202      Page 5

  97  0005              ;# 97 "C:\Users\bet\Desktop\學姐i2c_code\HT66F70A.c" 1
  97  0005              	IF 2000==0
  97  0005              ;# 97 "C:\Users\bet\Desktop\學姐i2c_code\HT66F70A.c" 1
  97  0005              	JMP $
  97  0005              	ENDIF
  97  0005              ;# 97 "C:\Users\bet\Desktop\學姐i2c_code\HT66F70A.c" 1
  97  0005              	IF (2000>=1) AND (2000<( 4 + __PBP__ * 2))
  97  0005              ;# 97 "C:\Users\bet\Desktop\學姐i2c_code\HT66F70A.c" 1
  97  0005              	NOP
  97  0005              	ENDIF
  97  0005              ;# 97 "C:\Users\bet\Desktop\學姐i2c_code\HT66F70A.c" 1
  97  0005              	IF (2000>=2) AND (2000<( 4 + __PBP__ * 2))
  97  0005              ;# 97 "C:\Users\bet\Desktop\學姐i2c_code\HT66F70A.c" 1
  97  0005              	NOP
  97  0005              	ENDIF
  97  0005              ;# 97 "C:\Users\bet\Desktop\學姐i2c_code\HT66F70A.c" 1
  97  0005              	IF (2000>=3) AND (2000<( 4 + __PBP__ * 2))
  97  0005              ;# 97 "C:\Users\bet\Desktop\學姐i2c_code\HT66F70A.c" 1
  97  0005              	NOP
  97  0005              	ENDIF
  97  0005              ;# 97 "C:\Users\bet\Desktop\學姐i2c_code\HT66F70A.c" 1
  97  0005              	IF (2000>=4) AND (2000<( 4 + __PBP__ * 2)) AND ( __PBP__ > 0 )
  97  0005              ;# 97 "C:\Users\bet\Desktop\學姐i2c_code\HT66F70A.c" 1
  97  0005              	NOP
  97  0005              	ENDIF
  97  0005              ;# 97 "C:\Users\bet\Desktop\學姐i2c_code\HT66F70A.c" 1
  97  0005              	IF (2000>=5) AND (2000<( 4 + __PBP__ * 2)) AND ( __PBP__ > 0 )
  97  0005              ;# 97 "C:\Users\bet\Desktop\學姐i2c_code\HT66F70A.c" 1
  97  0005              	NOP
  97  0005              	ENDIF
  97  0005              ;# 97 "C:\Users\bet\Desktop\學姐i2c_code\HT66F70A.c" 1
  97  0005              	IF (2000>=6) AND (2000<( 4 + __PBP__ * 2))  AND ( __PBP__ > 1 )
  97  0005              ;# 97 "C:\Users\bet\Desktop\學姐i2c_code\HT66F70A.c" 1
  97  0005              	NOP
  97  0005              	ENDIF
  97  0005              ;# 97 "C:\Users\bet\Desktop\學姐i2c_code\HT66F70A.c" 1
  97  0005              	IF (2000>=7) AND (2000<( 4 + __PBP__ * 2))  AND ( __PBP__ > 1 )
  97  0005              ;# 97 "C:\Users\bet\Desktop\學姐i2c_code\HT66F70A.c" 1
  97  0005              	NOP
  97  0005              	ENDIF
  97  0005              ;# 97 "C:\Users\bet\Desktop\學姐i2c_code\HT66F70A.c" 1
  97  0005              	IF (2000>=8) AND (2000<( 4 + __PBP__ * 2))  AND ( __PBP__ > 2 )
  97  0005              ;# 97 "C:\Users\bet\Desktop\學姐i2c_code\HT66F70A.c" 1
  97  0005              	NOP
  97  0005              	ENDIF
  97  0005              ;# 97 "C:\Users\bet\Desktop\學姐i2c_code\HT66F70A.c" 1
  97  0005              	IF (2000==9)  AND ( __PBP__ > 2 )
  97  0005              ;# 97 "C:\Users\bet\Desktop\學姐i2c_code\HT66F70A.c" 1
  97  0005              	NOP
  97  0005              	ENDIF
  97  0005              ;# 97 "C:\Users\bet\Desktop\學姐i2c_code\HT66F70A.c" 1
  97  0005              	IF (2000< ( 8 + __PBP__ * 2)) AND (2000>( 3 + __PBP__ * 2))
  97  0005              ;# 97 "C:\Users\bet\Desktop\學姐i2c_code\HT66F70A.c" 1
  97  0005              	fcall __DELAY3 + ( 7 + __PBP__ * 2) -2000
  97  0005              	ENDIF
  97  0005              ;# 97 "C:\Users\bet\Desktop\學姐i2c_code\HT66F70A.c" 1
  97  0005              	IF (2000< ( 0404h + __PBP__ * 2)) AND (2000>( 7 + __PBP__ * 2))
  97  0005              ;# 97 "C:\Users\bet\Desktop\學姐i2c_code\HT66F70A.c" 1
  97  0005              	MOV A,(2000-( 4 + __PBP__ * 2))/4
  97  0005              ;# 97 "C:\Users\bet\Desktop\學姐i2c_code\HT66F70A.c" 1
"File: HT66F70A.c    Assembler  Version HGASM0202      Page 6

  97  0005              	fcall __DELAYX3 + 3 -((2000-( 4 + __PBP__ * 2)) MOD 4) 
  97  0005              	ENDIF
  97  0005              ;# 97 "C:\Users\bet\Desktop\學姐i2c_code\HT66F70A.c" 1
  97  0005              	IF (2000< ( 040bh + __PBP__ * 2)) AND (2000> ( 0403h + __PBP__ * 2))
  97  0005              ;# 97 "C:\Users\bet\Desktop\學姐i2c_code\HT66F70A.c" 1
  97  0005              	MOV A,0 
  97  0005              ;# 97 "C:\Users\bet\Desktop\學姐i2c_code\HT66F70A.c" 1
  97  0005              	fcall __DELAYX6 + ( 040ah + __PBP__ * 2) -2000
  97  0005              	ENDIF
  97  0005              ;# 97 "C:\Users\bet\Desktop\學姐i2c_code\HT66F70A.c" 1
  97  0005              	IF (2000 >= ( 040bh + __PBP__ * 2)) AND ((((2000-( 9 + __PBP__ * 2))%0402h)/4+1)>256)
  97  0005              ;# 97 "C:\Users\bet\Desktop\學姐i2c_code\HT66F70A.c" 1
  97  0005              	MOV A,(2000-( 9 + __PBP__ * 2))/0402h
  97  0005              ;# 97 "C:\Users\bet\Desktop\學姐i2c_code\HT66F70A.c" 1
  97  0005              	MOV _builtin_holtek_delay_2,A
  97  0005              ;# 97 "C:\Users\bet\Desktop\學姐i2c_code\HT66F70A.c" 1
  97  0005              	MOV A,0
  97  0005              ;# 97 "C:\Users\bet\Desktop\學姐i2c_code\HT66F70A.c" 1
  97  0005              	fcall __DELAYY5 +5- (((2000-( 9 + __PBP__ * 2))%0402h)%6) 
  97  0005              	ENDIF
  97  0005              ;# 97 "C:\Users\bet\Desktop\學姐i2c_code\HT66F70A.c" 1
  97  0005              	IF (2000 >= ( 040bh + __PBP__ * 2)) AND ((((2000-( 9 + __PBP__ * 2))%0402h)/4+1)<=256)
  97  0005              ;# 97 "C:\Users\bet\Desktop\學姐i2c_code\HT66F70A.c" 1
  97  0005  0F01        	MOV A,(2000-( 9 + __PBP__ * 2))/0402h
  97  0006              ;# 97 "C:\Users\bet\Desktop\學姐i2c_code\HT66F70A.c" 1
  97  0006  0080     E  	MOV _builtin_holtek_delay_2,A
  97  0007              ;# 97 "C:\Users\bet\Desktop\學姐i2c_code\HT66F70A.c" 1
  97  0007  0FF1        	MOV A,((2000-( 9 + __PBP__ * 2))%0402h)/4+1
  97  0008              ;# 97 "C:\Users\bet\Desktop\學姐i2c_code\HT66F70A.c" 1
  97  0008              	fcall __DELAYY3 +3-(((2000-( 9 + __PBP__ * 2))%0402h)%4) 
  97  000F              	ENDIF
  97  000F  0700     E  	mov a,rg
  97  0010  0080     E  	mov _builtin_holtek_mant12p[0],a
  97  0011  0700     E  	mov a,rf
  97  0012  0080     E  	mov _builtin_holtek_mant1[2],a
  97  0013  0700     E  	mov a,re
  97  0014  0080     E  	mov _builtin_holtek_mant1[1],a
  97  0015  0700     E  	mov a,rd
  97  0016  0080     E  	mov _builtin_holtek_mant1[0],a
  97  0017  0F3F        	mov a,63
  97  0018  0080     E  	mov _builtin_holtek_mant12p[1],a
  97  0019  0F80        	mov a,128
  97  001A  0080     E  	mov _builtin_holtek_mant2[2],a
  97  001B  0F00        	mov a,0
  97  001C  0080     E  	mov _builtin_holtek_mant2[1],a
  97  001D  0F00        	mov a,0
  97  001E  0080     E  	mov _builtin_holtek_mant2[0],a
  97  001F              	fcall _builtin_holtek_dtadd
  97  0026  0700     E  	mov a,_builtin_holtek_mant12p[0]
  97  0027  0080     E  	mov rg,a
  97  0028  0700     E  	mov a,_builtin_holtek_mant1[2]
  97  0029  0080     E  	mov rf,a
  97  002A  0700     E  	mov a,_builtin_holtek_mant1[1]
  97  002B  0080     E  	mov re,a
  97  002C  0700     E  	mov a,_builtin_holtek_mant1[0]
  97  002D  0080     E  	mov rd,a
  97  002E              _L7:
  97  002E  0700     E  	mov a,rg
  97  002F  0080     E  	mov _builtin_holtek_mant12p[0],a
  97  0030  0700     E  	mov a,rf
"File: HT66F70A.c    Assembler  Version HGASM0202      Page 7

  97  0031  0080     E  	mov _builtin_holtek_mant1[2],a
  97  0032  0700     E  	mov a,re
  97  0033  0080     E  	mov _builtin_holtek_mant1[1],a
  97  0034  0700     E  	mov a,rd
  97  0035  0080     E  	mov _builtin_holtek_mant1[0],a
  97  0036  0700     R  	mov a,_delay_2[3]
  97  0037  0080     E  	mov _builtin_holtek_mant12p[1],a
  97  0038  0700     R  	mov a,_delay_2[2]
  97  0039  0080     E  	mov _builtin_holtek_mant2[2],a
  97  003A  0700     R  	mov a,_delay_2[1]
  97  003B  0080     E  	mov _builtin_holtek_mant2[1],a
  97  003C  0700     R  	mov a,_delay_2[0]
  97  003D  0080     E  	mov _builtin_holtek_mant2[0],a
  97  003E              	fcall _builtin_holtek_dtsub
  97  0045  3C00     E  	sz _builtin_holtek_mant12p[0].7
  97  0046  2800     R  	jmp _L8
  97  0047  0003        	ret
  97  0048              _delay endp
  97  0048              #line 97 "C:\Users\bet\Desktop\學姐i2c_code\HT66F70A.c"
  97  0048              #pragma debug scope 1 1
  97  0048              ___pac equ [19]
  97  0048              ___pa equ [18]
  97  0048              public _i2cStart
  97  0048              #pragma debug scope 5 1
 100  0048              #line 100 "C:\Users\bet\Desktop\學姐i2c_code\HT66F70A.c"
 100  0000              _i2cStart .section 'code'
 100  0000              _i2cStart proc
 100  0000  3693        	clr [19].5
 101  0001              #line 101 "C:\Users\bet\Desktop\學姐i2c_code\HT66F70A.c"
 101  0001  3613        	clr [19].4
 111  0002              #line 111 "C:\Users\bet\Desktop\學姐i2c_code\HT66F70A.c"
 111  0002  3212        	set [18].4
 112  0003              #line 112 "C:\Users\bet\Desktop\學姐i2c_code\HT66F70A.c"
 112  0003  0F6F        	mov a,111
 112  0004  0080     R  	mov _delay_2[0],a
 112  0005  0F12        	mov a,18
 112  0006  0080     R  	mov _delay_2[1],a
 112  0007  0F83        	mov a,-125
 112  0008  0080     R  	mov _delay_2[2],a
 112  0009  0F3A        	mov a,58
 112  000A  0080     R  	mov _delay_2[3],a
 112  000B              	fcall _delay
 113  0012              #line 113 "C:\Users\bet\Desktop\學姐i2c_code\HT66F70A.c"
 113  0012  3292        	set [18].5
 114  0013              #line 114 "C:\Users\bet\Desktop\學姐i2c_code\HT66F70A.c"
 114  0013  0F6F        	mov a,111
 114  0014  0080     R  	mov _delay_2[0],a
 114  0015  0F12        	mov a,18
 114  0016  0080     R  	mov _delay_2[1],a
 114  0017  0F83        	mov a,-125
 114  0018  0080     R  	mov _delay_2[2],a
 114  0019  0F3A        	mov a,58
 114  001A  0080     R  	mov _delay_2[3],a
 114  001B              	fcall _delay
 115  0022              #line 115 "C:\Users\bet\Desktop\學姐i2c_code\HT66F70A.c"
 115  0022  3612        	clr [18].4
 116  0023              #line 116 "C:\Users\bet\Desktop\學姐i2c_code\HT66F70A.c"
 116  0023  0F6F        	mov a,111
 116  0024  0080     R  	mov _delay_2[0],a
 116  0025  0F12        	mov a,18
"File: HT66F70A.c    Assembler  Version HGASM0202      Page 8

 116  0026  0080     R  	mov _delay_2[1],a
 116  0027  0F83        	mov a,-125
 116  0028  0080     R  	mov _delay_2[2],a
 116  0029  0F3A        	mov a,58
 116  002A  0080     R  	mov _delay_2[3],a
 116  002B              	fcall _delay
 117  0032              #line 117 "C:\Users\bet\Desktop\學姐i2c_code\HT66F70A.c"
 117  0032  3692        	clr [18].5
 118  0033              #line 118 "C:\Users\bet\Desktop\學姐i2c_code\HT66F70A.c"
 118  0033  0F6F        	mov a,111
 118  0034  0080     R  	mov _delay_2[0],a
 118  0035  0F12        	mov a,18
 118  0036  0080     R  	mov _delay_2[1],a
 118  0037  0F83        	mov a,-125
 118  0038  0080     R  	mov _delay_2[2],a
 118  0039  0F3A        	mov a,58
 118  003A  0080     R  	mov _delay_2[3],a
 118  003B              	fcall _delay
 118  0042  0003        	ret
 118  0043              _i2cStart endp
 118  0043              #line 118 "C:\Users\bet\Desktop\學姐i2c_code\HT66F70A.c"
 118  0043              #pragma debug scope 1 1
 118  0043              public _i2cStop
 118  0043              #pragma debug scope 6 1
 123  0043              #line 123 "C:\Users\bet\Desktop\學姐i2c_code\HT66F70A.c"
 123  0000              _i2cStop .section 'code'
 123  0000              _i2cStop proc
 124  0000              #line 124 "C:\Users\bet\Desktop\學姐i2c_code\HT66F70A.c"
 124  0000  3613        	clr [19].4
 125  0001              #line 125 "C:\Users\bet\Desktop\學姐i2c_code\HT66F70A.c"
 125  0001  3693        	clr [19].5
 134  0002              #line 134 "C:\Users\bet\Desktop\學姐i2c_code\HT66F70A.c"
 134  0002  3612        	clr [18].4
 135  0003              #line 135 "C:\Users\bet\Desktop\學姐i2c_code\HT66F70A.c"
 135  0003  3692        	clr [18].5
 136  0004              #line 136 "C:\Users\bet\Desktop\學姐i2c_code\HT66F70A.c"
 136  0004  0F6F        	mov a,111
 136  0005  0080     R  	mov _delay_2[0],a
 136  0006  0F12        	mov a,18
 136  0007  0080     R  	mov _delay_2[1],a
 136  0008  0F83        	mov a,-125
 136  0009  0080     R  	mov _delay_2[2],a
 136  000A  0F3A        	mov a,58
 136  000B  0080     R  	mov _delay_2[3],a
 136  000C              	fcall _delay
 137  0013              #line 137 "C:\Users\bet\Desktop\學姐i2c_code\HT66F70A.c"
 137  0013  3292        	set [18].5
 138  0014              #line 138 "C:\Users\bet\Desktop\學姐i2c_code\HT66F70A.c"
 138  0014  0F6F        	mov a,111
 138  0015  0080     R  	mov _delay_2[0],a
 138  0016  0F12        	mov a,18
 138  0017  0080     R  	mov _delay_2[1],a
 138  0018  0F83        	mov a,-125
 138  0019  0080     R  	mov _delay_2[2],a
 138  001A  0F3A        	mov a,58
 138  001B  0080     R  	mov _delay_2[3],a
 138  001C              	fcall _delay
 139  0023              #line 139 "C:\Users\bet\Desktop\學姐i2c_code\HT66F70A.c"
 139  0023  3212        	set [18].4
 140  0024              #line 140 "C:\Users\bet\Desktop\學姐i2c_code\HT66F70A.c"
"File: HT66F70A.c    Assembler  Version HGASM0202      Page 9

 140  0024  0F6F        	mov a,111
 140  0025  0080     R  	mov _delay_2[0],a
 140  0026  0F12        	mov a,18
 140  0027  0080     R  	mov _delay_2[1],a
 140  0028  0F83        	mov a,-125
 140  0029  0080     R  	mov _delay_2[2],a
 140  002A  0F3A        	mov a,58
 140  002B  0080     R  	mov _delay_2[3],a
 140  002C              	fcall _delay
 140  0033  0003        	ret
 140  0034              _i2cStop endp
 140  0034              #line 140 "C:\Users\bet\Desktop\學姐i2c_code\HT66F70A.c"
 140  0034              #pragma debug scope 1 1
 140  0034              public _i2cReStart
 140  0034              #pragma debug scope 7 1
 145  0034              #line 145 "C:\Users\bet\Desktop\學姐i2c_code\HT66F70A.c"
 145  0000              _i2cReStart .section 'code'
 145  0000              _i2cReStart proc
 146  0000              #line 146 "C:\Users\bet\Desktop\學姐i2c_code\HT66F70A.c"
 146  0000              	fcall _i2cStart
 146  0007  0003        	ret
 146  0008              _i2cReStart endp
 146  0008              #line 146 "C:\Users\bet\Desktop\學姐i2c_code\HT66F70A.c"
 146  0008              #pragma debug scope 1 1
 146  0008              public _i2cSendHeight
 146  0008              #pragma debug scope 8 1
 150  0008              #line 150 "C:\Users\bet\Desktop\學姐i2c_code\HT66F70A.c"
 150  0000              _i2cSendHeight .section 'code'
 150  0000              _i2cSendHeight proc
 151  0000              #line 151 "C:\Users\bet\Desktop\學姐i2c_code\HT66F70A.c"
 151  0000  3693        	clr [19].5
 152  0001              #line 152 "C:\Users\bet\Desktop\學姐i2c_code\HT66F70A.c"
 152  0001  3613        	clr [19].4
 154  0002              #line 154 "C:\Users\bet\Desktop\學姐i2c_code\HT66F70A.c"
 154  0002  3692        	clr [18].5
 155  0003              #line 155 "C:\Users\bet\Desktop\學姐i2c_code\HT66F70A.c"
 155  0003  0F6F        	mov a,111
 155  0004  0080     R  	mov _delay_2[0],a
 155  0005  0F12        	mov a,18
 155  0006  0080     R  	mov _delay_2[1],a
 155  0007  0F83        	mov a,-125
 155  0008  0080     R  	mov _delay_2[2],a
 155  0009  0F3A        	mov a,58
 155  000A  0080     R  	mov _delay_2[3],a
 155  000B              	fcall _delay
 156  0012              #line 156 "C:\Users\bet\Desktop\學姐i2c_code\HT66F70A.c"
 156  0012  3212        	set [18].4
 157  0013              #line 157 "C:\Users\bet\Desktop\學姐i2c_code\HT66F70A.c"
 157  0013  0F6F        	mov a,111
 157  0014  0080     R  	mov _delay_2[0],a
 157  0015  0F12        	mov a,18
 157  0016  0080     R  	mov _delay_2[1],a
 157  0017  0F83        	mov a,-125
 157  0018  0080     R  	mov _delay_2[2],a
 157  0019  0F3A        	mov a,58
 157  001A  0080     R  	mov _delay_2[3],a
 157  001B              	fcall _delay
 158  0022              #line 158 "C:\Users\bet\Desktop\學姐i2c_code\HT66F70A.c"
 158  0022  3292        	set [18].5
 159  0023              #line 159 "C:\Users\bet\Desktop\學姐i2c_code\HT66F70A.c"
"File: HT66F70A.c    Assembler  Version HGASM0202      Page 10

 159  0023  0F6F        	mov a,111
 159  0024  0080     R  	mov _delay_2[0],a
 159  0025  0F12        	mov a,18
 159  0026  0080     R  	mov _delay_2[1],a
 159  0027  0F83        	mov a,-125
 159  0028  0080     R  	mov _delay_2[2],a
 159  0029  0F3A        	mov a,58
 159  002A  0080     R  	mov _delay_2[3],a
 159  002B              	fcall _delay
 160  0032              #line 160 "C:\Users\bet\Desktop\學姐i2c_code\HT66F70A.c"
 160  0032  3692        	clr [18].5
 161  0033              #line 161 "C:\Users\bet\Desktop\學姐i2c_code\HT66F70A.c"
 161  0033  0F6F        	mov a,111
 161  0034  0080     R  	mov _delay_2[0],a
 161  0035  0F12        	mov a,18
 161  0036  0080     R  	mov _delay_2[1],a
 161  0037  0F83        	mov a,-125
 161  0038  0080     R  	mov _delay_2[2],a
 161  0039  0F3A        	mov a,58
 161  003A  0080     R  	mov _delay_2[3],a
 161  003B              	fcall _delay
 161  0042  0003        	ret
 161  0043              _i2cSendHeight endp
 161  0043              #line 161 "C:\Users\bet\Desktop\學姐i2c_code\HT66F70A.c"
 161  0043              #pragma debug scope 1 1
 161  0043              public _i2cSendLow
 161  0043              #pragma debug scope 9 1
 165  0043              #line 165 "C:\Users\bet\Desktop\學姐i2c_code\HT66F70A.c"
 165  0000              _i2cSendLow .section 'code'
 165  0000              _i2cSendLow proc
 166  0000              #line 166 "C:\Users\bet\Desktop\學姐i2c_code\HT66F70A.c"
 166  0000  3693        	clr [19].5
 167  0001              #line 167 "C:\Users\bet\Desktop\學姐i2c_code\HT66F70A.c"
 167  0001  3613        	clr [19].4
 169  0002              #line 169 "C:\Users\bet\Desktop\學姐i2c_code\HT66F70A.c"
 169  0002  3692        	clr [18].5
 170  0003              #line 170 "C:\Users\bet\Desktop\學姐i2c_code\HT66F70A.c"
 170  0003  0F6F        	mov a,111
 170  0004  0080     R  	mov _delay_2[0],a
 170  0005  0F12        	mov a,18
 170  0006  0080     R  	mov _delay_2[1],a
 170  0007  0F83        	mov a,-125
 170  0008  0080     R  	mov _delay_2[2],a
 170  0009  0F3A        	mov a,58
 170  000A  0080     R  	mov _delay_2[3],a
 170  000B              	fcall _delay
 171  0012              #line 171 "C:\Users\bet\Desktop\學姐i2c_code\HT66F70A.c"
 171  0012  3612        	clr [18].4
 172  0013              #line 172 "C:\Users\bet\Desktop\學姐i2c_code\HT66F70A.c"
 172  0013  0F6F        	mov a,111
 172  0014  0080     R  	mov _delay_2[0],a
 172  0015  0F12        	mov a,18
 172  0016  0080     R  	mov _delay_2[1],a
 172  0017  0F83        	mov a,-125
 172  0018  0080     R  	mov _delay_2[2],a
 172  0019  0F3A        	mov a,58
 172  001A  0080     R  	mov _delay_2[3],a
 172  001B              	fcall _delay
 173  0022              #line 173 "C:\Users\bet\Desktop\學姐i2c_code\HT66F70A.c"
 173  0022  3292        	set [18].5
"File: HT66F70A.c    Assembler  Version HGASM0202      Page 11

 174  0023              #line 174 "C:\Users\bet\Desktop\學姐i2c_code\HT66F70A.c"
 174  0023  0F6F        	mov a,111
 174  0024  0080     R  	mov _delay_2[0],a
 174  0025  0F12        	mov a,18
 174  0026  0080     R  	mov _delay_2[1],a
 174  0027  0F83        	mov a,-125
 174  0028  0080     R  	mov _delay_2[2],a
 174  0029  0F3A        	mov a,58
 174  002A  0080     R  	mov _delay_2[3],a
 174  002B              	fcall _delay
 175  0032              #line 175 "C:\Users\bet\Desktop\學姐i2c_code\HT66F70A.c"
 175  0032  3692        	clr [18].5
 176  0033              #line 176 "C:\Users\bet\Desktop\學姐i2c_code\HT66F70A.c"
 176  0033  0F6F        	mov a,111
 176  0034  0080     R  	mov _delay_2[0],a
 176  0035  0F12        	mov a,18
 176  0036  0080     R  	mov _delay_2[1],a
 176  0037  0F83        	mov a,-125
 176  0038  0080     R  	mov _delay_2[2],a
 176  0039  0F3A        	mov a,58
 176  003A  0080     R  	mov _delay_2[3],a
 176  003B              	fcall _delay
 176  0042  0003        	ret
 176  0043              _i2cSendLow endp
 176  0043              #line 176 "C:\Users\bet\Desktop\學姐i2c_code\HT66F70A.c"
 176  0043              #pragma debug scope 1 1
 176  0043              public _i2cAck
 176  0043              #pragma debug scope 10 1
 180  0043              #line 180 "C:\Users\bet\Desktop\學姐i2c_code\HT66F70A.c"
 180  0000              _i2cAck .section 'code'
 180  0000              _i2cAck proc
 181  0000              #line 181 "C:\Users\bet\Desktop\學姐i2c_code\HT66F70A.c"
 181  0000              	fcall _i2cSendLow
 181  0007  0003        	ret
 181  0008              _i2cAck endp
 181  0008              #line 181 "C:\Users\bet\Desktop\學姐i2c_code\HT66F70A.c"
 181  0008              #pragma debug scope 1 1
 181  0008              public _i2cNack
 181  0008              #pragma debug scope 11 1
 185  0008              #line 185 "C:\Users\bet\Desktop\學姐i2c_code\HT66F70A.c"
 185  0000              _i2cNack .section 'code'
 185  0000              _i2cNack proc
 186  0000              #line 186 "C:\Users\bet\Desktop\學姐i2c_code\HT66F70A.c"
 186  0000              	fcall _i2cSendHeight
 186  0007  0003        	ret
 186  0008              _i2cNack endp
 186  0008              #line 186 "C:\Users\bet\Desktop\學姐i2c_code\HT66F70A.c"
 186  0008              #pragma debug scope 1 1
 186  0008              public _i2cSendData
 186  0008              #pragma debug scope 12 1
 190  0008              #line 190 "C:\Users\bet\Desktop\學姐i2c_code\HT66F70A.c"
 190  0000              _i2cSendData .section 'code'
 190  0000              _i2cSendData proc
 190  0000  0003[           local _i2cSendData_2 db 3 dup(?)	; 0,3
            00
            ]
 190  0000  0080     R  	mov _i2cSendData_2[0],a
 190  0001              #pragma debug variable 8 12 _i2cSendData_2+0 "i2cData"
 190  0001              #pragma debug variable 8 12 _i2cSendData_2+1 "i2cmask"
 192  0001              #line 192 "C:\Users\bet\Desktop\學姐i2c_code\HT66F70A.c"
"File: HT66F70A.c    Assembler  Version HGASM0202      Page 12

 192  0001  3613        	clr [19].4
 193  0002              #line 193 "C:\Users\bet\Desktop\學姐i2c_code\HT66F70A.c"
 193  0002  3693        	clr [19].5
 193  0003  1F00     R  	clr _i2cSendData_2[2]
 191  0004              #line 191 "C:\Users\bet\Desktop\學姐i2c_code\HT66F70A.c"
 191  0004  0F80        	mov a,128
 191  0005  0080     R  	mov _i2cSendData_2[1],a
 191  0006              _L20:
 197  0006              #line 197 "C:\Users\bet\Desktop\學姐i2c_code\HT66F70A.c"
 197  0006  0700     R  	mov a,_i2cSendData_2[1]
 197  0007  0600     R  	and a,_i2cSendData_2[0]
 197  0008  0080     E  	mov ra,a
 197  0009  1E00     E  	snz ra
 197  000A  2800     R  	jmp _L17
 197  000B              	fcall _i2cSendHeight
 197  0012  2800     R  	jmp _L18
 197  0013              _L17:
 197  0013              	fcall _i2cSendLow
 197  001A              _L18:
 198  001A              #line 198 "C:\Users\bet\Desktop\學姐i2c_code\HT66F70A.c"
 198  001A  340A        	clr c
 198  001B  1B80     R  	rrc _i2cSendData_2[1]
 198  001C  1480     R  	inc _i2cSendData_2[2]
 200  001D              #line 200 "C:\Users\bet\Desktop\學姐i2c_code\HT66F70A.c"
 200  001D  0700     R  	mov a,_i2cSendData_2[2]
 200  001E  0A08        	sub a,8
 200  001F  390A        	snz z
 200  0020  2800     R  	jmp _L20
 200  0021  0003        	ret
 200  0022              _i2cSendData endp
 200  0022              #line 200 "C:\Users\bet\Desktop\學姐i2c_code\HT66F70A.c"
 200  0022              #pragma debug scope 1 1
 200  0022              ___pbc equ [23]
 200  0022              public _i2cGetData
 200  0022              #pragma debug scope 13 1
 204  0022              #line 204 "C:\Users\bet\Desktop\學姐i2c_code\HT66F70A.c"
 204  0000              _i2cGetData .section 'code'
 204  0000              _i2cGetData proc
 204  0000  0003[           local _i2cGetData_2 db 3 dup(?)	; 0,3
            00
            ]
 204  0003              #pragma debug variable 8 13 _i2cGetData_2+1 "i2cmask"
 204  0003              #pragma debug variable 8 13 _i2cGetData_2+0 "i2creaddata"
 207  0000              #line 207 "C:\Users\bet\Desktop\學姐i2c_code\HT66F70A.c"
 207  0000  3213        	set [19].4
 208  0001              #line 208 "C:\Users\bet\Desktop\學姐i2c_code\HT66F70A.c"
 208  0001  3212        	set [18].4
 208  0002  1F00     R  	clr _i2cGetData_2[2]
 206  0003              #line 206 "C:\Users\bet\Desktop\學姐i2c_code\HT66F70A.c"
 206  0003  1F00     R  	clr _i2cGetData_2[0]
 205  0004              #line 205 "C:\Users\bet\Desktop\學姐i2c_code\HT66F70A.c"
 205  0004  0F80        	mov a,128
 205  0005  0080     R  	mov _i2cGetData_2[1],a
 205  0006              _L24:
 211  0006              #line 211 "C:\Users\bet\Desktop\學姐i2c_code\HT66F70A.c"
 211  0006  3692        	clr [18].5
 212  0007              #line 212 "C:\Users\bet\Desktop\學姐i2c_code\HT66F70A.c"
 212  0007  0F6F        	mov a,111
 212  0008  0080     R  	mov _delay_2[0],a
 212  0009  0F12        	mov a,18
"File: HT66F70A.c    Assembler  Version HGASM0202      Page 13

 212  000A  0080     R  	mov _delay_2[1],a
 212  000B  0F83        	mov a,-125
 212  000C  0080     R  	mov _delay_2[2],a
 212  000D  0F3A        	mov a,58
 212  000E  0080     R  	mov _delay_2[3],a
 212  000F              	fcall _delay
 215  0016              #line 215 "C:\Users\bet\Desktop\學姐i2c_code\HT66F70A.c"
 215  0016  3A12        	snz [18].4
 215  0017  2800     R  	jmp _L25
 215  0018  0700     R  	mov a,_i2cGetData_2[0]
 215  0019  0500     R  	or a,_i2cGetData_2[1]
 215  001A  0080     E  	mov ra,a
 215  001B  2800     R  	jmp _L22
 215  001C              _L25:
 215  001C  0700     R  	mov a,_i2cGetData_2[0]
 215  001D  0080     E  	mov ra,a
 215  001E              _L22:
 215  001E  0700     E  	mov a,ra
 215  001F  0580     R  	orm a,_i2cGetData_2[0]
 216  0020              #line 216 "C:\Users\bet\Desktop\學姐i2c_code\HT66F70A.c"
 216  0020  3292        	set [18].5
 217  0021              #line 217 "C:\Users\bet\Desktop\學姐i2c_code\HT66F70A.c"
 217  0021  0F6F        	mov a,111
 217  0022  0080     R  	mov _delay_2[0],a
 217  0023  0F12        	mov a,18
 217  0024  0080     R  	mov _delay_2[1],a
 217  0025  0F83        	mov a,-125
 217  0026  0080     R  	mov _delay_2[2],a
 217  0027  0F3A        	mov a,58
 217  0028  0080     R  	mov _delay_2[3],a
 217  0029              	fcall _delay
 218  0030              #line 218 "C:\Users\bet\Desktop\學姐i2c_code\HT66F70A.c"
 218  0030  340A        	clr c
 218  0031  1B80     R  	rrc _i2cGetData_2[1]
 218  0032  1480     R  	inc _i2cGetData_2[2]
 219  0033              #line 219 "C:\Users\bet\Desktop\學姐i2c_code\HT66F70A.c"
 219  0033  0700     R  	mov a,_i2cGetData_2[2]
 219  0034  0A08        	sub a,8
 219  0035  390A        	snz z
 219  0036  2800     R  	jmp _L24
 220  0037              #line 220 "C:\Users\bet\Desktop\學姐i2c_code\HT66F70A.c"
 220  0037  3517        	clr [23].2
 223  0038              #line 223 "C:\Users\bet\Desktop\學姐i2c_code\HT66F70A.c"
 223  0038  0700     R  	mov a,_i2cGetData_2[0]
 223  0039  0003        	ret
 223  003A              _i2cGetData endp
 223  003A              #line 223 "C:\Users\bet\Desktop\學姐i2c_code\HT66F70A.c"
 223  003A              #pragma debug scope 1 1
 223  003A              public _i2cWrite
 223  003A              #pragma debug scope 14 1
 226  003A              #line 226 "C:\Users\bet\Desktop\學姐i2c_code\HT66F70A.c"
 226  0000              _i2cWrite .section 'code'
 226  0000              _i2cWrite proc
 226  0000              public _i2cWrite_2
 226  0000  0003[           local _i2cWrite_2 db 3 dup(?)	; 2,1
            00
            ]
 226  0000  0080     R  	mov _i2cWrite_2[2],a
 226  0001              #pragma debug variable 8 14 _i2cWrite_2+2 "i2cAddress"
 226  0001              #pragma debug variable 8 14 _i2cWrite_2+0 "i2cRegister"
"File: HT66F70A.c    Assembler  Version HGASM0202      Page 14

 226  0001              #pragma debug variable 8 14 _i2cWrite_2+1 "i2cData"
 227  0001              #line 227 "C:\Users\bet\Desktop\學姐i2c_code\HT66F70A.c"
 227  0001              	fcall _i2cStart
 228  0008              #line 228 "C:\Users\bet\Desktop\學姐i2c_code\HT66F70A.c"
 228  0008  0700     R  	mov a,_i2cWrite_2[2]
 228  0009  0300     R  	add a,_i2cWrite_2[2]
 228  000A  0080     E  	mov ra,a
 228  000B  0700     E  	mov a,ra
 228  000C              	fcall _i2cSendData
 229  0013              #line 229 "C:\Users\bet\Desktop\學姐i2c_code\HT66F70A.c"
 229  0013              	fcall _i2cAck
 230  001A              #line 230 "C:\Users\bet\Desktop\學姐i2c_code\HT66F70A.c"
 230  001A  0700     R  	mov a,_i2cWrite_2[0]
 230  001B              	fcall _i2cSendData
 231  0022              #line 231 "C:\Users\bet\Desktop\學姐i2c_code\HT66F70A.c"
 231  0022              	fcall _i2cAck
 232  0029              #line 232 "C:\Users\bet\Desktop\學姐i2c_code\HT66F70A.c"
 232  0029  0700     R  	mov a,_i2cWrite_2[1]
 232  002A  0080     E  	mov ra,a
 232  002B  0700     E  	mov a,ra
 232  002C              	fcall _i2cSendData
 233  0033              #line 233 "C:\Users\bet\Desktop\學姐i2c_code\HT66F70A.c"
 233  0033              	fcall _i2cAck
 234  003A              #line 234 "C:\Users\bet\Desktop\學姐i2c_code\HT66F70A.c"
 234  003A              	fcall _i2cStop
 234  0041  0003        	ret
 234  0042              _i2cWrite endp
 234  0042              #line 234 "C:\Users\bet\Desktop\學姐i2c_code\HT66F70A.c"
 234  0042              #pragma debug scope 1 1
 234  0042              public _i2cRead
 234  0042              #pragma debug scope 15 1
 239  0042              #line 239 "C:\Users\bet\Desktop\學姐i2c_code\HT66F70A.c"
 239  0000              _i2cRead .section 'code'
 239  0000              _i2cRead proc
 239  0000              public _i2cRead_2
 239  0000  0003[           local _i2cRead_2 db 3 dup(?)	; 1,2
            00
            ]
 239  0000  0080     R  	mov _i2cRead_2[1],a
 239  0001              #pragma debug variable 8 15 _i2cRead_2+1 "i2cAddress"
 239  0001              #pragma debug variable 8 15 _i2cRead_2+0 "i2cRegister"
 239  0001              #pragma debug variable 8 15 _i2cRead_2+2 "i2creaddata"
 241  0001              #line 241 "C:\Users\bet\Desktop\學姐i2c_code\HT66F70A.c"
 241  0001  3613        	clr [19].4
 242  0002              #line 242 "C:\Users\bet\Desktop\學姐i2c_code\HT66F70A.c"
 242  0002  3693        	clr [19].5
 243  0003              #line 243 "C:\Users\bet\Desktop\學姐i2c_code\HT66F70A.c"
 243  0003              	fcall _i2cStart
 245  000A              #line 245 "C:\Users\bet\Desktop\學姐i2c_code\HT66F70A.c"
 245  000A  0700     R  	mov a,_i2cRead_2[1]
 245  000B  0300     R  	add a,_i2cRead_2[1]
 245  000C  0080     E  	mov ra,a
 245  000D  0700     E  	mov a,ra
 245  000E              	fcall _i2cSendData
 247  0015              #line 247 "C:\Users\bet\Desktop\學姐i2c_code\HT66F70A.c"
 247  0015              	fcall _i2cAck
 248  001C              #line 248 "C:\Users\bet\Desktop\學姐i2c_code\HT66F70A.c"
 248  001C  0700     R  	mov a,_i2cRead_2[0]
 248  001D              	fcall _i2cSendData
 249  0024              #line 249 "C:\Users\bet\Desktop\學姐i2c_code\HT66F70A.c"
"File: HT66F70A.c    Assembler  Version HGASM0202      Page 15

 249  0024              	fcall _i2cAck
 249  002B              #pragma debug scope 16 15
 249  002B              ;begin block, line: 249.-1
 249  002B              #pragma debug scope 17 16
 249  002B              ;begin block, line: 249.-1
 146  002B              #line 146 "C:\Users\bet\Desktop\學姐i2c_code\HT66F70A.c"
 146  002B              	fcall _i2cStart
 146  0032              #pragma debug scope 16 15
 146  0032              #pragma debug scope 15 1
 251  0032              #line 251 "C:\Users\bet\Desktop\學姐i2c_code\HT66F70A.c"
 251  0032  0700     R  	mov a,_i2cRead_2[1]
 251  0033  0300     R  	add a,_i2cRead_2[1]
 251  0034  0080     E  	mov ra,a
 251  0035  3000     E  	set ra.0
 251  0036  0700     E  	mov a,ra
 251  0037              	fcall _i2cSendData
 253  003E              #line 253 "C:\Users\bet\Desktop\學姐i2c_code\HT66F70A.c"
 253  003E              	fcall _i2cAck
 254  0045              #line 254 "C:\Users\bet\Desktop\學姐i2c_code\HT66F70A.c"
 254  0045              	fcall _i2cGetData
 254  004C  0080     R  	mov _i2cRead_2[2],a
 254  004D              #pragma debug scope 18 15
 254  004D              ;begin block, line: 254.-1
 254  004D              #pragma debug scope 19 18
 254  004D              ;begin block, line: 254.-1
 186  004D              #line 186 "C:\Users\bet\Desktop\學姐i2c_code\HT66F70A.c"
 186  004D              	fcall _i2cSendHeight
 186  0054              #pragma debug scope 18 15
 186  0054              #pragma debug scope 15 1
 256  0054              #line 256 "C:\Users\bet\Desktop\學姐i2c_code\HT66F70A.c"
 256  0054              	fcall _i2cStop
 258  005B              #line 258 "C:\Users\bet\Desktop\學姐i2c_code\HT66F70A.c"
 258  005B  0700     R  	mov a,_i2cRead_2[2]
 258  005C  0003        	ret
 258  005D              _i2cRead endp
 258  005D              #line 258 "C:\Users\bet\Desktop\學姐i2c_code\HT66F70A.c"
 258  005D              #pragma debug scope 1 1
 258  005D              ___wdtc equ [62]
 258  005D              ___sima equ [111]
 258  005D              public _main
 258  005D              #pragma debug scope 20 1
  52  005D              #line 52 "C:\Users\bet\Desktop\學姐i2c_code\HT66F70A.c"
  52  005D              IFDEF WITH_DEFAULT_STARTUP
  52  005D              extern _main_initial0:near
  52  005D              extern _main_startup:near
  52  005D              ENDIF
  52  005D              
  52  005D              ROMBANK 0 @start
  52  0000              @start .section com_l 'code'
  52  0000              _main_startup1:
  52  0000              @start .section com_e 'code'
  52  0000  0F00     R  	mov a,bank _main
  52  0001  008B        	mov bp,a
  52  0002  2800     R  	jmp _main
  52  0003              
  52  0000              _main .section 'code'
  52  0000              _main proc
  55  0000              #line 55 "C:\Users\bet\Desktop\學姐i2c_code\HT66F70A.c"
  55  0000  0FAF        	mov a,175
  55  0001  00BE        	mov [62],a
"File: HT66F70A.c    Assembler  Version HGASM0202      Page 16

  56  0002              #line 56 "C:\Users\bet\Desktop\學姐i2c_code\HT66F70A.c"
  56  0002              	fcall _UART_init
  58  0009              #line 58 "C:\Users\bet\Desktop\學姐i2c_code\HT66F70A.c"
  58  0009  0FC0        	mov a,192
  58  000A  00EF        	mov [111],a
  59  000B              #line 59 "C:\Users\bet\Desktop\學姐i2c_code\HT66F70A.c"
  59  000B  1F00     R  	clr _RxFlag[0]
  59  000C  1F00     R  	clr _RxFlag[1]
  59  000D              _L29:
  65  000D              #line 65 "C:\Users\bet\Desktop\學姐i2c_code\HT66F70A.c"
  65  000D  0F2F        	mov a,47
  65  000E  0080     R  	mov _i2cWrite_2[1],a
  65  000F  0F70        	mov a,112
  65  0010  0080     R  	mov _i2cWrite_2[0],a
  65  0011  0F70        	mov a,112
  65  0012              	fcall _i2cWrite
  69  0019              #line 69 "C:\Users\bet\Desktop\學姐i2c_code\HT66F70A.c"
  69  0019  0F0D        	mov a,13
  69  001A              	fcall _PC_TX
  71  0021              #line 71 "C:\Users\bet\Desktop\學姐i2c_code\HT66F70A.c"
  71  0021  0F71        	mov a,113
  71  0022  0080     R  	mov _i2cRead_2[0],a
  71  0023  0F70        	mov a,112
  71  0024              	fcall _i2cRead
  71  002B  0080     E  	mov ra,a
  71  002C  0700     E  	mov a,ra
  71  002D  0080     R  	mov _RxData[0],a
  73  002E              #line 73 "C:\Users\bet\Desktop\學姐i2c_code\HT66F70A.c"
  73  002E  0700     E  	mov a,ra
  73  002F              	fcall _PC_TX
  74  0036              #line 74 "C:\Users\bet\Desktop\學姐i2c_code\HT66F70A.c"
  74  0036  0F64        	mov a,100
  74  0037              	fcall _PC_TX
  76  003E              #line 76 "C:\Users\bet\Desktop\學姐i2c_code\HT66F70A.c"
  76  003E  0F73        	mov a,115
  76  003F  0080     R  	mov _i2cRead_2[0],a
  76  0040  0F72        	mov a,114
  76  0041              	fcall _i2cRead
  76  0048  0080     E  	mov ra,a
  76  0049  0700     E  	mov a,ra
  76  004A  0080     R  	mov _RxData[0],a
  78  004B              #line 78 "C:\Users\bet\Desktop\學姐i2c_code\HT66F70A.c"
  78  004B  0700     E  	mov a,ra
  78  004C              	fcall _PC_TX
  79  0053              #line 79 "C:\Users\bet\Desktop\學姐i2c_code\HT66F70A.c"
  79  0053  0F66        	mov a,102
  79  0054              	fcall _PC_TX
  79  005B  2800     R  	jmp _L29
  79  005C  2800     R  	jmp $
  79  005D              _main endp
  79  005D              
  79  005D              @dummy endp
  79  005D              
  79  005D              #line 79 "C:\Users\bet\Desktop\學姐i2c_code\HT66F70A.c"
  79  005D              #pragma debug scope 1 1
  79  005D              public _output1
  79  0000              @HCCINIT	.section 'data'
  37  0000              #line 37 "C:\Users\bet\Desktop\學姐i2c_code\HT66F70A.c"
  37  0000              @HCCINIT_output1 .section 'data'
  37  0000              _output1 label byte
"File: HT66F70A.c    Assembler  Version HGASM0202      Page 17

  37  0000              #pragma debug array 42 7 4 1
  37  0000              #pragma debug array 42 7 4 1
  37  0000              #pragma debug variable 42 1 _output1 "output1"
  37  0000              	db 48
  37  0000              @ROMDATA_BASE .section inpage 'code'
  37  0000              	db 48
  37  0001              @HCCINIT_output1 .section 'data'
  37  0001              	db 49
  37  0001              @ROMDATA_BASE .section inpage 'code'
  37  0001              	db 49
  37  0002              @HCCINIT_output1 .section 'data'
  37  0002              	db 0
  37  0001              @ROMDATA_BASE .section inpage 'code'
  37  0001              	db 0
  37  0003              @HCCINIT_output1 .section 'data'
  37  0003              	db 0
  37  0002              @ROMDATA_BASE .section inpage 'code'
  37  0002              	db 0
  37  0004              @HCCINIT_output1 .section 'data'
  18  0004              #line 18 "C:\Users\bet\Desktop\學姐i2c_code\HT66F70A.c"
  18  0004              public _RxData
  18  0000              @HCCINIT0_RxData .section 'data'
  18  0000              _RxData	db 0
  18  0001              #pragma debug variable 8 1 _RxData "RxData"
  18  0001              
  18  0000              @HCCINIT .section 'data'
  11  0000              #line 11 "C:\Users\bet\Desktop\學姐i2c_code\HT66F70A.c"
  11  0000              public _DeviceFlag
  11  0000              @HCCINIT0_DeviceFlag .section 'data'
  11  0000  0002[       _DeviceFlag	db 2 dup(0)
            00
            ]
  11  0002              #pragma debug variable 11 1 _DeviceFlag "DeviceFlag"
  11  0002              
  11  0000              @HCCINIT .section 'data'
  10  0000              #line 10 "C:\Users\bet\Desktop\學姐i2c_code\HT66F70A.c"
  10  0000              public _RxFlag
  10  0000              @HCCINIT0_RxFlag .section 'data'
  10  0000  0002[       _RxFlag	db 2 dup(0)
            00
            ]
  10  0002              #pragma debug variable 11 1 _RxFlag "RxFlag"
  10  0002              
  10  0000              @HCCINIT .section 'data'
  10  0000              #pragma debug struct_end
  10  0000              #pragma debug struct_end
  10  0000              #pragma debug union_end
  10  0000              #pragma debug union_end
  10  0000              #pragma debug variable 44 1 ___pa "__pa" 1
  10  0000              #pragma debug struct_end
  10  0000              #pragma debug struct_end
  10  0000              #pragma debug union_end
  10  0000              #pragma debug union_end
  10  0000              #pragma debug variable 46 1 ___pac "__pac" 1
  10  0000              #pragma debug struct_end
  10  0000              #pragma debug struct_end
  10  0000              #pragma debug union_end
  10  0000              #pragma debug union_end
  10  0000              #pragma debug variable 48 1 ___pbc "__pbc" 1
  10  0000              #pragma debug struct_end
"File: HT66F70A.c    Assembler  Version HGASM0202      Page 18

  10  0000              #pragma debug struct_end
  10  0000              #pragma debug union_end
  10  0000              #pragma debug union_end
  10  0000              #pragma debug variable 50 1 ___pcpu "__pcpu" 1
  10  0000              #pragma debug struct_end
  10  0000              #pragma debug struct_end
  10  0000              #pragma debug union_end
  10  0000              #pragma debug union_end
  10  0000              #pragma debug variable 52 1 ___pcc "__pcc" 1
  10  0000              #pragma debug struct_end
  10  0000              #pragma debug struct_end
  10  0000              #pragma debug union_end
  10  0000              #pragma debug union_end
  10  0000              #pragma debug variable 54 1 ___wdtc "__wdtc" 1
  10  0000              #pragma debug struct_end
  10  0000              #pragma debug struct_end
  10  0000              #pragma debug union_end
  10  0000              #pragma debug union_end
  10  0000              #pragma debug variable 56 1 ___sima "__sima" 1
  52  0000              #line 52 "C:\Users\bet\Desktop\學姐i2c_code\HT66F70A.c"
  52  0000              @code .section at 0 'code'
  52  0000  1F0B        	clr bp
  52  0001  2800     R  	jmp _main_startup1
  52  0002              
  52  0002              extern _builtin_holtek_mant1:byte
  52  0002              extern _builtin_holtek_mant2:byte
  52  0002              extern _builtin_holtek_mant12p:byte
  52  0002              extern _builtin_holtek_dtadd:near
  52  0002              extern _builtin_holtek_dtsub:near
  52  0002              extern _UART_init:near
  52  0002              extern _PC_TX:near
  52  0002              
  52  0002              ; 
  52  0002              ; Generated by holtek-gcc v3.13, Tue Oct 25 17:31:35 2016
  52  0002              ; Rebuild 71
  52  0002              ; end of file


        0 Errors, 0