"File: UART.c        Assembler  Version HGASM0202      Page 1


   1  0000              ; Generated by holtek-gcc v3.13, Fri Nov 18 15:58:06 2016
   2  0000              ; 
   3  0000              ; Configuration:
   4  0000              ;       with long instruction
   5  0000              ;       Multi-ROM, Multi-RAM
   6  0000              ;       bits_per_rom_unit:16
   7  0000              ;       with mp1
   8  0000              ;       with tbhp, address(0x9)
   9  0000              ;          Use tabrd-const
  10  0000              ;       
  11  0000              ; SFR address of long-instruction arch:
  12  0000              ;    mp0 = -1,1,0
  13  0000              ;    mp1 = 4,3,2
  14  0000              ;    mp2 = 14,13,12
  15  0000              ;    tbp = 9,7,8
  16  0000              ;    acc = 5
  17  0000              ;    pcl = 6
  18  0000              ;    status = 10
  19  0000              ;    bp = 11
  20  0000              ;    intc = 48
  21  0000              ;       
  22  0000              ;       
  23  0000              ; use 'tabrdc' instead of 'tabrd'
  24  0000              ;       
  25  0000              
  26  0000              #pragma translator "holtek-gcc 4.6.4" "3.13" "build 20130711"
  27  0000              ; Rebuild 71
  28  0000              
  29  0000              ir equ [2]
  30  0000              mp equ [3]
  31  0000              sbp equ [4]
  32  0000              acc equ [5]
  33  0000              bp equ [11]
  34  0000              tblp equ [7]
  35  0000              tbhp equ [9]
  36  0000              status equ [10]
  37  0000              c equ [10].0
  38  0000              ac equ [10].1
  39  0000              z equ [10].2
  40  0000              ov equ [10].3
  41  0000              cz equ [10].6
  42  0000              sc equ [10].7
  43  0000              intc equ [48]
  44  0000              
  45  0000              extern ra:byte
  46  0000              extern rb:byte
  47  0000              extern rc:byte
  48  0000              extern rd:byte
  49  0000              extern re:byte
  50  0000              extern rf:byte
  51  0000              extern rg:byte
  52  0000              extern rh:byte
  53  0000              extern _Crom2Prom:near
  54  0000              extern _Crom2PromNext:near
  55  0000              @HCCINIT	.section 'data'
  56  0000              @HCCINIT0	.section 'data'
  57  0000              
  58  0000              #pragma debug scope 1 1
  59  0000              	extern __DELAY3:near
"File: UART.ASM      Assembler  Version HGASM0202      Page 2

  60  0000              	extern __DELAYX3:near
  61  0000              	extern __DELAYX6:near
  62  0000              	extern __DELAYY5:near
  63  0000              	extern __DELAYY3:near
  64  0000              	extern _builtin_holtek_delay_2:byte
  65  0000              public _Delay100us
  66  0000              #pragma debug scope 2 1

 132  0000              #line 132 "C:\Users\bet\Desktop\APP - new\UART.c"
 132  0000              _Delay100us .section 'code'
 132  0000              _Delay100us proc
 132  0000              public _Delay100us_2
 132  0000  0002[           local _Delay100us_2 db 2 dup(?)	; 2,0
            00
            ]
 132  0002              #pragma debug variable 10 2 _Delay100us_2+0 "del"
 133  0000              #line 133 "C:\Users\bet\Desktop\APP - new\UART.c"
 133  0000  1F00     E  	clr rb
 133  0001  1F00     E  	clr rc
 133  0002              _L2:
 133  0002              #line 133 "C:\Users\bet\Desktop\APP - new\UART.c"
 133  0002  0700     E  	mov a,rb
 133  0003  0200     R  	sub a,_Delay100us_2[0]
 133  0004  0700     E  	mov a,rc
 133  0005  1200     R  	sbc a,_Delay100us_2[1]
 133  0006  3F0A        	sz cz
 133  0007  2800     R  	jmp _L1
 133  0008  1F00     E  	clr ra
 133  0009              _L5:
 134  0009              #line 134 "C:\Users\bet\Desktop\APP - new\UART.c"
 134  0009              ;# 134 "C:\Users\bet\Desktop\APP - new\UART.c" 1
 134  0009  0000        	nop
 134  000A  1480     E  	inc ra
 134  000B  0700     E  	mov a,ra
 134  000C  0A1A        	sub a,26
 134  000D  390A        	snz z
 134  000E  2800     R  	jmp _L5
 133  000F              #line 133 "C:\Users\bet\Desktop\APP - new\UART.c"
 133  000F  1480     E  	inc rb
 133  0010  3D0A        	sz z
 133  0011  1480     E  	inc rc
 133  0012  2800     R  	jmp _L2
 133  0013              _L1:
 133  0013  0003        	ret
 133  0014              _Delay100us endp
 133  0014              #line 133 "C:\Users\bet\Desktop\APP - new\UART.c"
 133  0014              #pragma debug scope 1 1
 133  0014              ___adcr0 equ [104]
 133  0014              ___adrh equ [107]
 133  0014              ___adrl equ [106]
 133  0014              ___intc1 equ [49]
 133  0014              public _ISR_ADC
 133  0014              #pragma debug scope 3 1
  93  0014              #line 93 "C:\Users\bet\Desktop\APP - new\UART.c"
  93  0014              rombank 0 @ISR_ADC_code
  93  0000              @ISR_ADC_code .section at 28 'code'
  93  0000  0080     E  	mov r1,a
  93  0001  070B        	mov a,bp
  93  0002  1F0B        	clr bp
  93  0003  2800     R  	jmp _ISR_ADC
"File: UART.c        Assembler  Version HGASM0202      Page 3

  93  0004              ROMBANK 0 _ISR_ADC
  93  0004              #pragma debug scope 1 1
  93  0004              @dummy28 endp
  93  0004              #pragma debug scope 4 1
  93  0000              _ISR_ADC .section 'code'
  93  0000              _ISR_ADC proc
  93  0000  0080     E  	mov r2,a
  93  0001  070A        	mov a, status
  93  0002  0080     E  	mov r3,a
  93  0003  0703        	mov a,mp
  93  0004  0080     E  	mov r4,a
  93  0005  0704        	mov a,sbp
  93  0006  0080     E  	mov r5,a
  93  0007  0707        	mov a,tblp
  93  0008  0080     E  	mov r6,a
  93  0009  0709        	mov a,tbhp
  93  000A  0080     E  	mov r7,a
  95  000B              #line 95 "C:\Users\bet\Desktop\APP - new\UART.c"
  95  000B  33E8        	set [104].7
  96  000C              #line 96 "C:\Users\bet\Desktop\APP - new\UART.c"
  96  000C  37E8        	clr [104].7
  97  000D              #line 97 "C:\Users\bet\Desktop\APP - new\UART.c"
  97  000D  0FE8        	mov a,-24
  97  000E  0080     R  	mov _Delay100us_2[0],a
  97  000F  0F03        	mov a,3
  97  0010  0080     R  	mov _Delay100us_2[1],a
  97  0011              	fcall _Delay100us
  98  0018              #line 98 "C:\Users\bet\Desktop\APP - new\UART.c"
  98  0018  0700     R  	mov a,_flag[0]
  98  0019  0080     E  	mov rb,a
  98  001A  0700     R  	mov a,_flag[1]
  98  001B  0080     E  	mov rc,a
  98  001C  0700     E  	mov a,rb
  98  001D  0500     E  	or a,rc
  98  001E  390A        	snz z
  98  001F  2800     R  	jmp _L8
 100  0020              #line 100 "C:\Users\bet\Desktop\APP - new\UART.c"
 100  0020  076B        	mov a,[107]
 100  0021  0080     E  	mov rd,a
 100  0022  1F00     E  	clr re
 102  0023              #line 102 "C:\Users\bet\Desktop\APP - new\UART.c"
 102  0023  076A        	mov a,[106]
 102  0024  0080     E  	mov rb,a
 102  0025  1F00     E  	clr rc
 103  0026              #line 103 "C:\Users\bet\Desktop\APP - new\UART.c"
 103  0026  0F06        	mov a,6
 103  0027              _LI1:
 103  0027  340A        	clr c
 103  0028  3C00     E  	sz rc.7
 103  0029  300A        	set c
 103  002A  1B80     E  	rrc rc
 103  002B  1B80     E  	rrc rb
 103  002C  1785        	sdz acc
 103  002D  2800     R  	jmp _LI1
 101  002E              #line 101 "C:\Users\bet\Desktop\APP - new\UART.c"
 101  002E  340A        	clr c
 101  002F  1A80     E  	rlc rd
 101  0030  1A80     E  	rlc re
 101  0031  340A        	clr c
 101  0032  1A80     E  	rlc rd
"File: UART.c        Assembler  Version HGASM0202      Page 4

 101  0033  1A80     E  	rlc re
 104  0034              #line 104 "C:\Users\bet\Desktop\APP - new\UART.c"
 104  0034  0700     E  	mov a,rd
 104  0035  0380     E  	addm a,rb
 104  0036  0700     E  	mov a,re
 104  0037  1380     E  	adcm a,rc
 105  0038              #line 105 "C:\Users\bet\Desktop\APP - new\UART.c"
 105  0038  0700     E  	mov a,rb  
 105  0039  0080     E  	mov _builtin_holtek_udivmodhi4_2[0],a  
 105  003A  0700     E  	mov a,rc  
 105  003B  0080     E  	mov _builtin_holtek_udivmodhi4_2[1],a
 105  003C  0F64        	mov a,100  
 105  003D  0080     E  	mov _builtin_holtek_udivmodhi4_2[2],a  
 105  003E  0F00        	mov a,0  
 105  003F  0080     E  	mov _builtin_holtek_udivmodhi4_2[3],a
 105  0040              	fcall _builtin_holtek_divmodhi4
 105  0047  0700     E  	mov a,_builtin_holtek_udivmodhi4_2[0]  
 105  0048  0080     E  	mov rd,a  
 105  0049  0700     E  	mov a,_builtin_holtek_udivmodhi4_2[1]  
 105  004A  0080     E  	mov re,a
 105  004B  0700     E  	mov a,rd
 105  004C  0B30        	add a,48
 105  004D  0080     R  	mov _e[1],a
 106  004E              #line 106 "C:\Users\bet\Desktop\APP - new\UART.c"
 106  004E  0700     E  	mov a,rb  
 106  004F  0080     E  	mov _builtin_holtek_udivmodhi4_2[0],a  
 106  0050  0700     E  	mov a,rc  
 106  0051  0080     E  	mov _builtin_holtek_udivmodhi4_2[1],a
 106  0052  0F64        	mov a,100  
 106  0053  0080     E  	mov _builtin_holtek_udivmodhi4_2[2],a  
 106  0054  0F00        	mov a,0  
 106  0055  0080     E  	mov _builtin_holtek_udivmodhi4_2[3],a
 106  0056              	fcall _builtin_holtek_divmodhi4
 106  005D  0700     E  	mov a,_builtin_holtek_udivmodhi4_2[4]  
 106  005E  0080     E  	mov rb,a  
 106  005F  0700     E  	mov a,_builtin_holtek_udivmodhi4_2[5]  
 106  0060  0080     E  	mov rc,a
 110  0061              #line 110 "C:\Users\bet\Desktop\APP - new\UART.c"
 110  0061  0700     E  	mov a,rb  
 110  0062  0080     E  	mov _builtin_holtek_udivmodhi4_2[0],a  
 110  0063  0700     E  	mov a,rc  
 110  0064  0080     E  	mov _builtin_holtek_udivmodhi4_2[1],a
 110  0065  0F0A        	mov a,10  
 110  0066  0080     E  	mov _builtin_holtek_udivmodhi4_2[2],a  
 110  0067  0F00        	mov a,0  
 110  0068  0080     E  	mov _builtin_holtek_udivmodhi4_2[3],a
 110  0069              	fcall _builtin_holtek_divmodhi4
 110  0070  0700     E  	mov a,_builtin_holtek_udivmodhi4_2[0]  
 110  0071  0080     E  	mov rb,a  
 110  0072  0700     E  	mov a,_builtin_holtek_udivmodhi4_2[1]  
 110  0073  0080     E  	mov rc,a
 110  0074  2800     R  	jmp _L10
 110  0075              _L8:
 112  0075              #line 112 "C:\Users\bet\Desktop\APP - new\UART.c"
 112  0075  0700     E  	mov a,rb
 112  0076  0C01        	xor a,1
 112  0077  0500     E  	or a,rc
 112  0078  390A        	snz z
 112  0079  2800     R  	jmp _L9
 116  007A              #line 116 "C:\Users\bet\Desktop\APP - new\UART.c"
"File: UART.c        Assembler  Version HGASM0202      Page 5

 116  007A  116A        	swapa [106]
 116  007B  0E0F        	and a,0fh
 116  007C  0080     E  	mov rd,a
 116  007D  1F00     E  	clr re
 114  007E              #line 114 "C:\Users\bet\Desktop\APP - new\UART.c"
 114  007E  076B        	mov a,[107]
 114  007F  0080     E  	mov rb,a
 114  0080  1F00     E  	clr rc
 114  0081  0F04        	mov a,4
 114  0082              _LI2:
 114  0082  340A        	clr c
 114  0083  1A80     E  	rlc rb
 114  0084  1A80     E  	rlc rc
 114  0085  1785        	sdz acc
 114  0086  2800     R  	jmp _LI2
 118  0087              #line 118 "C:\Users\bet\Desktop\APP - new\UART.c"
 118  0087  0700     E  	mov a,rd
 118  0088  0380     E  	addm a,rb
 118  0089  0700     E  	mov a,re
 118  008A  1380     E  	adcm a,rc
 119  008B              #line 119 "C:\Users\bet\Desktop\APP - new\UART.c"
 119  008B  0700     E  	mov a,rb  
 119  008C  0080     E  	mov _builtin_holtek_udivmodhi4_2[0],a  
 119  008D  0700     E  	mov a,rc  
 119  008E  0080     E  	mov _builtin_holtek_udivmodhi4_2[1],a
 119  008F  0F90        	mov a,144  
 119  0090  0080     E  	mov _builtin_holtek_udivmodhi4_2[2],a  
 119  0091  0F01        	mov a,1  
 119  0092  0080     E  	mov _builtin_holtek_udivmodhi4_2[3],a
 119  0093              	fcall _builtin_holtek_divmodhi4
 119  009A  0700     E  	mov a,_builtin_holtek_udivmodhi4_2[0]  
 119  009B  0080     E  	mov rb,a  
 119  009C  0700     E  	mov a,_builtin_holtek_udivmodhi4_2[1]  
 119  009D  0080     E  	mov rc,a
 124  009E              #line 124 "C:\Users\bet\Desktop\APP - new\UART.c"
 124  009E  0700     E  	mov a,rb  
 124  009F  0080     E  	mov _builtin_holtek_udivmodhi4_2[0],a  
 124  00A0  0700     E  	mov a,rc  
 124  00A1  0080     E  	mov _builtin_holtek_udivmodhi4_2[1],a
 124  00A2  0F0A        	mov a,10  
 124  00A3  0080     E  	mov _builtin_holtek_udivmodhi4_2[2],a  
 124  00A4  0F00        	mov a,0  
 124  00A5  0080     E  	mov _builtin_holtek_udivmodhi4_2[3],a
 124  00A6              	fcall _builtin_holtek_divmodhi4
 124  00AD  0700     E  	mov a,_builtin_holtek_udivmodhi4_2[0]  
 124  00AE  0080     E  	mov rd,a  
 124  00AF  0700     E  	mov a,_builtin_holtek_udivmodhi4_2[1]  
 124  00B0  0080     E  	mov re,a
 124  00B1  0700     E  	mov a,rd
 124  00B2  0B30        	add a,48
 124  00B3  0080     R  	mov _e[1],a
 125  00B4              #line 125 "C:\Users\bet\Desktop\APP - new\UART.c"
 125  00B4  0700     E  	mov a,rb  
 125  00B5  0080     E  	mov _builtin_holtek_udivmodhi4_2[0],a  
 125  00B6  0700     E  	mov a,rc  
 125  00B7  0080     E  	mov _builtin_holtek_udivmodhi4_2[1],a
 125  00B8  0F0A        	mov a,10  
 125  00B9  0080     E  	mov _builtin_holtek_udivmodhi4_2[2],a  
 125  00BA  0F00        	mov a,0  
 125  00BB  0080     E  	mov _builtin_holtek_udivmodhi4_2[3],a
"File: UART.c        Assembler  Version HGASM0202      Page 6

 125  00BC              	fcall _builtin_holtek_divmodhi4
 125  00C3  0700     E  	mov a,_builtin_holtek_udivmodhi4_2[4]  
 125  00C4  0080     E  	mov rb,a  
 125  00C5  0700     E  	mov a,_builtin_holtek_udivmodhi4_2[5]  
 125  00C6  0080     E  	mov rc,a
 125  00C7              _L10:
 126  00C7              #line 126 "C:\Users\bet\Desktop\APP - new\UART.c"
 126  00C7  0700     E  	mov a,rb
 126  00C8  0B30        	add a,48
 126  00C9  0080     R  	mov _e[0],a
 126  00CA              _L9:
 129  00CA              #line 129 "C:\Users\bet\Desktop\APP - new\UART.c"
 129  00CA  35B1        	clr [49].3
 129  00CB  0700     E  	mov a,r2
 129  00CC  008B        	mov bp,a
 129  00CD  0700     E  	mov a,r3
 129  00CE  008A        	mov status,a
 129  00CF  0700     E  	mov a,r4
 129  00D0  0083        	mov mp,a
 129  00D1  0700     E  	mov a,r5
 129  00D2  0084        	mov sbp,a
 129  00D3  0700     E  	mov a,r6
 129  00D4  0087        	mov tblp,a
 129  00D5  0700     E  	mov a,r7
 129  00D6  0089        	mov tbhp,a
 129  00D7  1D05        	tabrdc acc
 129  00D8  0700     E  	mov a,r1
 129  00D9  0004        	reti
 129  00DA              _ISR_ADC endp
 129  00DA              
 129  00DA              #line 129 "C:\Users\bet\Desktop\APP - new\UART.c"
 129  00DA              #pragma debug scope 1 1
 129  00DA              public _Delayms
 129  00DA              #pragma debug scope 5 1
 141  00DA              #line 141 "C:\Users\bet\Desktop\APP - new\UART.c"
 141  0000              _Delayms .section 'code'
 141  0000              _Delayms proc
 141  0000              public _Delayms_2
 141  0000  0002[           local _Delayms_2 db 2 dup(?)	; 2,0
            00
            ]
 141  0002              #pragma debug variable 10 5 _Delayms_2+0 "del"
 143  0000              #line 143 "C:\Users\bet\Desktop\APP - new\UART.c"
 143  0000  1F00     E  	clr rb
 143  0001  1F00     E  	clr rc
 143  0002  2800     R  	jmp _L12
 143  0003              _L13:
 143  0003              #line 143 "C:\Users\bet\Desktop\APP - new\UART.c"
 143  0003              ;# 143 "C:\Users\bet\Desktop\APP - new\UART.c" 1
 143  0003              	IF 2000>263690
 143  0003              ;# 143 "C:\Users\bet\Desktop\APP - new\UART.c" 1
 143  0003              	ERRMESSAGE 'the value 2000of the argument exceeds the maxinum 263690'
 143  0003              	ENDIF
 143  0003              ;# 143 "C:\Users\bet\Desktop\APP - new\UART.c" 1
 143  0003              	IF 2000<0
 143  0003              ;# 143 "C:\Users\bet\Desktop\APP - new\UART.c" 1
 143  0003              	ERRMESSAGE 'the value 2000 of the argument exceeds the mininum 0'
 143  0003              	ENDIF
 143  0003              ;# 143 "C:\Users\bet\Desktop\APP - new\UART.c" 1
 143  0003              	IF 2000==0
"File: UART.c        Assembler  Version HGASM0202      Page 7

 143  0003              ;# 143 "C:\Users\bet\Desktop\APP - new\UART.c" 1
 143  0003              	JMP $
 143  0003              	ENDIF
 143  0003              ;# 143 "C:\Users\bet\Desktop\APP - new\UART.c" 1
 143  0003              	IF (2000>=1) AND (2000<( 4 + __PBP__ * 2))
 143  0003              ;# 143 "C:\Users\bet\Desktop\APP - new\UART.c" 1
 143  0003              	NOP
 143  0003              	ENDIF
 143  0003              ;# 143 "C:\Users\bet\Desktop\APP - new\UART.c" 1
 143  0003              	IF (2000>=2) AND (2000<( 4 + __PBP__ * 2))
 143  0003              ;# 143 "C:\Users\bet\Desktop\APP - new\UART.c" 1
 143  0003              	NOP
 143  0003              	ENDIF
 143  0003              ;# 143 "C:\Users\bet\Desktop\APP - new\UART.c" 1
 143  0003              	IF (2000>=3) AND (2000<( 4 + __PBP__ * 2))
 143  0003              ;# 143 "C:\Users\bet\Desktop\APP - new\UART.c" 1
 143  0003              	NOP
 143  0003              	ENDIF
 143  0003              ;# 143 "C:\Users\bet\Desktop\APP - new\UART.c" 1
 143  0003              	IF (2000>=4) AND (2000<( 4 + __PBP__ * 2)) AND ( __PBP__ > 0 )
 143  0003              ;# 143 "C:\Users\bet\Desktop\APP - new\UART.c" 1
 143  0003              	NOP
 143  0003              	ENDIF
 143  0003              ;# 143 "C:\Users\bet\Desktop\APP - new\UART.c" 1
 143  0003              	IF (2000>=5) AND (2000<( 4 + __PBP__ * 2)) AND ( __PBP__ > 0 )
 143  0003              ;# 143 "C:\Users\bet\Desktop\APP - new\UART.c" 1
 143  0003              	NOP
 143  0003              	ENDIF
 143  0003              ;# 143 "C:\Users\bet\Desktop\APP - new\UART.c" 1
 143  0003              	IF (2000>=6) AND (2000<( 4 + __PBP__ * 2))  AND ( __PBP__ > 1 )
 143  0003              ;# 143 "C:\Users\bet\Desktop\APP - new\UART.c" 1
 143  0003              	NOP
 143  0003              	ENDIF
 143  0003              ;# 143 "C:\Users\bet\Desktop\APP - new\UART.c" 1
 143  0003              	IF (2000>=7) AND (2000<( 4 + __PBP__ * 2))  AND ( __PBP__ > 1 )
 143  0003              ;# 143 "C:\Users\bet\Desktop\APP - new\UART.c" 1
 143  0003              	NOP
 143  0003              	ENDIF
 143  0003              ;# 143 "C:\Users\bet\Desktop\APP - new\UART.c" 1
 143  0003              	IF (2000>=8) AND (2000<( 4 + __PBP__ * 2))  AND ( __PBP__ > 2 )
 143  0003              ;# 143 "C:\Users\bet\Desktop\APP - new\UART.c" 1
 143  0003              	NOP
 143  0003              	ENDIF
 143  0003              ;# 143 "C:\Users\bet\Desktop\APP - new\UART.c" 1
 143  0003              	IF (2000==9)  AND ( __PBP__ > 2 )
 143  0003              ;# 143 "C:\Users\bet\Desktop\APP - new\UART.c" 1
 143  0003              	NOP
 143  0003              	ENDIF
 143  0003              ;# 143 "C:\Users\bet\Desktop\APP - new\UART.c" 1
 143  0003              	IF (2000< ( 8 + __PBP__ * 2)) AND (2000>( 3 + __PBP__ * 2))
 143  0003              ;# 143 "C:\Users\bet\Desktop\APP - new\UART.c" 1
 143  0003              	fcall __DELAY3 + ( 7 + __PBP__ * 2) -2000
 143  0003              	ENDIF
 143  0003              ;# 143 "C:\Users\bet\Desktop\APP - new\UART.c" 1
 143  0003              	IF (2000< ( 0404h + __PBP__ * 2)) AND (2000>( 7 + __PBP__ * 2))
 143  0003              ;# 143 "C:\Users\bet\Desktop\APP - new\UART.c" 1
 143  0003              	MOV A,(2000-( 4 + __PBP__ * 2))/4
 143  0003              ;# 143 "C:\Users\bet\Desktop\APP - new\UART.c" 1
 143  0003              	fcall __DELAYX3 + 3 -((2000-( 4 + __PBP__ * 2)) MOD 4) 
 143  0003              	ENDIF
"File: UART.c        Assembler  Version HGASM0202      Page 8

 143  0003              ;# 143 "C:\Users\bet\Desktop\APP - new\UART.c" 1
 143  0003              	IF (2000< ( 040bh + __PBP__ * 2)) AND (2000> ( 0403h + __PBP__ * 2))
 143  0003              ;# 143 "C:\Users\bet\Desktop\APP - new\UART.c" 1
 143  0003              	MOV A,0 
 143  0003              ;# 143 "C:\Users\bet\Desktop\APP - new\UART.c" 1
 143  0003              	fcall __DELAYX6 + ( 040ah + __PBP__ * 2) -2000
 143  0003              	ENDIF
 143  0003              ;# 143 "C:\Users\bet\Desktop\APP - new\UART.c" 1
 143  0003              	IF (2000 >= ( 040bh + __PBP__ * 2)) AND ((((2000-( 9 + __PBP__ * 2))%0402h)/4+1)>256)
 143  0003              ;# 143 "C:\Users\bet\Desktop\APP - new\UART.c" 1
 143  0003              	MOV A,(2000-( 9 + __PBP__ * 2))/0402h
 143  0003              ;# 143 "C:\Users\bet\Desktop\APP - new\UART.c" 1
 143  0003              	MOV _builtin_holtek_delay_2,A
 143  0003              ;# 143 "C:\Users\bet\Desktop\APP - new\UART.c" 1
 143  0003              	MOV A,0
 143  0003              ;# 143 "C:\Users\bet\Desktop\APP - new\UART.c" 1
 143  0003              	fcall __DELAYY5 +5- (((2000-( 9 + __PBP__ * 2))%0402h)%6) 
 143  0003              	ENDIF
 143  0003              ;# 143 "C:\Users\bet\Desktop\APP - new\UART.c" 1
 143  0003              	IF (2000 >= ( 040bh + __PBP__ * 2)) AND ((((2000-( 9 + __PBP__ * 2))%0402h)/4+1)<=256)
 143  0003              ;# 143 "C:\Users\bet\Desktop\APP - new\UART.c" 1
 143  0003  0F01        	MOV A,(2000-( 9 + __PBP__ * 2))/0402h
 143  0004              ;# 143 "C:\Users\bet\Desktop\APP - new\UART.c" 1
 143  0004  0080     E  	MOV _builtin_holtek_delay_2,A
 143  0005              ;# 143 "C:\Users\bet\Desktop\APP - new\UART.c" 1
 143  0005  0FF1        	MOV A,((2000-( 9 + __PBP__ * 2))%0402h)/4+1
 143  0006              ;# 143 "C:\Users\bet\Desktop\APP - new\UART.c" 1
 143  0006              	fcall __DELAYY3 +3-(((2000-( 9 + __PBP__ * 2))%0402h)%4) 
 143  000D              	ENDIF
 143  000D  1480     E  	inc rb
 143  000E  3D0A        	sz z
 143  000F  1480     E  	inc rc
 143  0010              _L12:
 143  0010  0700     E  	mov a,rb
 143  0011  0200     R  	sub a,_Delayms_2[0]
 143  0012  0700     E  	mov a,rc
 143  0013  1200     R  	sbc a,_Delayms_2[1]
 143  0014  3B0A        	snz cz
 143  0015  2800     R  	jmp _L13
 143  0016  0003        	ret
 143  0017              _Delayms endp
 143  0017              #line 143 "C:\Users\bet\Desktop\APP - new\UART.c"
 143  0017              #pragma debug scope 1 1
 143  0017              public _GPIO_init
 143  0017              #pragma debug scope 6 1
 146  0017              #line 146 "C:\Users\bet\Desktop\APP - new\UART.c"
 146  0000              _GPIO_init .section 'code'
 146  0000              _GPIO_init proc
 146  0000  0003        	ret
 146  0001              _GPIO_init endp
 146  0001              #line 146 "C:\Users\bet\Desktop\APP - new\UART.c"
 146  0001              #pragma debug scope 1 1
 146  0001              ___pec equ [35]
 146  0001              public _UART_init
 146  0001              #pragma debug scope 7 1
 153  0001              #line 153 "C:\Users\bet\Desktop\APP - new\UART.c"
 153  0000              _UART_init .section 'code'
 153  0000              _UART_init proc
 154  0000              #line 154 "C:\Users\bet\Desktop\APP - new\UART.c"
 154  0000  34A3        	clr [35].1
"File: UART.c        Assembler  Version HGASM0202      Page 9

 155  0001              #line 155 "C:\Users\bet\Desktop\APP - new\UART.c"
 155  0001  3023        	set [35].0
 155  0002  0003        	ret
 155  0003              _UART_init endp
 155  0003              #line 155 "C:\Users\bet\Desktop\APP - new\UART.c"
 155  0003              #pragma debug scope 1 1
 155  0003              ___pe equ [34]
 155  0003              public _PC_RX
 155  0003              #pragma debug scope 8 1
 159  0003              #line 159 "C:\Users\bet\Desktop\APP - new\UART.c"
 159  0000              _PC_RX .section 'code'
 159  0000              _PC_RX proc
 159  0000              _L18:
 161  0000              #line 161 "C:\Users\bet\Desktop\APP - new\UART.c"
 161  0000  3C22        	sz [34].0
 161  0001  2800     R  	jmp _L18
 162  0002              #line 162 "C:\Users\bet\Desktop\APP - new\UART.c"
 162  0002              ;# 162 "C:\Users\bet\Desktop\APP - new\UART.c" 1
 162  0002              	IF 205>263690
 162  0002              ;# 162 "C:\Users\bet\Desktop\APP - new\UART.c" 1
 162  0002              	ERRMESSAGE 'the value 205of the argument exceeds the maxinum 263690'
 162  0002              	ENDIF
 162  0002              ;# 162 "C:\Users\bet\Desktop\APP - new\UART.c" 1
 162  0002              	IF 205<0
 162  0002              ;# 162 "C:\Users\bet\Desktop\APP - new\UART.c" 1
 162  0002              	ERRMESSAGE 'the value 205 of the argument exceeds the mininum 0'
 162  0002              	ENDIF
 162  0002              ;# 162 "C:\Users\bet\Desktop\APP - new\UART.c" 1
 162  0002              	IF 205==0
 162  0002              ;# 162 "C:\Users\bet\Desktop\APP - new\UART.c" 1
 162  0002              	JMP $
 162  0002              	ENDIF
 162  0002              ;# 162 "C:\Users\bet\Desktop\APP - new\UART.c" 1
 162  0002              	IF (205>=1) AND (205<( 4 + __PBP__ * 2))
 162  0002              ;# 162 "C:\Users\bet\Desktop\APP - new\UART.c" 1
 162  0002              	NOP
 162  0002              	ENDIF
 162  0002              ;# 162 "C:\Users\bet\Desktop\APP - new\UART.c" 1
 162  0002              	IF (205>=2) AND (205<( 4 + __PBP__ * 2))
 162  0002              ;# 162 "C:\Users\bet\Desktop\APP - new\UART.c" 1
 162  0002              	NOP
 162  0002              	ENDIF
 162  0002              ;# 162 "C:\Users\bet\Desktop\APP - new\UART.c" 1
 162  0002              	IF (205>=3) AND (205<( 4 + __PBP__ * 2))
 162  0002              ;# 162 "C:\Users\bet\Desktop\APP - new\UART.c" 1
 162  0002              	NOP
 162  0002              	ENDIF
 162  0002              ;# 162 "C:\Users\bet\Desktop\APP - new\UART.c" 1
 162  0002              	IF (205>=4) AND (205<( 4 + __PBP__ * 2)) AND ( __PBP__ > 0 )
 162  0002              ;# 162 "C:\Users\bet\Desktop\APP - new\UART.c" 1
 162  0002              	NOP
 162  0002              	ENDIF
 162  0002              ;# 162 "C:\Users\bet\Desktop\APP - new\UART.c" 1
 162  0002              	IF (205>=5) AND (205<( 4 + __PBP__ * 2)) AND ( __PBP__ > 0 )
 162  0002              ;# 162 "C:\Users\bet\Desktop\APP - new\UART.c" 1
 162  0002              	NOP
 162  0002              	ENDIF
 162  0002              ;# 162 "C:\Users\bet\Desktop\APP - new\UART.c" 1
 162  0002              	IF (205>=6) AND (205<( 4 + __PBP__ * 2))  AND ( __PBP__ > 1 )
 162  0002              ;# 162 "C:\Users\bet\Desktop\APP - new\UART.c" 1
"File: UART.c        Assembler  Version HGASM0202      Page 10

 162  0002              	NOP
 162  0002              	ENDIF
 162  0002              ;# 162 "C:\Users\bet\Desktop\APP - new\UART.c" 1
 162  0002              	IF (205>=7) AND (205<( 4 + __PBP__ * 2))  AND ( __PBP__ > 1 )
 162  0002              ;# 162 "C:\Users\bet\Desktop\APP - new\UART.c" 1
 162  0002              	NOP
 162  0002              	ENDIF
 162  0002              ;# 162 "C:\Users\bet\Desktop\APP - new\UART.c" 1
 162  0002              	IF (205>=8) AND (205<( 4 + __PBP__ * 2))  AND ( __PBP__ > 2 )
 162  0002              ;# 162 "C:\Users\bet\Desktop\APP - new\UART.c" 1
 162  0002              	NOP
 162  0002              	ENDIF
 162  0002              ;# 162 "C:\Users\bet\Desktop\APP - new\UART.c" 1
 162  0002              	IF (205==9)  AND ( __PBP__ > 2 )
 162  0002              ;# 162 "C:\Users\bet\Desktop\APP - new\UART.c" 1
 162  0002              	NOP
 162  0002              	ENDIF
 162  0002              ;# 162 "C:\Users\bet\Desktop\APP - new\UART.c" 1
 162  0002              	IF (205< ( 8 + __PBP__ * 2)) AND (205>( 3 + __PBP__ * 2))
 162  0002              ;# 162 "C:\Users\bet\Desktop\APP - new\UART.c" 1
 162  0002              	fcall __DELAY3 + ( 7 + __PBP__ * 2) -205
 162  0002              	ENDIF
 162  0002              ;# 162 "C:\Users\bet\Desktop\APP - new\UART.c" 1
 162  0002              	IF (205< ( 0404h + __PBP__ * 2)) AND (205>( 7 + __PBP__ * 2))
 162  0002              ;# 162 "C:\Users\bet\Desktop\APP - new\UART.c" 1
 162  0002  0F31        	MOV A,(205-( 4 + __PBP__ * 2))/4
 162  0003              ;# 162 "C:\Users\bet\Desktop\APP - new\UART.c" 1
 162  0003              	fcall __DELAYX3 + 3 -((205-( 4 + __PBP__ * 2)) MOD 4) 
 162  000A              	ENDIF
 162  000A              ;# 162 "C:\Users\bet\Desktop\APP - new\UART.c" 1
 162  000A              	IF (205< ( 040bh + __PBP__ * 2)) AND (205> ( 0403h + __PBP__ * 2))
 162  000A              ;# 162 "C:\Users\bet\Desktop\APP - new\UART.c" 1
 162  000A              	MOV A,0 
 162  000A              ;# 162 "C:\Users\bet\Desktop\APP - new\UART.c" 1
 162  000A              	fcall __DELAYX6 + ( 040ah + __PBP__ * 2) -205
 162  000A              	ENDIF
 162  000A              ;# 162 "C:\Users\bet\Desktop\APP - new\UART.c" 1
 162  000A              	IF (205 >= ( 040bh + __PBP__ * 2)) AND ((((205-( 9 + __PBP__ * 2))%0402h)/4+1)>256)
 162  000A              ;# 162 "C:\Users\bet\Desktop\APP - new\UART.c" 1
 162  000A              	MOV A,(205-( 9 + __PBP__ * 2))/0402h
 162  000A              ;# 162 "C:\Users\bet\Desktop\APP - new\UART.c" 1
 162  000A              	MOV _builtin_holtek_delay_2,A
 162  000A              ;# 162 "C:\Users\bet\Desktop\APP - new\UART.c" 1
 162  000A              	MOV A,0
 162  000A              ;# 162 "C:\Users\bet\Desktop\APP - new\UART.c" 1
 162  000A              	fcall __DELAYY5 +5- (((205-( 9 + __PBP__ * 2))%0402h)%6) 
 162  000A              	ENDIF
 162  000A              ;# 162 "C:\Users\bet\Desktop\APP - new\UART.c" 1
 162  000A              	IF (205 >= ( 040bh + __PBP__ * 2)) AND ((((205-( 9 + __PBP__ * 2))%0402h)/4+1)<=256)
 162  000A              ;# 162 "C:\Users\bet\Desktop\APP - new\UART.c" 1
 162  000A              	MOV A,(205-( 9 + __PBP__ * 2))/0402h
 162  000A              ;# 162 "C:\Users\bet\Desktop\APP - new\UART.c" 1
 162  000A              	MOV _builtin_holtek_delay_2,A
 162  000A              ;# 162 "C:\Users\bet\Desktop\APP - new\UART.c" 1
 162  000A              	MOV A,((205-( 9 + __PBP__ * 2))%0402h)/4+1
 162  000A              ;# 162 "C:\Users\bet\Desktop\APP - new\UART.c" 1
 162  000A              	fcall __DELAYY3 +3-(((205-( 9 + __PBP__ * 2))%0402h)%4) 
 162  000A              	ENDIF
 163  000A              #line 163 "C:\Users\bet\Desktop\APP - new\UART.c"
 163  000A              ;# 163 "C:\Users\bet\Desktop\APP - new\UART.c" 1
"File: UART.c        Assembler  Version HGASM0202      Page 11

 163  000A              	IF 205/2>263690
 163  000A              ;# 163 "C:\Users\bet\Desktop\APP - new\UART.c" 1
 163  000A              	ERRMESSAGE 'the value 205/2of the argument exceeds the maxinum 263690'
 163  000A              	ENDIF
 163  000A              ;# 163 "C:\Users\bet\Desktop\APP - new\UART.c" 1
 163  000A              	IF 205/2<0
 163  000A              ;# 163 "C:\Users\bet\Desktop\APP - new\UART.c" 1
 163  000A              	ERRMESSAGE 'the value 205/2 of the argument exceeds the mininum 0'
 163  000A              	ENDIF
 163  000A              ;# 163 "C:\Users\bet\Desktop\APP - new\UART.c" 1
 163  000A              	IF 205/2==0
 163  000A              ;# 163 "C:\Users\bet\Desktop\APP - new\UART.c" 1
 163  000A              	JMP $
 163  000A              	ENDIF
 163  000A              ;# 163 "C:\Users\bet\Desktop\APP - new\UART.c" 1
 163  000A              	IF (205/2>=1) AND (205/2<( 4 + __PBP__ * 2))
 163  000A              ;# 163 "C:\Users\bet\Desktop\APP - new\UART.c" 1
 163  000A              	NOP
 163  000A              	ENDIF
 163  000A              ;# 163 "C:\Users\bet\Desktop\APP - new\UART.c" 1
 163  000A              	IF (205/2>=2) AND (205/2<( 4 + __PBP__ * 2))
 163  000A              ;# 163 "C:\Users\bet\Desktop\APP - new\UART.c" 1
 163  000A              	NOP
 163  000A              	ENDIF
 163  000A              ;# 163 "C:\Users\bet\Desktop\APP - new\UART.c" 1
 163  000A              	IF (205/2>=3) AND (205/2<( 4 + __PBP__ * 2))
 163  000A              ;# 163 "C:\Users\bet\Desktop\APP - new\UART.c" 1
 163  000A              	NOP
 163  000A              	ENDIF
 163  000A              ;# 163 "C:\Users\bet\Desktop\APP - new\UART.c" 1
 163  000A              	IF (205/2>=4) AND (205/2<( 4 + __PBP__ * 2)) AND ( __PBP__ > 0 )
 163  000A              ;# 163 "C:\Users\bet\Desktop\APP - new\UART.c" 1
 163  000A              	NOP
 163  000A              	ENDIF
 163  000A              ;# 163 "C:\Users\bet\Desktop\APP - new\UART.c" 1
 163  000A              	IF (205/2>=5) AND (205/2<( 4 + __PBP__ * 2)) AND ( __PBP__ > 0 )
 163  000A              ;# 163 "C:\Users\bet\Desktop\APP - new\UART.c" 1
 163  000A              	NOP
 163  000A              	ENDIF
 163  000A              ;# 163 "C:\Users\bet\Desktop\APP - new\UART.c" 1
 163  000A              	IF (205/2>=6) AND (205/2<( 4 + __PBP__ * 2))  AND ( __PBP__ > 1 )
 163  000A              ;# 163 "C:\Users\bet\Desktop\APP - new\UART.c" 1
 163  000A              	NOP
 163  000A              	ENDIF
 163  000A              ;# 163 "C:\Users\bet\Desktop\APP - new\UART.c" 1
 163  000A              	IF (205/2>=7) AND (205/2<( 4 + __PBP__ * 2))  AND ( __PBP__ > 1 )
 163  000A              ;# 163 "C:\Users\bet\Desktop\APP - new\UART.c" 1
 163  000A              	NOP
 163  000A              	ENDIF
 163  000A              ;# 163 "C:\Users\bet\Desktop\APP - new\UART.c" 1
 163  000A              	IF (205/2>=8) AND (205/2<( 4 + __PBP__ * 2))  AND ( __PBP__ > 2 )
 163  000A              ;# 163 "C:\Users\bet\Desktop\APP - new\UART.c" 1
 163  000A              	NOP
 163  000A              	ENDIF
 163  000A              ;# 163 "C:\Users\bet\Desktop\APP - new\UART.c" 1
 163  000A              	IF (205/2==9)  AND ( __PBP__ > 2 )
 163  000A              ;# 163 "C:\Users\bet\Desktop\APP - new\UART.c" 1
 163  000A              	NOP
 163  000A              	ENDIF
 163  000A              ;# 163 "C:\Users\bet\Desktop\APP - new\UART.c" 1
"File: UART.c        Assembler  Version HGASM0202      Page 12

 163  000A              	IF (205/2< ( 8 + __PBP__ * 2)) AND (205/2>( 3 + __PBP__ * 2))
 163  000A              ;# 163 "C:\Users\bet\Desktop\APP - new\UART.c" 1
 163  000A              	fcall __DELAY3 + ( 7 + __PBP__ * 2) -205/2
 163  000A              	ENDIF
 163  000A              ;# 163 "C:\Users\bet\Desktop\APP - new\UART.c" 1
 163  000A              	IF (205/2< ( 0404h + __PBP__ * 2)) AND (205/2>( 7 + __PBP__ * 2))
 163  000A              ;# 163 "C:\Users\bet\Desktop\APP - new\UART.c" 1
 163  000A  0F17        	MOV A,(205/2-( 4 + __PBP__ * 2))/4
 163  000B              ;# 163 "C:\Users\bet\Desktop\APP - new\UART.c" 1
 163  000B              	fcall __DELAYX3 + 3 -((205/2-( 4 + __PBP__ * 2)) MOD 4) 
 163  0012              	ENDIF
 163  0012              ;# 163 "C:\Users\bet\Desktop\APP - new\UART.c" 1
 163  0012              	IF (205/2< ( 040bh + __PBP__ * 2)) AND (205/2> ( 0403h + __PBP__ * 2))
 163  0012              ;# 163 "C:\Users\bet\Desktop\APP - new\UART.c" 1
 163  0012              	MOV A,0 
 163  0012              ;# 163 "C:\Users\bet\Desktop\APP - new\UART.c" 1
 163  0012              	fcall __DELAYX6 + ( 040ah + __PBP__ * 2) -205/2
 163  0012              	ENDIF
 163  0012              ;# 163 "C:\Users\bet\Desktop\APP - new\UART.c" 1
 163  0012              	IF (205/2 >= ( 040bh + __PBP__ * 2)) AND ((((205/2-( 9 + __PBP__ * 2))%0402h)/4+1)>256)
 163  0012              ;# 163 "C:\Users\bet\Desktop\APP - new\UART.c" 1
 163  0012              	MOV A,(205/2-( 9 + __PBP__ * 2))/0402h
 163  0012              ;# 163 "C:\Users\bet\Desktop\APP - new\UART.c" 1
 163  0012              	MOV _builtin_holtek_delay_2,A
 163  0012              ;# 163 "C:\Users\bet\Desktop\APP - new\UART.c" 1
 163  0012              	MOV A,0
 163  0012              ;# 163 "C:\Users\bet\Desktop\APP - new\UART.c" 1
 163  0012              	fcall __DELAYY5 +5- (((205/2-( 9 + __PBP__ * 2))%0402h)%6) 
 163  0012              	ENDIF
 163  0012              ;# 163 "C:\Users\bet\Desktop\APP - new\UART.c" 1
 163  0012              	IF (205/2 >= ( 040bh + __PBP__ * 2)) AND ((((205/2-( 9 + __PBP__ * 2))%0402h)/4+1)<=256)
 163  0012              ;# 163 "C:\Users\bet\Desktop\APP - new\UART.c" 1
 163  0012              	MOV A,(205/2-( 9 + __PBP__ * 2))/0402h
 163  0012              ;# 163 "C:\Users\bet\Desktop\APP - new\UART.c" 1
 163  0012              	MOV _builtin_holtek_delay_2,A
 163  0012              ;# 163 "C:\Users\bet\Desktop\APP - new\UART.c" 1
 163  0012              	MOV A,((205/2-( 9 + __PBP__ * 2))%0402h)/4+1
 163  0012              ;# 163 "C:\Users\bet\Desktop\APP - new\UART.c" 1
 163  0012              	fcall __DELAYY3 +3-(((205/2-( 9 + __PBP__ * 2))%0402h)%4) 
 163  0012              	ENDIF
 163  0012  0F08        	mov a,8
 163  0013  0080     E  	mov rb,a
 160  0014              #line 160 "C:\Users\bet\Desktop\APP - new\UART.c"
 160  0014  1F00     E  	clr ra
 160  0015              _L21:
 166  0015              #line 166 "C:\Users\bet\Desktop\APP - new\UART.c"
 166  0015  340A        	clr c
 166  0016  1B80     E  	rrc ra
 167  0017              #line 167 "C:\Users\bet\Desktop\APP - new\UART.c"
 167  0017  3822        	snz [34].0
 167  0018  2800     R  	jmp _L19
 167  0019  3000     E  	set ra.7
 167  001A              _L19:
 168  001A              #line 168 "C:\Users\bet\Desktop\APP - new\UART.c"
 168  001A              ;# 168 "C:\Users\bet\Desktop\APP - new\UART.c" 1
 168  001A              	IF 205-15>263690
 168  001A              ;# 168 "C:\Users\bet\Desktop\APP - new\UART.c" 1
 168  001A              	ERRMESSAGE 'the value 205-15of the argument exceeds the maxinum 263690'
 168  001A              	ENDIF
 168  001A              ;# 168 "C:\Users\bet\Desktop\APP - new\UART.c" 1
"File: UART.c        Assembler  Version HGASM0202      Page 13

 168  001A              	IF 205-15<0
 168  001A              ;# 168 "C:\Users\bet\Desktop\APP - new\UART.c" 1
 168  001A              	ERRMESSAGE 'the value 205-15 of the argument exceeds the mininum 0'
 168  001A              	ENDIF
 168  001A              ;# 168 "C:\Users\bet\Desktop\APP - new\UART.c" 1
 168  001A              	IF 205-15==0
 168  001A              ;# 168 "C:\Users\bet\Desktop\APP - new\UART.c" 1
 168  001A              	JMP $
 168  001A              	ENDIF
 168  001A              ;# 168 "C:\Users\bet\Desktop\APP - new\UART.c" 1
 168  001A              	IF (205-15>=1) AND (205-15<( 4 + __PBP__ * 2))
 168  001A              ;# 168 "C:\Users\bet\Desktop\APP - new\UART.c" 1
 168  001A              	NOP
 168  001A              	ENDIF
 168  001A              ;# 168 "C:\Users\bet\Desktop\APP - new\UART.c" 1
 168  001A              	IF (205-15>=2) AND (205-15<( 4 + __PBP__ * 2))
 168  001A              ;# 168 "C:\Users\bet\Desktop\APP - new\UART.c" 1
 168  001A              	NOP
 168  001A              	ENDIF
 168  001A              ;# 168 "C:\Users\bet\Desktop\APP - new\UART.c" 1
 168  001A              	IF (205-15>=3) AND (205-15<( 4 + __PBP__ * 2))
 168  001A              ;# 168 "C:\Users\bet\Desktop\APP - new\UART.c" 1
 168  001A              	NOP
 168  001A              	ENDIF
 168  001A              ;# 168 "C:\Users\bet\Desktop\APP - new\UART.c" 1
 168  001A              	IF (205-15>=4) AND (205-15<( 4 + __PBP__ * 2)) AND ( __PBP__ > 0 )
 168  001A              ;# 168 "C:\Users\bet\Desktop\APP - new\UART.c" 1
 168  001A              	NOP
 168  001A              	ENDIF
 168  001A              ;# 168 "C:\Users\bet\Desktop\APP - new\UART.c" 1
 168  001A              	IF (205-15>=5) AND (205-15<( 4 + __PBP__ * 2)) AND ( __PBP__ > 0 )
 168  001A              ;# 168 "C:\Users\bet\Desktop\APP - new\UART.c" 1
 168  001A              	NOP
 168  001A              	ENDIF
 168  001A              ;# 168 "C:\Users\bet\Desktop\APP - new\UART.c" 1
 168  001A              	IF (205-15>=6) AND (205-15<( 4 + __PBP__ * 2))  AND ( __PBP__ > 1 )
 168  001A              ;# 168 "C:\Users\bet\Desktop\APP - new\UART.c" 1
 168  001A              	NOP
 168  001A              	ENDIF
 168  001A              ;# 168 "C:\Users\bet\Desktop\APP - new\UART.c" 1
 168  001A              	IF (205-15>=7) AND (205-15<( 4 + __PBP__ * 2))  AND ( __PBP__ > 1 )
 168  001A              ;# 168 "C:\Users\bet\Desktop\APP - new\UART.c" 1
 168  001A              	NOP
 168  001A              	ENDIF
 168  001A              ;# 168 "C:\Users\bet\Desktop\APP - new\UART.c" 1
 168  001A              	IF (205-15>=8) AND (205-15<( 4 + __PBP__ * 2))  AND ( __PBP__ > 2 )
 168  001A              ;# 168 "C:\Users\bet\Desktop\APP - new\UART.c" 1
 168  001A              	NOP
 168  001A              	ENDIF
 168  001A              ;# 168 "C:\Users\bet\Desktop\APP - new\UART.c" 1
 168  001A              	IF (205-15==9)  AND ( __PBP__ > 2 )
 168  001A              ;# 168 "C:\Users\bet\Desktop\APP - new\UART.c" 1
 168  001A              	NOP
 168  001A              	ENDIF
 168  001A              ;# 168 "C:\Users\bet\Desktop\APP - new\UART.c" 1
 168  001A              	IF (205-15< ( 8 + __PBP__ * 2)) AND (205-15>( 3 + __PBP__ * 2))
 168  001A              ;# 168 "C:\Users\bet\Desktop\APP - new\UART.c" 1
 168  001A              	fcall __DELAY3 + ( 7 + __PBP__ * 2) -205-15
 168  001A              	ENDIF
 168  001A              ;# 168 "C:\Users\bet\Desktop\APP - new\UART.c" 1
"File: UART.c        Assembler  Version HGASM0202      Page 14

 168  001A              	IF (205-15< ( 0404h + __PBP__ * 2)) AND (205-15>( 7 + __PBP__ * 2))
 168  001A              ;# 168 "C:\Users\bet\Desktop\APP - new\UART.c" 1
 168  001A  0F2D        	MOV A,(205-15-( 4 + __PBP__ * 2))/4
 168  001B              ;# 168 "C:\Users\bet\Desktop\APP - new\UART.c" 1
 168  001B              	fcall __DELAYX3 + 3 -((205-15-( 4 + __PBP__ * 2)) MOD 4) 
 168  0022              	ENDIF
 168  0022              ;# 168 "C:\Users\bet\Desktop\APP - new\UART.c" 1
 168  0022              	IF (205-15< ( 040bh + __PBP__ * 2)) AND (205-15> ( 0403h + __PBP__ * 2))
 168  0022              ;# 168 "C:\Users\bet\Desktop\APP - new\UART.c" 1
 168  0022              	MOV A,0 
 168  0022              ;# 168 "C:\Users\bet\Desktop\APP - new\UART.c" 1
 168  0022              	fcall __DELAYX6 + ( 040ah + __PBP__ * 2) -205-15
 168  0022              	ENDIF
 168  0022              ;# 168 "C:\Users\bet\Desktop\APP - new\UART.c" 1
 168  0022              	IF (205-15 >= ( 040bh + __PBP__ * 2)) AND ((((205-15-( 9 + __PBP__ * 2))%0402h)/4+1)>256)
 168  0022              ;# 168 "C:\Users\bet\Desktop\APP - new\UART.c" 1
 168  0022              	MOV A,(205-15-( 9 + __PBP__ * 2))/0402h
 168  0022              ;# 168 "C:\Users\bet\Desktop\APP - new\UART.c" 1
 168  0022              	MOV _builtin_holtek_delay_2,A
 168  0022              ;# 168 "C:\Users\bet\Desktop\APP - new\UART.c" 1
 168  0022              	MOV A,0
 168  0022              ;# 168 "C:\Users\bet\Desktop\APP - new\UART.c" 1
 168  0022              	fcall __DELAYY5 +5- (((205-15-( 9 + __PBP__ * 2))%0402h)%6) 
 168  0022              	ENDIF
 168  0022              ;# 168 "C:\Users\bet\Desktop\APP - new\UART.c" 1
 168  0022              	IF (205-15 >= ( 040bh + __PBP__ * 2)) AND ((((205-15-( 9 + __PBP__ * 2))%0402h)/4+1)<=256)
 168  0022              ;# 168 "C:\Users\bet\Desktop\APP - new\UART.c" 1
 168  0022              	MOV A,(205-15-( 9 + __PBP__ * 2))/0402h
 168  0022              ;# 168 "C:\Users\bet\Desktop\APP - new\UART.c" 1
 168  0022              	MOV _builtin_holtek_delay_2,A
 168  0022              ;# 168 "C:\Users\bet\Desktop\APP - new\UART.c" 1
 168  0022              	MOV A,((205-15-( 9 + __PBP__ * 2))%0402h)/4+1
 168  0022              ;# 168 "C:\Users\bet\Desktop\APP - new\UART.c" 1
 168  0022              	fcall __DELAYY3 +3-(((205-15-( 9 + __PBP__ * 2))%0402h)%4) 
 168  0022              	ENDIF
 168  0022  1780     E  	sdz rb
 168  0023  2800     R  	jmp _L21
 171  0024              #line 171 "C:\Users\bet\Desktop\APP - new\UART.c"
 171  0024  0700     E  	mov a,ra
 171  0025  0003        	ret
 171  0026              _PC_RX endp
 171  0026              #line 171 "C:\Users\bet\Desktop\APP - new\UART.c"
 171  0026              #pragma debug scope 1 1
 171  0026              public _rx_string
 171  0026              #pragma debug scope 9 1
 173  0026              #line 173 "C:\Users\bet\Desktop\APP - new\UART.c"
 173  0000              _rx_string .section 'code'
 173  0000              _rx_string proc
 173  0000  0002[           local _rx_string_2 db 2 dup(?)	; 0,2
            00
            ]
 173  0002              #pragma debug variable 7 9 _rx_string_2+1 "w"
 173  0000  0F0A        	mov a,10
 173  0001  0080     R  	mov _rx_string_2[0],a
 175  0002              #line 175 "C:\Users\bet\Desktop\APP - new\UART.c"
 175  0002  1F00     R  	clr _rx_string_2[1]
 175  0003              _L27:
 177  0003              #line 177 "C:\Users\bet\Desktop\APP - new\UART.c"
 177  0003              	fcall _PC_RX
 177  000A  0080     E  	mov ra,a
"File: UART.c        Assembler  Version HGASM0202      Page 15

 177  000B  3400     E  	clr ra.7
 177  000C  0700     R  	mov a,_rx_string_2[1]
 177  000D  0080     E  	mov rb,a
 177  000E  1F00     E  	clr rc
 177  000F  3F85        	sz acc.7
 177  0010  1F80     E  	set rc
 177  0011  0F00     R  	mov a,low offset _output
 177  0012  0300     E  	add a,rb
 177  0013  0083        	mov mp,a
 177  0014  0F00     R  	mov a,high offset _output
 177  0015  1300     E  	adc a,rc
 177  0016  0084        	mov sbp,a
 177  0017  0700     E  	mov a,ra
 177  0018  0082        	mov ir,a
 178  0019              #line 178 "C:\Users\bet\Desktop\APP - new\UART.c"
 178  0019  0700     E  	mov a,ra
 178  001A  0A0D        	sub a,13
 178  001B  3D0A        	sz z
 178  001C  2800     R  	jmp _L25
 175  001D              #line 175 "C:\Users\bet\Desktop\APP - new\UART.c"
 175  001D  1480     R  	inc _rx_string_2[1]
 175  001E  1780     R  	sdz _rx_string_2[0]
 175  001F  2800     R  	jmp _L27
 175  0020              _L25:
 175  0020  0003        	ret
 175  0021              _rx_string endp
 175  0021              #line 175 "C:\Users\bet\Desktop\APP - new\UART.c"
 175  0021              #pragma debug scope 1 1
 175  0021              public _PC_TX
 175  0021              #pragma debug scope 10 1
 182  0021              #line 182 "C:\Users\bet\Desktop\APP - new\UART.c"
 182  0000              _PC_TX .section 'code'
 182  0000              _PC_TX proc
 182  0000  00              local _PC_TX_2 db 1 dup(?)	; 0,1
 182  0000  0080     R  	mov _PC_TX_2[0],a
 182  0001              #pragma debug variable 7 10 _PC_TX_2+0 "da"
 185  0001              #line 185 "C:\Users\bet\Desktop\APP - new\UART.c"
 185  0001  34A2        	clr [34].1
 185  0002              ;# 185 "C:\Users\bet\Desktop\APP - new\UART.c" 1
 185  0002              	IF 205>263690
 185  0002              ;# 185 "C:\Users\bet\Desktop\APP - new\UART.c" 1
 185  0002              	ERRMESSAGE 'the value 205of the argument exceeds the maxinum 263690'
 185  0002              	ENDIF
 185  0002              ;# 185 "C:\Users\bet\Desktop\APP - new\UART.c" 1
 185  0002              	IF 205<0
 185  0002              ;# 185 "C:\Users\bet\Desktop\APP - new\UART.c" 1
 185  0002              	ERRMESSAGE 'the value 205 of the argument exceeds the mininum 0'
 185  0002              	ENDIF
 185  0002              ;# 185 "C:\Users\bet\Desktop\APP - new\UART.c" 1
 185  0002              	IF 205==0
 185  0002              ;# 185 "C:\Users\bet\Desktop\APP - new\UART.c" 1
 185  0002              	JMP $
 185  0002              	ENDIF
 185  0002              ;# 185 "C:\Users\bet\Desktop\APP - new\UART.c" 1
 185  0002              	IF (205>=1) AND (205<( 4 + __PBP__ * 2))
 185  0002              ;# 185 "C:\Users\bet\Desktop\APP - new\UART.c" 1
 185  0002              	NOP
 185  0002              	ENDIF
 185  0002              ;# 185 "C:\Users\bet\Desktop\APP - new\UART.c" 1
 185  0002              	IF (205>=2) AND (205<( 4 + __PBP__ * 2))
"File: UART.c        Assembler  Version HGASM0202      Page 16

 185  0002              ;# 185 "C:\Users\bet\Desktop\APP - new\UART.c" 1
 185  0002              	NOP
 185  0002              	ENDIF
 185  0002              ;# 185 "C:\Users\bet\Desktop\APP - new\UART.c" 1
 185  0002              	IF (205>=3) AND (205<( 4 + __PBP__ * 2))
 185  0002              ;# 185 "C:\Users\bet\Desktop\APP - new\UART.c" 1
 185  0002              	NOP
 185  0002              	ENDIF
 185  0002              ;# 185 "C:\Users\bet\Desktop\APP - new\UART.c" 1
 185  0002              	IF (205>=4) AND (205<( 4 + __PBP__ * 2)) AND ( __PBP__ > 0 )
 185  0002              ;# 185 "C:\Users\bet\Desktop\APP - new\UART.c" 1
 185  0002              	NOP
 185  0002              	ENDIF
 185  0002              ;# 185 "C:\Users\bet\Desktop\APP - new\UART.c" 1
 185  0002              	IF (205>=5) AND (205<( 4 + __PBP__ * 2)) AND ( __PBP__ > 0 )
 185  0002              ;# 185 "C:\Users\bet\Desktop\APP - new\UART.c" 1
 185  0002              	NOP
 185  0002              	ENDIF
 185  0002              ;# 185 "C:\Users\bet\Desktop\APP - new\UART.c" 1
 185  0002              	IF (205>=6) AND (205<( 4 + __PBP__ * 2))  AND ( __PBP__ > 1 )
 185  0002              ;# 185 "C:\Users\bet\Desktop\APP - new\UART.c" 1
 185  0002              	NOP
 185  0002              	ENDIF
 185  0002              ;# 185 "C:\Users\bet\Desktop\APP - new\UART.c" 1
 185  0002              	IF (205>=7) AND (205<( 4 + __PBP__ * 2))  AND ( __PBP__ > 1 )
 185  0002              ;# 185 "C:\Users\bet\Desktop\APP - new\UART.c" 1
 185  0002              	NOP
 185  0002              	ENDIF
 185  0002              ;# 185 "C:\Users\bet\Desktop\APP - new\UART.c" 1
 185  0002              	IF (205>=8) AND (205<( 4 + __PBP__ * 2))  AND ( __PBP__ > 2 )
 185  0002              ;# 185 "C:\Users\bet\Desktop\APP - new\UART.c" 1
 185  0002              	NOP
 185  0002              	ENDIF
 185  0002              ;# 185 "C:\Users\bet\Desktop\APP - new\UART.c" 1
 185  0002              	IF (205==9)  AND ( __PBP__ > 2 )
 185  0002              ;# 185 "C:\Users\bet\Desktop\APP - new\UART.c" 1
 185  0002              	NOP
 185  0002              	ENDIF
 185  0002              ;# 185 "C:\Users\bet\Desktop\APP - new\UART.c" 1
 185  0002              	IF (205< ( 8 + __PBP__ * 2)) AND (205>( 3 + __PBP__ * 2))
 185  0002              ;# 185 "C:\Users\bet\Desktop\APP - new\UART.c" 1
 185  0002              	fcall __DELAY3 + ( 7 + __PBP__ * 2) -205
 185  0002              	ENDIF
 185  0002              ;# 185 "C:\Users\bet\Desktop\APP - new\UART.c" 1
 185  0002              	IF (205< ( 0404h + __PBP__ * 2)) AND (205>( 7 + __PBP__ * 2))
 185  0002              ;# 185 "C:\Users\bet\Desktop\APP - new\UART.c" 1
 185  0002  0F31        	MOV A,(205-( 4 + __PBP__ * 2))/4
 185  0003              ;# 185 "C:\Users\bet\Desktop\APP - new\UART.c" 1
 185  0003              	fcall __DELAYX3 + 3 -((205-( 4 + __PBP__ * 2)) MOD 4) 
 185  000A              	ENDIF
 185  000A              ;# 185 "C:\Users\bet\Desktop\APP - new\UART.c" 1
 185  000A              	IF (205< ( 040bh + __PBP__ * 2)) AND (205> ( 0403h + __PBP__ * 2))
 185  000A              ;# 185 "C:\Users\bet\Desktop\APP - new\UART.c" 1
 185  000A              	MOV A,0 
 185  000A              ;# 185 "C:\Users\bet\Desktop\APP - new\UART.c" 1
 185  000A              	fcall __DELAYX6 + ( 040ah + __PBP__ * 2) -205
 185  000A              	ENDIF
 185  000A              ;# 185 "C:\Users\bet\Desktop\APP - new\UART.c" 1
 185  000A              	IF (205 >= ( 040bh + __PBP__ * 2)) AND ((((205-( 9 + __PBP__ * 2))%0402h)/4+1)>256)
 185  000A              ;# 185 "C:\Users\bet\Desktop\APP - new\UART.c" 1
"File: UART.c        Assembler  Version HGASM0202      Page 17

 185  000A              	MOV A,(205-( 9 + __PBP__ * 2))/0402h
 185  000A              ;# 185 "C:\Users\bet\Desktop\APP - new\UART.c" 1
 185  000A              	MOV _builtin_holtek_delay_2,A
 185  000A              ;# 185 "C:\Users\bet\Desktop\APP - new\UART.c" 1
 185  000A              	MOV A,0
 185  000A              ;# 185 "C:\Users\bet\Desktop\APP - new\UART.c" 1
 185  000A              	fcall __DELAYY5 +5- (((205-( 9 + __PBP__ * 2))%0402h)%6) 
 185  000A              	ENDIF
 185  000A              ;# 185 "C:\Users\bet\Desktop\APP - new\UART.c" 1
 185  000A              	IF (205 >= ( 040bh + __PBP__ * 2)) AND ((((205-( 9 + __PBP__ * 2))%0402h)/4+1)<=256)
 185  000A              ;# 185 "C:\Users\bet\Desktop\APP - new\UART.c" 1
 185  000A              	MOV A,(205-( 9 + __PBP__ * 2))/0402h
 185  000A              ;# 185 "C:\Users\bet\Desktop\APP - new\UART.c" 1
 185  000A              	MOV _builtin_holtek_delay_2,A
 185  000A              ;# 185 "C:\Users\bet\Desktop\APP - new\UART.c" 1
 185  000A              	MOV A,((205-( 9 + __PBP__ * 2))%0402h)/4+1
 185  000A              ;# 185 "C:\Users\bet\Desktop\APP - new\UART.c" 1
 185  000A              	fcall __DELAYY3 +3-(((205-( 9 + __PBP__ * 2))%0402h)%4) 
 185  000A              	ENDIF
 185  000A  0F08        	mov a,8
 185  000B  0080     E  	mov ra,a
 185  000C              _L38:
 188  000C              #line 188 "C:\Users\bet\Desktop\APP - new\UART.c"
 188  000C  3800     R  	snz _PC_TX_2[0].0
 188  000D  2800     R  	jmp _L35
 188  000E  30A2        	set [34].1
 188  000F  2800     R  	jmp _L36
 188  0010              _L35:
 189  0010              #line 189 "C:\Users\bet\Desktop\APP - new\UART.c"
 189  0010  34A2        	clr [34].1
 189  0011              _L36:
 190  0011              #line 190 "C:\Users\bet\Desktop\APP - new\UART.c"
 190  0011  1A00     R  	rlca _PC_TX_2[0]
 190  0012  1B80     R  	rrc _PC_TX_2[0]
 191  0013              #line 191 "C:\Users\bet\Desktop\APP - new\UART.c"
 191  0013              ;# 191 "C:\Users\bet\Desktop\APP - new\UART.c" 1
 191  0013              	IF 205-15>263690
 191  0013              ;# 191 "C:\Users\bet\Desktop\APP - new\UART.c" 1
 191  0013              	ERRMESSAGE 'the value 205-15of the argument exceeds the maxinum 263690'
 191  0013              	ENDIF
 191  0013              ;# 191 "C:\Users\bet\Desktop\APP - new\UART.c" 1
 191  0013              	IF 205-15<0
 191  0013              ;# 191 "C:\Users\bet\Desktop\APP - new\UART.c" 1
 191  0013              	ERRMESSAGE 'the value 205-15 of the argument exceeds the mininum 0'
 191  0013              	ENDIF
 191  0013              ;# 191 "C:\Users\bet\Desktop\APP - new\UART.c" 1
 191  0013              	IF 205-15==0
 191  0013              ;# 191 "C:\Users\bet\Desktop\APP - new\UART.c" 1
 191  0013              	JMP $
 191  0013              	ENDIF
 191  0013              ;# 191 "C:\Users\bet\Desktop\APP - new\UART.c" 1
 191  0013              	IF (205-15>=1) AND (205-15<( 4 + __PBP__ * 2))
 191  0013              ;# 191 "C:\Users\bet\Desktop\APP - new\UART.c" 1
 191  0013              	NOP
 191  0013              	ENDIF
 191  0013              ;# 191 "C:\Users\bet\Desktop\APP - new\UART.c" 1
 191  0013              	IF (205-15>=2) AND (205-15<( 4 + __PBP__ * 2))
 191  0013              ;# 191 "C:\Users\bet\Desktop\APP - new\UART.c" 1
 191  0013              	NOP
 191  0013              	ENDIF
"File: UART.c        Assembler  Version HGASM0202      Page 18

 191  0013              ;# 191 "C:\Users\bet\Desktop\APP - new\UART.c" 1
 191  0013              	IF (205-15>=3) AND (205-15<( 4 + __PBP__ * 2))
 191  0013              ;# 191 "C:\Users\bet\Desktop\APP - new\UART.c" 1
 191  0013              	NOP
 191  0013              	ENDIF
 191  0013              ;# 191 "C:\Users\bet\Desktop\APP - new\UART.c" 1
 191  0013              	IF (205-15>=4) AND (205-15<( 4 + __PBP__ * 2)) AND ( __PBP__ > 0 )
 191  0013              ;# 191 "C:\Users\bet\Desktop\APP - new\UART.c" 1
 191  0013              	NOP
 191  0013              	ENDIF
 191  0013              ;# 191 "C:\Users\bet\Desktop\APP - new\UART.c" 1
 191  0013              	IF (205-15>=5) AND (205-15<( 4 + __PBP__ * 2)) AND ( __PBP__ > 0 )
 191  0013              ;# 191 "C:\Users\bet\Desktop\APP - new\UART.c" 1
 191  0013              	NOP
 191  0013              	ENDIF
 191  0013              ;# 191 "C:\Users\bet\Desktop\APP - new\UART.c" 1
 191  0013              	IF (205-15>=6) AND (205-15<( 4 + __PBP__ * 2))  AND ( __PBP__ > 1 )
 191  0013              ;# 191 "C:\Users\bet\Desktop\APP - new\UART.c" 1
 191  0013              	NOP
 191  0013              	ENDIF
 191  0013              ;# 191 "C:\Users\bet\Desktop\APP - new\UART.c" 1
 191  0013              	IF (205-15>=7) AND (205-15<( 4 + __PBP__ * 2))  AND ( __PBP__ > 1 )
 191  0013              ;# 191 "C:\Users\bet\Desktop\APP - new\UART.c" 1
 191  0013              	NOP
 191  0013              	ENDIF
 191  0013              ;# 191 "C:\Users\bet\Desktop\APP - new\UART.c" 1
 191  0013              	IF (205-15>=8) AND (205-15<( 4 + __PBP__ * 2))  AND ( __PBP__ > 2 )
 191  0013              ;# 191 "C:\Users\bet\Desktop\APP - new\UART.c" 1
 191  0013              	NOP
 191  0013              	ENDIF
 191  0013              ;# 191 "C:\Users\bet\Desktop\APP - new\UART.c" 1
 191  0013              	IF (205-15==9)  AND ( __PBP__ > 2 )
 191  0013              ;# 191 "C:\Users\bet\Desktop\APP - new\UART.c" 1
 191  0013              	NOP
 191  0013              	ENDIF
 191  0013              ;# 191 "C:\Users\bet\Desktop\APP - new\UART.c" 1
 191  0013              	IF (205-15< ( 8 + __PBP__ * 2)) AND (205-15>( 3 + __PBP__ * 2))
 191  0013              ;# 191 "C:\Users\bet\Desktop\APP - new\UART.c" 1
 191  0013              	fcall __DELAY3 + ( 7 + __PBP__ * 2) -205-15
 191  0013              	ENDIF
 191  0013              ;# 191 "C:\Users\bet\Desktop\APP - new\UART.c" 1
 191  0013              	IF (205-15< ( 0404h + __PBP__ * 2)) AND (205-15>( 7 + __PBP__ * 2))
 191  0013              ;# 191 "C:\Users\bet\Desktop\APP - new\UART.c" 1
 191  0013  0F2D        	MOV A,(205-15-( 4 + __PBP__ * 2))/4
 191  0014              ;# 191 "C:\Users\bet\Desktop\APP - new\UART.c" 1
 191  0014              	fcall __DELAYX3 + 3 -((205-15-( 4 + __PBP__ * 2)) MOD 4) 
 191  001B              	ENDIF
 191  001B              ;# 191 "C:\Users\bet\Desktop\APP - new\UART.c" 1
 191  001B              	IF (205-15< ( 040bh + __PBP__ * 2)) AND (205-15> ( 0403h + __PBP__ * 2))
 191  001B              ;# 191 "C:\Users\bet\Desktop\APP - new\UART.c" 1
 191  001B              	MOV A,0 
 191  001B              ;# 191 "C:\Users\bet\Desktop\APP - new\UART.c" 1
 191  001B              	fcall __DELAYX6 + ( 040ah + __PBP__ * 2) -205-15
 191  001B              	ENDIF
 191  001B              ;# 191 "C:\Users\bet\Desktop\APP - new\UART.c" 1
 191  001B              	IF (205-15 >= ( 040bh + __PBP__ * 2)) AND ((((205-15-( 9 + __PBP__ * 2))%0402h)/4+1)>256)
 191  001B              ;# 191 "C:\Users\bet\Desktop\APP - new\UART.c" 1
 191  001B              	MOV A,(205-15-( 9 + __PBP__ * 2))/0402h
 191  001B              ;# 191 "C:\Users\bet\Desktop\APP - new\UART.c" 1
 191  001B              	MOV _builtin_holtek_delay_2,A
"File: UART.c        Assembler  Version HGASM0202      Page 19

 191  001B              ;# 191 "C:\Users\bet\Desktop\APP - new\UART.c" 1
 191  001B              	MOV A,0
 191  001B              ;# 191 "C:\Users\bet\Desktop\APP - new\UART.c" 1
 191  001B              	fcall __DELAYY5 +5- (((205-15-( 9 + __PBP__ * 2))%0402h)%6) 
 191  001B              	ENDIF
 191  001B              ;# 191 "C:\Users\bet\Desktop\APP - new\UART.c" 1
 191  001B              	IF (205-15 >= ( 040bh + __PBP__ * 2)) AND ((((205-15-( 9 + __PBP__ * 2))%0402h)/4+1)<=256)
 191  001B              ;# 191 "C:\Users\bet\Desktop\APP - new\UART.c" 1
 191  001B              	MOV A,(205-15-( 9 + __PBP__ * 2))/0402h
 191  001B              ;# 191 "C:\Users\bet\Desktop\APP - new\UART.c" 1
 191  001B              	MOV _builtin_holtek_delay_2,A
 191  001B              ;# 191 "C:\Users\bet\Desktop\APP - new\UART.c" 1
 191  001B              	MOV A,((205-15-( 9 + __PBP__ * 2))%0402h)/4+1
 191  001B              ;# 191 "C:\Users\bet\Desktop\APP - new\UART.c" 1
 191  001B              	fcall __DELAYY3 +3-(((205-15-( 9 + __PBP__ * 2))%0402h)%4) 
 191  001B              	ENDIF
 191  001B  1780     E  	sdz ra
 191  001C  2800     R  	jmp _L38
 193  001D              #line 193 "C:\Users\bet\Desktop\APP - new\UART.c"
 193  001D  30A2        	set [34].1
 193  001E              ;# 193 "C:\Users\bet\Desktop\APP - new\UART.c" 1
 193  001E              	IF 205>263690
 193  001E              ;# 193 "C:\Users\bet\Desktop\APP - new\UART.c" 1
 193  001E              	ERRMESSAGE 'the value 205of the argument exceeds the maxinum 263690'
 193  001E              	ENDIF
 193  001E              ;# 193 "C:\Users\bet\Desktop\APP - new\UART.c" 1
 193  001E              	IF 205<0
 193  001E              ;# 193 "C:\Users\bet\Desktop\APP - new\UART.c" 1
 193  001E              	ERRMESSAGE 'the value 205 of the argument exceeds the mininum 0'
 193  001E              	ENDIF
 193  001E              ;# 193 "C:\Users\bet\Desktop\APP - new\UART.c" 1
 193  001E              	IF 205==0
 193  001E              ;# 193 "C:\Users\bet\Desktop\APP - new\UART.c" 1
 193  001E              	JMP $
 193  001E              	ENDIF
 193  001E              ;# 193 "C:\Users\bet\Desktop\APP - new\UART.c" 1
 193  001E              	IF (205>=1) AND (205<( 4 + __PBP__ * 2))
 193  001E              ;# 193 "C:\Users\bet\Desktop\APP - new\UART.c" 1
 193  001E              	NOP
 193  001E              	ENDIF
 193  001E              ;# 193 "C:\Users\bet\Desktop\APP - new\UART.c" 1
 193  001E              	IF (205>=2) AND (205<( 4 + __PBP__ * 2))
 193  001E              ;# 193 "C:\Users\bet\Desktop\APP - new\UART.c" 1
 193  001E              	NOP
 193  001E              	ENDIF
 193  001E              ;# 193 "C:\Users\bet\Desktop\APP - new\UART.c" 1
 193  001E              	IF (205>=3) AND (205<( 4 + __PBP__ * 2))
 193  001E              ;# 193 "C:\Users\bet\Desktop\APP - new\UART.c" 1
 193  001E              	NOP
 193  001E              	ENDIF
 193  001E              ;# 193 "C:\Users\bet\Desktop\APP - new\UART.c" 1
 193  001E              	IF (205>=4) AND (205<( 4 + __PBP__ * 2)) AND ( __PBP__ > 0 )
 193  001E              ;# 193 "C:\Users\bet\Desktop\APP - new\UART.c" 1
 193  001E              	NOP
 193  001E              	ENDIF
 193  001E              ;# 193 "C:\Users\bet\Desktop\APP - new\UART.c" 1
 193  001E              	IF (205>=5) AND (205<( 4 + __PBP__ * 2)) AND ( __PBP__ > 0 )
 193  001E              ;# 193 "C:\Users\bet\Desktop\APP - new\UART.c" 1
 193  001E              	NOP
 193  001E              	ENDIF
"File: UART.c        Assembler  Version HGASM0202      Page 20

 193  001E              ;# 193 "C:\Users\bet\Desktop\APP - new\UART.c" 1
 193  001E              	IF (205>=6) AND (205<( 4 + __PBP__ * 2))  AND ( __PBP__ > 1 )
 193  001E              ;# 193 "C:\Users\bet\Desktop\APP - new\UART.c" 1
 193  001E              	NOP
 193  001E              	ENDIF
 193  001E              ;# 193 "C:\Users\bet\Desktop\APP - new\UART.c" 1
 193  001E              	IF (205>=7) AND (205<( 4 + __PBP__ * 2))  AND ( __PBP__ > 1 )
 193  001E              ;# 193 "C:\Users\bet\Desktop\APP - new\UART.c" 1
 193  001E              	NOP
 193  001E              	ENDIF
 193  001E              ;# 193 "C:\Users\bet\Desktop\APP - new\UART.c" 1
 193  001E              	IF (205>=8) AND (205<( 4 + __PBP__ * 2))  AND ( __PBP__ > 2 )
 193  001E              ;# 193 "C:\Users\bet\Desktop\APP - new\UART.c" 1
 193  001E              	NOP
 193  001E              	ENDIF
 193  001E              ;# 193 "C:\Users\bet\Desktop\APP - new\UART.c" 1
 193  001E              	IF (205==9)  AND ( __PBP__ > 2 )
 193  001E              ;# 193 "C:\Users\bet\Desktop\APP - new\UART.c" 1
 193  001E              	NOP
 193  001E              	ENDIF
 193  001E              ;# 193 "C:\Users\bet\Desktop\APP - new\UART.c" 1
 193  001E              	IF (205< ( 8 + __PBP__ * 2)) AND (205>( 3 + __PBP__ * 2))
 193  001E              ;# 193 "C:\Users\bet\Desktop\APP - new\UART.c" 1
 193  001E              	fcall __DELAY3 + ( 7 + __PBP__ * 2) -205
 193  001E              	ENDIF
 193  001E              ;# 193 "C:\Users\bet\Desktop\APP - new\UART.c" 1
 193  001E              	IF (205< ( 0404h + __PBP__ * 2)) AND (205>( 7 + __PBP__ * 2))
 193  001E              ;# 193 "C:\Users\bet\Desktop\APP - new\UART.c" 1
 193  001E  0F31        	MOV A,(205-( 4 + __PBP__ * 2))/4
 193  001F              ;# 193 "C:\Users\bet\Desktop\APP - new\UART.c" 1
 193  001F              	fcall __DELAYX3 + 3 -((205-( 4 + __PBP__ * 2)) MOD 4) 
 193  0026              	ENDIF
 193  0026              ;# 193 "C:\Users\bet\Desktop\APP - new\UART.c" 1
 193  0026              	IF (205< ( 040bh + __PBP__ * 2)) AND (205> ( 0403h + __PBP__ * 2))
 193  0026              ;# 193 "C:\Users\bet\Desktop\APP - new\UART.c" 1
 193  0026              	MOV A,0 
 193  0026              ;# 193 "C:\Users\bet\Desktop\APP - new\UART.c" 1
 193  0026              	fcall __DELAYX6 + ( 040ah + __PBP__ * 2) -205
 193  0026              	ENDIF
 193  0026              ;# 193 "C:\Users\bet\Desktop\APP - new\UART.c" 1
 193  0026              	IF (205 >= ( 040bh + __PBP__ * 2)) AND ((((205-( 9 + __PBP__ * 2))%0402h)/4+1)>256)
 193  0026              ;# 193 "C:\Users\bet\Desktop\APP - new\UART.c" 1
 193  0026              	MOV A,(205-( 9 + __PBP__ * 2))/0402h
 193  0026              ;# 193 "C:\Users\bet\Desktop\APP - new\UART.c" 1
 193  0026              	MOV _builtin_holtek_delay_2,A
 193  0026              ;# 193 "C:\Users\bet\Desktop\APP - new\UART.c" 1
 193  0026              	MOV A,0
 193  0026              ;# 193 "C:\Users\bet\Desktop\APP - new\UART.c" 1
 193  0026              	fcall __DELAYY5 +5- (((205-( 9 + __PBP__ * 2))%0402h)%6) 
 193  0026              	ENDIF
 193  0026              ;# 193 "C:\Users\bet\Desktop\APP - new\UART.c" 1
 193  0026              	IF (205 >= ( 040bh + __PBP__ * 2)) AND ((((205-( 9 + __PBP__ * 2))%0402h)/4+1)<=256)
 193  0026              ;# 193 "C:\Users\bet\Desktop\APP - new\UART.c" 1
 193  0026              	MOV A,(205-( 9 + __PBP__ * 2))/0402h
 193  0026              ;# 193 "C:\Users\bet\Desktop\APP - new\UART.c" 1
 193  0026              	MOV _builtin_holtek_delay_2,A
 193  0026              ;# 193 "C:\Users\bet\Desktop\APP - new\UART.c" 1
 193  0026              	MOV A,((205-( 9 + __PBP__ * 2))%0402h)/4+1
 193  0026              ;# 193 "C:\Users\bet\Desktop\APP - new\UART.c" 1
 193  0026              	fcall __DELAYY3 +3-(((205-( 9 + __PBP__ * 2))%0402h)%4) 
"File: UART.c        Assembler  Version HGASM0202      Page 21

 193  0026              	ENDIF
 193  0026  0003        	ret
 193  0027              _PC_TX endp
 193  0027              #line 193 "C:\Users\bet\Desktop\APP - new\UART.c"
 193  0027              #pragma debug scope 1 1
 193  0027              ___wdtc equ [62]
 193  0027              ___intc0 equ [48]
 193  0027              ___adcr1 equ [105]
 193  0027              ___pas0 equ [352]
 193  0027              ___pas1 equ [353]
 193  0027              public _main
 193  0027              #pragma debug scope 11 1
  28  0027              #line 28 "C:\Users\bet\Desktop\APP - new\UART.c"
  28  0027              IFDEF WITH_DEFAULT_STARTUP
  28  0027              extern _main_initial0:near
  28  0027              extern _main_startup:near
  28  0027              ENDIF
  28  0027              
  28  0027              ROMBANK 0 @start
  28  0000              @start .section com_l 'code'
  28  0000              _main_startup1:
  28  0000              @start .section com_e 'code'
  28  0000  0F00     R  	mov a,bank _main
  28  0001  008B        	mov bp,a
  28  0002  2800     R  	jmp _main
  28  0003              
  28  0000              _main .section 'code'
  28  0000              _main proc
  28  0000  00              local _main_2 db 1 dup(?)
  30  0000              #line 30 "C:\Users\bet\Desktop\APP - new\UART.c"
  30  0000              	fcall _UART_init
  31  0007              #line 31 "C:\Users\bet\Desktop\APP - new\UART.c"
  31  0007  0FAF        	mov a,175
  31  0008  00BE        	mov [62],a
  36  0009              #line 36 "C:\Users\bet\Desktop\APP - new\UART.c"
  36  0009  31B1        	set [49].3
  36  000A  3030        	set [48].0
  36  000B              _L40:
  42  000B              #line 42 "C:\Users\bet\Desktop\APP - new\UART.c"
  42  000B              	fcall _PC_RX
  42  0012  0080     R  	mov _main_2[0],a
  42  0013  0080     R  	mov _kk[0],a
  43  0014              #line 43 "C:\Users\bet\Desktop\APP - new\UART.c"
  43  0014  0700     R  	mov a,_main_2[0]
  43  0015  0A58        	sub a,88
  43  0016  390A        	snz z
  43  0017  2800     R  	jmp _L41
  45  0018              #line 45 "C:\Users\bet\Desktop\APP - new\UART.c"
  45  0018  1F00     R  	clr _flag[0]
  45  0019  1F00     R  	clr _flag[1]
  46  001A              #line 46 "C:\Users\bet\Desktop\APP - new\UART.c"
  46  001A  0F01        	mov a,1
  46  001B  00E8        	mov [104],a
  47  001C              #line 47 "C:\Users\bet\Desktop\APP - new\UART.c"
  47  001C  0F06        	mov a,6
  47  001D  00E9        	mov [105],a
  48  001E              #line 48 "C:\Users\bet\Desktop\APP - new\UART.c"
  48  001E  0F30        	mov a,48
  48  001F  80E0 0001   	lmov [352],a
  48  0021  2800     R  	jmp _L45
"File: UART.c        Assembler  Version HGASM0202      Page 22

  48  0022              _L41:
  63  0022              #line 63 "C:\Users\bet\Desktop\APP - new\UART.c"
  63  0022  0700     R  	mov a,_main_2[0]
  63  0023  0A43        	sub a,67
  63  0024  390A        	snz z
  63  0025  2800     R  	jmp _L43
  65  0026              #line 65 "C:\Users\bet\Desktop\APP - new\UART.c"
  65  0026  0F01        	mov a,1
  65  0027  0080     R  	mov _flag[0],a
  65  0028  1F00     R  	clr _flag[1]
  66  0029              #line 66 "C:\Users\bet\Desktop\APP - new\UART.c"
  66  0029  0F03        	mov a,3
  66  002A  00E8        	mov [104],a
  67  002B              #line 67 "C:\Users\bet\Desktop\APP - new\UART.c"
  67  002B  0F06        	mov a,6
  67  002C  00E9        	mov [105],a
  68  002D              #line 68 "C:\Users\bet\Desktop\APP - new\UART.c"
  68  002D  0F30        	mov a,48
  68  002E  80E1 0001   	lmov [353],a
  68  0030              _L45:
  69  0030              #line 69 "C:\Users\bet\Desktop\APP - new\UART.c"
  69  0030  31B1        	set [49].3
  70  0031              #line 70 "C:\Users\bet\Desktop\APP - new\UART.c"
  70  0031  33E8        	set [104].7
  71  0032              #line 71 "C:\Users\bet\Desktop\APP - new\UART.c"
  71  0032  37E8        	clr [104].7
  76  0033              #line 76 "C:\Users\bet\Desktop\APP - new\UART.c"
  76  0033  0700     R  	mov a,_e[1]
  76  0034              	fcall _PC_TX
  77  003B              #line 77 "C:\Users\bet\Desktop\APP - new\UART.c"
  77  003B  0FE8        	mov a,-24
  77  003C  0080     R  	mov _Delay100us_2[0],a
  77  003D  0F03        	mov a,3
  77  003E  0080     R  	mov _Delay100us_2[1],a
  77  003F              	fcall _Delay100us
  78  0046              #line 78 "C:\Users\bet\Desktop\APP - new\UART.c"
  78  0046  0700     R  	mov a,_e[0]
  78  0047              	fcall _PC_TX
  78  004E  2800     R  	jmp _L44
  78  004F              _L43:
  85  004F              #line 85 "C:\Users\bet\Desktop\APP - new\UART.c"
  85  004F  0F02        	mov a,2
  85  0050  0080     R  	mov _flag[0],a
  85  0051  1F00     R  	clr _flag[1]
  85  0052              _L44:
  86  0052              #line 86 "C:\Users\bet\Desktop\APP - new\UART.c"
  86  0052  0F41        	mov a,65
  86  0053              	fcall _PC_TX
  87  005A              #line 87 "C:\Users\bet\Desktop\APP - new\UART.c"
  87  005A  0FE8        	mov a,-24
  87  005B  0080     R  	mov _Delay100us_2[0],a
  87  005C  0F03        	mov a,3
  87  005D  0080     R  	mov _Delay100us_2[1],a
  87  005E              	fcall _Delay100us
  87  0065  2800     R  	jmp _L40
  87  0066  2800     R  	jmp $
  87  0067              _main endp
  87  0067              
  87  0067              @dummy endp
  87  0067              
"File: UART.c        Assembler  Version HGASM0202      Page 23

  87  0067              #line 87 "C:\Users\bet\Desktop\APP - new\UART.c"
  87  0067              #pragma debug scope 1 1
  87  0067              public _tx_string
  87  0067              #pragma debug scope 12 1
 196  0067              #line 196 "C:\Users\bet\Desktop\APP - new\UART.c"
 196  0000              _tx_string .section 'code'
 196  0000              _tx_string proc
 196  0000              public _tx_string_2
 196  0000  0004[           local _tx_string_2 db 4 dup(?)	; 2,2
            00
            ]
 196  0004              #pragma debug pointer 42 7 12
 196  0004              #pragma debug pointer 42 7 12
 196  0004              #pragma debug variable 42 12 _tx_string_2+0 "data"
 196  0004              #pragma debug variable 7 12 _tx_string_2+3 "test"
 196  0000  0F09        	mov a,9
 196  0001  0080     R  	mov _tx_string_2[2],a
 198  0002              #line 198 "C:\Users\bet\Desktop\APP - new\UART.c"
 198  0002  1F00     R  	clr _tx_string_2[3]
 198  0003              _L48:
 200  0003              #line 200 "C:\Users\bet\Desktop\APP - new\UART.c"
 200  0003  0700     R  	mov a,_tx_string_2[3]
 200  0004  0080     E  	mov rb,a
 200  0005  1F00     E  	clr rc
 200  0006  3F85        	sz acc.7
 200  0007  1F80     E  	set rc
 200  0008  0700     E  	mov a,rb
 200  0009  0300     R  	add a,_tx_string_2[0]
 200  000A  0083        	mov mp,a
 200  000B  0700     E  	mov a,rc
 200  000C  1300     R  	adc a,_tx_string_2[1]
 200  000D  0084        	mov sbp,a
 200  000E              	fcall _Crom2Prom
 200  0015              	fcall _PC_TX
 198  001C              #line 198 "C:\Users\bet\Desktop\APP - new\UART.c"
 198  001C  1480     R  	inc _tx_string_2[3]
 198  001D  1780     R  	sdz _tx_string_2[2]
 198  001E  2800     R  	jmp _L48
 198  001F  0003        	ret
 198  0020              _tx_string endp
 198  0020              #line 198 "C:\Users\bet\Desktop\APP - new\UART.c"
 198  0020              #pragma debug scope 1 1
  26  0020              #line 26 "C:\Users\bet\Desktop\APP - new\UART.c"
  26  0020              public _i
  26  0000              @HCCINIT0_i .section 'data'
  26  0000  0002[       _i	db 2 dup(0)
            00
            ]
  26  0002              #pragma debug variable 11 1 _i "i"
  26  0002              
  26  0000              @HCCINIT .section 'data'
  26  0000              #line 26 "C:\Users\bet\Desktop\APP - new\UART.c"
  26  0000              public _flag
  26  0000              @HCCINIT0_flag .section 'data'
  26  0000  0002[       _flag	db 2 dup(0)
            00
            ]
  26  0002              #pragma debug variable 11 1 _flag "flag"
  26  0002              
  26  0000              @HCCINIT .section 'data'
"File: UART.c        Assembler  Version HGASM0202      Page 24

  25  0000              #line 25 "C:\Users\bet\Desktop\APP - new\UART.c"
  25  0000              public _kk
  25  0000              @HCCINIT0_kk .section 'data'
  25  0000              _kk	db 0
  25  0001              #pragma debug variable 7 1 _kk "kk"
  25  0001              
  25  0000              @HCCINIT .section 'data'
  24  0000              #line 24 "C:\Users\bet\Desktop\APP - new\UART.c"
  24  0000              public _e
  24  0000              @HCCINIT0_e .section 'data'
  24  0000  0002[       _e	db 2 dup(0)
            00
            ]
  24  0002              #pragma debug array 43 7 2 1
  24  0002              #pragma debug array 43 7 2 1
  24  0002              #pragma debug variable 43 1 _e "e"
  24  0002              
  24  0000              @HCCINIT .section 'data'
  19  0000              #line 19 "C:\Users\bet\Desktop\APP - new\UART.c"
  19  0000              public _output
  19  0000              @HCCINIT0_output .section 'data'
  19  0000  0032[       _output	db 50 dup(0)
            00
            ]
  19  0032              #pragma debug array 44 7 50 1
  19  0032              #pragma debug array 44 7 50 1
  19  0032              #pragma debug variable 44 1 _output "output"
  19  0032              
  19  0000              @HCCINIT .section 'data'
  19  0000              public _output1
  19  0000              @HCCINIT	.section 'data'
  15  0000              #line 15 "C:\Users\bet\Desktop\APP - new\UART.c"
  15  0000              @HCCINIT_output1 .section 'data'
  15  0000              _output1 label byte
  15  0000              #pragma debug array 45 7 4 1
  15  0000              #pragma debug array 45 7 4 1
  15  0000              #pragma debug variable 45 1 _output1 "output1"
  15  0000              	db 48
  15  0000              @ROMDATA_BASE .section inpage 'code'
  15  0000              	db 48
  15  0001              @HCCINIT_output1 .section 'data'
  15  0001              	db 49
  15  0001              @ROMDATA_BASE .section inpage 'code'
  15  0001              	db 49
  15  0002              @HCCINIT_output1 .section 'data'
  15  0002              	db 0
  15  0001              @ROMDATA_BASE .section inpage 'code'
  15  0001              	db 0
  15  0003              @HCCINIT_output1 .section 'data'
  15  0003              	db 0
  15  0002              @ROMDATA_BASE .section inpage 'code'
  15  0002              	db 0
  15  0004              @HCCINIT_output1 .section 'data'
  15  0004              #pragma debug struct_end
  15  0004              #pragma debug struct_end
  15  0004              #pragma debug union_end
  15  0004              #pragma debug union_end
  15  0004              #pragma debug variable 47 1 ___pe "__pe" 1
  15  0004              #pragma debug struct_end
  15  0004              #pragma debug struct_end
"File: UART.c        Assembler  Version HGASM0202      Page 25

  15  0004              #pragma debug union_end
  15  0004              #pragma debug union_end
  15  0004              #pragma debug variable 49 1 ___pec "__pec" 1
  15  0004              #pragma debug struct_end
  15  0004              #pragma debug struct_end
  15  0004              #pragma debug union_end
  15  0004              #pragma debug union_end
  15  0004              #pragma debug variable 51 1 ___intc0 "__intc0" 1
  15  0004              #pragma debug struct_end
  15  0004              #pragma debug struct_end
  15  0004              #pragma debug union_end
  15  0004              #pragma debug union_end
  15  0004              #pragma debug variable 53 1 ___intc1 "__intc1" 1
  15  0004              #pragma debug struct_end
  15  0004              #pragma debug struct_end
  15  0004              #pragma debug union_end
  15  0004              #pragma debug union_end
  15  0004              #pragma debug variable 55 1 ___wdtc "__wdtc" 1
  15  0004              #pragma debug struct_end
  15  0004              #pragma debug struct_end
  15  0004              #pragma debug union_end
  15  0004              #pragma debug union_end
  15  0004              #pragma debug variable 57 1 ___adcr0 "__adcr0" 1
  15  0004              #pragma debug struct_end
  15  0004              #pragma debug struct_end
  15  0004              #pragma debug union_end
  15  0004              #pragma debug union_end
  15  0004              #pragma debug variable 59 1 ___adcr1 "__adcr1" 1
  15  0004              #pragma debug variable 8 1 ___adrl "__adrl" 1
  15  0004              #pragma debug variable 8 1 ___adrh "__adrh" 1
  15  0004              #pragma debug struct_end
  15  0004              #pragma debug struct_end
  15  0004              #pragma debug union_end
  15  0004              #pragma debug union_end
  15  0004              #pragma debug variable 61 1 ___pas0 "__pas0" 1
  15  0004              #pragma debug struct_end
  15  0004              #pragma debug struct_end
  15  0004              #pragma debug union_end
  15  0004              #pragma debug union_end
  15  0004              #pragma debug variable 63 1 ___pas1 "__pas1" 1
  15  0004              extern r1:byte
  15  0004              extern r2:byte
  15  0004              extern r3:byte
  15  0004              extern r4:byte
  15  0004              extern r5:byte
  15  0004              extern r6:byte
  15  0004              extern r7:byte
  28  0004              #line 28 "C:\Users\bet\Desktop\APP - new\UART.c"
  28  0000              @code .section at 0 'code'
  28  0000  1F0B        	clr bp
  28  0001  2800     R  	jmp _main_startup1
  28  0002              
  28  0002              extern _builtin_holtek_divmodhi4:near
  28  0002              extern _builtin_holtek_udivmodhi4_2:byte
  28  0002              extern _builtin_holtek_udivmodhi4:near
  28  0002              
  28  0002              ; 
  28  0002              ; Generated by holtek-gcc v3.13, Fri Nov 18 15:58:07 2016
  28  0002              ; Rebuild 71
  28  0002              ; end of file
"File: UART.c        Assembler  Version HGASM0202      Page 26



        0 Errors, 0