"File: UART.c        Assembler  Version HGASM0202      Page 1


   1  0000              ; Generated by holtek-gcc v3.13, Thu Nov 17 21:13:05 2016
   2  0000              ; 
   3  0000              ; Configuration:
   4  0000              ;       with long instruction
   5  0000              ;       Multi-ROM, Multi-RAM
   6  0000              ;       bits_per_rom_unit:16
   7  0000              ;       with mp1
   8  0000              ;       with tbhp, address(0x9)
   9  0000              ;          Use tabrd-const
  10  0000              ;       
  11  0000              ; SFR address of long-instruction arch:
  12  0000              ;    mp0 = -1,1,0
  13  0000              ;    mp1 = 4,3,2
  14  0000              ;    mp2 = 14,13,12
  15  0000              ;    tbp = 9,7,8
  16  0000              ;    acc = 5
  17  0000              ;    pcl = 6
  18  0000              ;    status = 10
  19  0000              ;    bp = 11
  20  0000              ;    intc = 48
  21  0000              ;       
  22  0000              ;       
  23  0000              ; use 'tabrdc' instead of 'tabrd'
  24  0000              ;       
  25  0000              
  26  0000              #pragma translator "holtek-gcc 4.6.4" "3.13" "build 20130711"
  27  0000              ; Rebuild 71
  28  0000              
  29  0000              ir equ [2]
  30  0000              mp equ [3]
  31  0000              sbp equ [4]
  32  0000              acc equ [5]
  33  0000              bp equ [11]
  34  0000              tblp equ [7]
  35  0000              tbhp equ [9]
  36  0000              status equ [10]
  37  0000              c equ [10].0
  38  0000              ac equ [10].1
  39  0000              z equ [10].2
  40  0000              ov equ [10].3
  41  0000              cz equ [10].6
  42  0000              sc equ [10].7
  43  0000              intc equ [48]
  44  0000              
  45  0000              extern ra:byte
  46  0000              extern rb:byte
  47  0000              extern rc:byte
  48  0000              extern rd:byte
  49  0000              extern re:byte
  50  0000              extern rf:byte
  51  0000              extern rg:byte
  52  0000              extern rh:byte
  53  0000              extern _Crom2Prom:near
  54  0000              extern _Crom2PromNext:near
  55  0000              @HCCINIT	.section 'data'
  56  0000              @HCCINIT0	.section 'data'
  57  0000              
  58  0000              #pragma debug scope 1 1
  59  0000              	extern __DELAY3:near
"File: UART.ASM      Assembler  Version HGASM0202      Page 2

  60  0000              	extern __DELAYX3:near
  61  0000              	extern __DELAYX6:near
  62  0000              	extern __DELAYY5:near
  63  0000              	extern __DELAYY3:near
  64  0000              	extern _builtin_holtek_delay_2:byte
  65  0000              ___adcr0 equ [104]
  66  0000              ___adrh equ [107]
  67  0000              ___adrl equ [106]
  68  0000              ___intc1 equ [49]
  69  0000              public _ISR_ADC
  70  0000              #pragma debug scope 2 1

  63  0000              #line 63 "C:\Users\bet\Desktop\APP\UART.c"
  63  0000              rombank 0 @ISR_ADC_code
  63  0000              @ISR_ADC_code .section at 28 'code'
  63  0000  0080     E  	mov r1,a
  63  0001  070B        	mov a,bp
  63  0002  1F0B        	clr bp
  63  0003  2800     R  	jmp _ISR_ADC
  63  0004              ROMBANK 0 _ISR_ADC
  63  0004              #pragma debug scope 1 1
  63  0004              @dummy28 endp
  63  0004              #pragma debug scope 3 1
  63  0000              _ISR_ADC .section 'code'
  63  0000              _ISR_ADC proc
  63  0000  0080     E  	mov r2,a
  63  0001  070A        	mov a, status
  63  0002  0080     E  	mov r3,a
  65  0003              #line 65 "C:\Users\bet\Desktop\APP\UART.c"
  65  0003  33E8        	set [104].7
  66  0004              #line 66 "C:\Users\bet\Desktop\APP\UART.c"
  66  0004  37E8        	clr [104].7
  68  0005              #line 68 "C:\Users\bet\Desktop\APP\UART.c"
  68  0005  076B        	mov a,[107]
  68  0006  0080     E  	mov rb,a
  68  0007  1F00     E  	clr rc
  68  0008  0180     E  	cpl rb
  68  0009  0180     E  	cpl rc
  69  000A              #line 69 "C:\Users\bet\Desktop\APP\UART.c"
  69  000A  340A        	clr c
  69  000B  1A00     E  	rlca rb
  69  000C  0080     E  	mov rd,a
  69  000D  1A00     E  	rlca rc
  69  000E  0080     E  	mov re,a
  69  000F  340A        	clr c
  69  0010  1A80     E  	rlc rd
  69  0011  1A80     E  	rlc re
  70  0012              #line 70 "C:\Users\bet\Desktop\APP\UART.c"
  70  0012  076A        	mov a,[106]
  70  0013  0080     E  	mov rb,a
  70  0014  1F00     E  	clr rc
  70  0015  0180     E  	cpl rb
  70  0016  0180     E  	cpl rc
  71  0017              #line 71 "C:\Users\bet\Desktop\APP\UART.c"
  71  0017  0F06        	mov a,6
  71  0018              _LI1:
  71  0018  340A        	clr c
  71  0019  3C00     E  	sz rc.7
  71  001A  300A        	set c
  71  001B  1B80     E  	rrc rc
"File: UART.c        Assembler  Version HGASM0202      Page 3

  71  001C  1B80     E  	rrc rb
  71  001D  1785        	sdz acc
  71  001E  2800     R  	jmp _LI1
  69  001F              #line 69 "C:\Users\bet\Desktop\APP\UART.c"
  69  001F  0700     E  	mov a,rd
  69  0020  0380     E  	addm a,rb
  69  0021  0700     E  	mov a,re
  69  0022  1380     E  	adcm a,rc
  72  0023              #line 72 "C:\Users\bet\Desktop\APP\UART.c"
  72  0023  0F00        	mov a,0
  72  0024  0280     E  	subm a,rb
  72  0025  0F00        	mov a,0
  72  0026  1280     E  	sbcm a,rc
  73  0027              #line 73 "C:\Users\bet\Desktop\APP\UART.c"
  73  0027  0700     E  	mov a,rb  
  73  0028  0080     E  	mov _builtin_holtek_udivmodhi4_2[0],a  
  73  0029  0700     E  	mov a,rc  
  73  002A  0080     E  	mov _builtin_holtek_udivmodhi4_2[1],a
  73  002B  0F64        	mov a,100  
  73  002C  0080     E  	mov _builtin_holtek_udivmodhi4_2[2],a  
  73  002D  0F00        	mov a,0  
  73  002E  0080     E  	mov _builtin_holtek_udivmodhi4_2[3],a
  73  002F              	fcall _builtin_holtek_divmodhi4
  73  0036  0700     E  	mov a,_builtin_holtek_udivmodhi4_2[0]  
  73  0037  0080     E  	mov rd,a  
  73  0038  0700     E  	mov a,_builtin_holtek_udivmodhi4_2[1]  
  73  0039  0080     E  	mov re,a
  73  003A  0700     E  	mov a,rd
  73  003B  0B30        	add a,48
  73  003C  0080     R  	mov _e[1],a
  74  003D              #line 74 "C:\Users\bet\Desktop\APP\UART.c"
  74  003D  0700     E  	mov a,rb  
  74  003E  0080     E  	mov _builtin_holtek_udivmodhi4_2[0],a  
  74  003F  0700     E  	mov a,rc  
  74  0040  0080     E  	mov _builtin_holtek_udivmodhi4_2[1],a
  74  0041  0F64        	mov a,100  
  74  0042  0080     E  	mov _builtin_holtek_udivmodhi4_2[2],a  
  74  0043  0F00        	mov a,0  
  74  0044  0080     E  	mov _builtin_holtek_udivmodhi4_2[3],a
  74  0045              	fcall _builtin_holtek_divmodhi4
  74  004C  0700     E  	mov a,_builtin_holtek_udivmodhi4_2[4]  
  74  004D  0080     E  	mov rb,a  
  74  004E  0700     E  	mov a,_builtin_holtek_udivmodhi4_2[5]  
  74  004F  0080     E  	mov rc,a
  78  0050              #line 78 "C:\Users\bet\Desktop\APP\UART.c"
  78  0050  0700     E  	mov a,rb  
  78  0051  0080     E  	mov _builtin_holtek_udivmodhi4_2[0],a  
  78  0052  0700     E  	mov a,rc  
  78  0053  0080     E  	mov _builtin_holtek_udivmodhi4_2[1],a
  78  0054  0F0A        	mov a,10  
  78  0055  0080     E  	mov _builtin_holtek_udivmodhi4_2[2],a  
  78  0056  0F00        	mov a,0  
  78  0057  0080     E  	mov _builtin_holtek_udivmodhi4_2[3],a
  78  0058              	fcall _builtin_holtek_divmodhi4
  78  005F  0700     E  	mov a,_builtin_holtek_udivmodhi4_2[0]  
  78  0060  0080     E  	mov rb,a  
  78  0061  0700     E  	mov a,_builtin_holtek_udivmodhi4_2[1]  
  78  0062  0080     E  	mov rc,a
  78  0063  0700     E  	mov a,rb
  78  0064  0B30        	add a,48
"File: UART.c        Assembler  Version HGASM0202      Page 4

  78  0065  0080     R  	mov _e[0],a
  79  0066              #line 79 "C:\Users\bet\Desktop\APP\UART.c"
  79  0066  35B1        	clr [49].3
  79  0067  0700     E  	mov a,r2
  79  0068  008B        	mov bp,a
  79  0069  0700     E  	mov a,r3
  79  006A  008A        	mov status,a
  79  006B  0700     E  	mov a,r1
  79  006C  0004        	reti
  79  006D              _ISR_ADC endp
  79  006D              
  79  006D              #line 79 "C:\Users\bet\Desktop\APP\UART.c"
  79  006D              #pragma debug scope 1 1
  79  006D              public _Delay100us
  79  006D              #pragma debug scope 4 1
  82  006D              #line 82 "C:\Users\bet\Desktop\APP\UART.c"
  82  0000              _Delay100us .section 'code'
  82  0000              _Delay100us proc
  82  0000              public _Delay100us_2
  82  0000  0002[           local _Delay100us_2 db 2 dup(?)	; 2,0
            00
            ]
  82  0002              #pragma debug variable 10 4 _Delay100us_2+0 "del"
  83  0000              #line 83 "C:\Users\bet\Desktop\APP\UART.c"
  83  0000  1F00     E  	clr rb
  83  0001  1F00     E  	clr rc
  83  0002              _L3:
  83  0002              #line 83 "C:\Users\bet\Desktop\APP\UART.c"
  83  0002  0700     E  	mov a,rb
  83  0003  0200     R  	sub a,_Delay100us_2[0]
  83  0004  0700     E  	mov a,rc
  83  0005  1200     R  	sbc a,_Delay100us_2[1]
  83  0006  3F0A        	sz cz
  83  0007  2800     R  	jmp _L2
  83  0008  1F00     E  	clr ra
  83  0009              _L6:
  84  0009              #line 84 "C:\Users\bet\Desktop\APP\UART.c"
  84  0009              ;# 84 "C:\Users\bet\Desktop\APP\UART.c" 1
  84  0009  0000        	nop
  84  000A  1480     E  	inc ra
  84  000B  0700     E  	mov a,ra
  84  000C  0A1A        	sub a,26
  84  000D  390A        	snz z
  84  000E  2800     R  	jmp _L6
  83  000F              #line 83 "C:\Users\bet\Desktop\APP\UART.c"
  83  000F  1480     E  	inc rb
  83  0010  3D0A        	sz z
  83  0011  1480     E  	inc rc
  83  0012  2800     R  	jmp _L3
  83  0013              _L2:
  83  0013  0003        	ret
  83  0014              _Delay100us endp
  83  0014              #line 83 "C:\Users\bet\Desktop\APP\UART.c"
  83  0014              #pragma debug scope 1 1
  83  0014              public _Delayms
  83  0014              #pragma debug scope 5 1
  91  0014              #line 91 "C:\Users\bet\Desktop\APP\UART.c"
  91  0000              _Delayms .section 'code'
  91  0000              _Delayms proc
  91  0000              public _Delayms_2
"File: UART.c        Assembler  Version HGASM0202      Page 5

  91  0000  0002[           local _Delayms_2 db 2 dup(?)	; 2,0
            00
            ]
  91  0002              #pragma debug variable 10 5 _Delayms_2+0 "del"
  93  0000              #line 93 "C:\Users\bet\Desktop\APP\UART.c"
  93  0000  1F00     E  	clr rb
  93  0001  1F00     E  	clr rc
  93  0002  2800     R  	jmp _L9
  93  0003              _L10:
  93  0003              #line 93 "C:\Users\bet\Desktop\APP\UART.c"
  93  0003              ;# 93 "C:\Users\bet\Desktop\APP\UART.c" 1
  93  0003              	IF 2000>263690
  93  0003              ;# 93 "C:\Users\bet\Desktop\APP\UART.c" 1
  93  0003              	ERRMESSAGE 'the value 2000of the argument exceeds the maxinum 263690'
  93  0003              	ENDIF
  93  0003              ;# 93 "C:\Users\bet\Desktop\APP\UART.c" 1
  93  0003              	IF 2000<0
  93  0003              ;# 93 "C:\Users\bet\Desktop\APP\UART.c" 1
  93  0003              	ERRMESSAGE 'the value 2000 of the argument exceeds the mininum 0'
  93  0003              	ENDIF
  93  0003              ;# 93 "C:\Users\bet\Desktop\APP\UART.c" 1
  93  0003              	IF 2000==0
  93  0003              ;# 93 "C:\Users\bet\Desktop\APP\UART.c" 1
  93  0003              	JMP $
  93  0003              	ENDIF
  93  0003              ;# 93 "C:\Users\bet\Desktop\APP\UART.c" 1
  93  0003              	IF (2000>=1) AND (2000<( 4 + __PBP__ * 2))
  93  0003              ;# 93 "C:\Users\bet\Desktop\APP\UART.c" 1
  93  0003              	NOP
  93  0003              	ENDIF
  93  0003              ;# 93 "C:\Users\bet\Desktop\APP\UART.c" 1
  93  0003              	IF (2000>=2) AND (2000<( 4 + __PBP__ * 2))
  93  0003              ;# 93 "C:\Users\bet\Desktop\APP\UART.c" 1
  93  0003              	NOP
  93  0003              	ENDIF
  93  0003              ;# 93 "C:\Users\bet\Desktop\APP\UART.c" 1
  93  0003              	IF (2000>=3) AND (2000<( 4 + __PBP__ * 2))
  93  0003              ;# 93 "C:\Users\bet\Desktop\APP\UART.c" 1
  93  0003              	NOP
  93  0003              	ENDIF
  93  0003              ;# 93 "C:\Users\bet\Desktop\APP\UART.c" 1
  93  0003              	IF (2000>=4) AND (2000<( 4 + __PBP__ * 2)) AND ( __PBP__ > 0 )
  93  0003              ;# 93 "C:\Users\bet\Desktop\APP\UART.c" 1
  93  0003              	NOP
  93  0003              	ENDIF
  93  0003              ;# 93 "C:\Users\bet\Desktop\APP\UART.c" 1
  93  0003              	IF (2000>=5) AND (2000<( 4 + __PBP__ * 2)) AND ( __PBP__ > 0 )
  93  0003              ;# 93 "C:\Users\bet\Desktop\APP\UART.c" 1
  93  0003              	NOP
  93  0003              	ENDIF
  93  0003              ;# 93 "C:\Users\bet\Desktop\APP\UART.c" 1
  93  0003              	IF (2000>=6) AND (2000<( 4 + __PBP__ * 2))  AND ( __PBP__ > 1 )
  93  0003              ;# 93 "C:\Users\bet\Desktop\APP\UART.c" 1
  93  0003              	NOP
  93  0003              	ENDIF
  93  0003              ;# 93 "C:\Users\bet\Desktop\APP\UART.c" 1
  93  0003              	IF (2000>=7) AND (2000<( 4 + __PBP__ * 2))  AND ( __PBP__ > 1 )
  93  0003              ;# 93 "C:\Users\bet\Desktop\APP\UART.c" 1
  93  0003              	NOP
  93  0003              	ENDIF
"File: UART.c        Assembler  Version HGASM0202      Page 6

  93  0003              ;# 93 "C:\Users\bet\Desktop\APP\UART.c" 1
  93  0003              	IF (2000>=8) AND (2000<( 4 + __PBP__ * 2))  AND ( __PBP__ > 2 )
  93  0003              ;# 93 "C:\Users\bet\Desktop\APP\UART.c" 1
  93  0003              	NOP
  93  0003              	ENDIF
  93  0003              ;# 93 "C:\Users\bet\Desktop\APP\UART.c" 1
  93  0003              	IF (2000==9)  AND ( __PBP__ > 2 )
  93  0003              ;# 93 "C:\Users\bet\Desktop\APP\UART.c" 1
  93  0003              	NOP
  93  0003              	ENDIF
  93  0003              ;# 93 "C:\Users\bet\Desktop\APP\UART.c" 1
  93  0003              	IF (2000< ( 8 + __PBP__ * 2)) AND (2000>( 3 + __PBP__ * 2))
  93  0003              ;# 93 "C:\Users\bet\Desktop\APP\UART.c" 1
  93  0003              	fcall __DELAY3 + ( 7 + __PBP__ * 2) -2000
  93  0003              	ENDIF
  93  0003              ;# 93 "C:\Users\bet\Desktop\APP\UART.c" 1
  93  0003              	IF (2000< ( 0404h + __PBP__ * 2)) AND (2000>( 7 + __PBP__ * 2))
  93  0003              ;# 93 "C:\Users\bet\Desktop\APP\UART.c" 1
  93  0003              	MOV A,(2000-( 4 + __PBP__ * 2))/4
  93  0003              ;# 93 "C:\Users\bet\Desktop\APP\UART.c" 1
  93  0003              	fcall __DELAYX3 + 3 -((2000-( 4 + __PBP__ * 2)) MOD 4) 
  93  0003              	ENDIF
  93  0003              ;# 93 "C:\Users\bet\Desktop\APP\UART.c" 1
  93  0003              	IF (2000< ( 040bh + __PBP__ * 2)) AND (2000> ( 0403h + __PBP__ * 2))
  93  0003              ;# 93 "C:\Users\bet\Desktop\APP\UART.c" 1
  93  0003              	MOV A,0 
  93  0003              ;# 93 "C:\Users\bet\Desktop\APP\UART.c" 1
  93  0003              	fcall __DELAYX6 + ( 040ah + __PBP__ * 2) -2000
  93  0003              	ENDIF
  93  0003              ;# 93 "C:\Users\bet\Desktop\APP\UART.c" 1
  93  0003              	IF (2000 >= ( 040bh + __PBP__ * 2)) AND ((((2000-( 9 + __PBP__ * 2))%0402h)/4+1)>256)
  93  0003              ;# 93 "C:\Users\bet\Desktop\APP\UART.c" 1
  93  0003              	MOV A,(2000-( 9 + __PBP__ * 2))/0402h
  93  0003              ;# 93 "C:\Users\bet\Desktop\APP\UART.c" 1
  93  0003              	MOV _builtin_holtek_delay_2,A
  93  0003              ;# 93 "C:\Users\bet\Desktop\APP\UART.c" 1
  93  0003              	MOV A,0
  93  0003              ;# 93 "C:\Users\bet\Desktop\APP\UART.c" 1
  93  0003              	fcall __DELAYY5 +5- (((2000-( 9 + __PBP__ * 2))%0402h)%6) 
  93  0003              	ENDIF
  93  0003              ;# 93 "C:\Users\bet\Desktop\APP\UART.c" 1
  93  0003              	IF (2000 >= ( 040bh + __PBP__ * 2)) AND ((((2000-( 9 + __PBP__ * 2))%0402h)/4+1)<=256)
  93  0003              ;# 93 "C:\Users\bet\Desktop\APP\UART.c" 1
  93  0003  0F01        	MOV A,(2000-( 9 + __PBP__ * 2))/0402h
  93  0004              ;# 93 "C:\Users\bet\Desktop\APP\UART.c" 1
  93  0004  0080     E  	MOV _builtin_holtek_delay_2,A
  93  0005              ;# 93 "C:\Users\bet\Desktop\APP\UART.c" 1
  93  0005  0FF1        	MOV A,((2000-( 9 + __PBP__ * 2))%0402h)/4+1
  93  0006              ;# 93 "C:\Users\bet\Desktop\APP\UART.c" 1
  93  0006              	fcall __DELAYY3 +3-(((2000-( 9 + __PBP__ * 2))%0402h)%4) 
  93  000D              	ENDIF
  93  000D  1480     E  	inc rb
  93  000E  3D0A        	sz z
  93  000F  1480     E  	inc rc
  93  0010              _L9:
  93  0010  0700     E  	mov a,rb
  93  0011  0200     R  	sub a,_Delayms_2[0]
  93  0012  0700     E  	mov a,rc
  93  0013  1200     R  	sbc a,_Delayms_2[1]
  93  0014  3B0A        	snz cz
"File: UART.c        Assembler  Version HGASM0202      Page 7

  93  0015  2800     R  	jmp _L10
  93  0016  0003        	ret
  93  0017              _Delayms endp
  93  0017              #line 93 "C:\Users\bet\Desktop\APP\UART.c"
  93  0017              #pragma debug scope 1 1
  93  0017              public _GPIO_init
  93  0017              #pragma debug scope 6 1
  96  0017              #line 96 "C:\Users\bet\Desktop\APP\UART.c"
  96  0000              _GPIO_init .section 'code'
  96  0000              _GPIO_init proc
  96  0000  0003        	ret
  96  0001              _GPIO_init endp
  96  0001              #line 96 "C:\Users\bet\Desktop\APP\UART.c"
  96  0001              #pragma debug scope 1 1
  96  0001              ___pec equ [35]
  96  0001              public _UART_init
  96  0001              #pragma debug scope 7 1
 103  0001              #line 103 "C:\Users\bet\Desktop\APP\UART.c"
 103  0000              _UART_init .section 'code'
 103  0000              _UART_init proc
 104  0000              #line 104 "C:\Users\bet\Desktop\APP\UART.c"
 104  0000  34A3        	clr [35].1
 105  0001              #line 105 "C:\Users\bet\Desktop\APP\UART.c"
 105  0001  3023        	set [35].0
 105  0002  0003        	ret
 105  0003              _UART_init endp
 105  0003              #line 105 "C:\Users\bet\Desktop\APP\UART.c"
 105  0003              #pragma debug scope 1 1
 105  0003              ___pe equ [34]
 105  0003              public _PC_RX
 105  0003              #pragma debug scope 8 1
 109  0003              #line 109 "C:\Users\bet\Desktop\APP\UART.c"
 109  0000              _PC_RX .section 'code'
 109  0000              _PC_RX proc
 109  0000              _L15:
 111  0000              #line 111 "C:\Users\bet\Desktop\APP\UART.c"
 111  0000  3C22        	sz [34].0
 111  0001  2800     R  	jmp _L15
 112  0002              #line 112 "C:\Users\bet\Desktop\APP\UART.c"
 112  0002              ;# 112 "C:\Users\bet\Desktop\APP\UART.c" 1
 112  0002              	IF 205>263690
 112  0002              ;# 112 "C:\Users\bet\Desktop\APP\UART.c" 1
 112  0002              	ERRMESSAGE 'the value 205of the argument exceeds the maxinum 263690'
 112  0002              	ENDIF
 112  0002              ;# 112 "C:\Users\bet\Desktop\APP\UART.c" 1
 112  0002              	IF 205<0
 112  0002              ;# 112 "C:\Users\bet\Desktop\APP\UART.c" 1
 112  0002              	ERRMESSAGE 'the value 205 of the argument exceeds the mininum 0'
 112  0002              	ENDIF
 112  0002              ;# 112 "C:\Users\bet\Desktop\APP\UART.c" 1
 112  0002              	IF 205==0
 112  0002              ;# 112 "C:\Users\bet\Desktop\APP\UART.c" 1
 112  0002              	JMP $
 112  0002              	ENDIF
 112  0002              ;# 112 "C:\Users\bet\Desktop\APP\UART.c" 1
 112  0002              	IF (205>=1) AND (205<( 4 + __PBP__ * 2))
 112  0002              ;# 112 "C:\Users\bet\Desktop\APP\UART.c" 1
 112  0002              	NOP
 112  0002              	ENDIF
 112  0002              ;# 112 "C:\Users\bet\Desktop\APP\UART.c" 1
"File: UART.c        Assembler  Version HGASM0202      Page 8

 112  0002              	IF (205>=2) AND (205<( 4 + __PBP__ * 2))
 112  0002              ;# 112 "C:\Users\bet\Desktop\APP\UART.c" 1
 112  0002              	NOP
 112  0002              	ENDIF
 112  0002              ;# 112 "C:\Users\bet\Desktop\APP\UART.c" 1
 112  0002              	IF (205>=3) AND (205<( 4 + __PBP__ * 2))
 112  0002              ;# 112 "C:\Users\bet\Desktop\APP\UART.c" 1
 112  0002              	NOP
 112  0002              	ENDIF
 112  0002              ;# 112 "C:\Users\bet\Desktop\APP\UART.c" 1
 112  0002              	IF (205>=4) AND (205<( 4 + __PBP__ * 2)) AND ( __PBP__ > 0 )
 112  0002              ;# 112 "C:\Users\bet\Desktop\APP\UART.c" 1
 112  0002              	NOP
 112  0002              	ENDIF
 112  0002              ;# 112 "C:\Users\bet\Desktop\APP\UART.c" 1
 112  0002              	IF (205>=5) AND (205<( 4 + __PBP__ * 2)) AND ( __PBP__ > 0 )
 112  0002              ;# 112 "C:\Users\bet\Desktop\APP\UART.c" 1
 112  0002              	NOP
 112  0002              	ENDIF
 112  0002              ;# 112 "C:\Users\bet\Desktop\APP\UART.c" 1
 112  0002              	IF (205>=6) AND (205<( 4 + __PBP__ * 2))  AND ( __PBP__ > 1 )
 112  0002              ;# 112 "C:\Users\bet\Desktop\APP\UART.c" 1
 112  0002              	NOP
 112  0002              	ENDIF
 112  0002              ;# 112 "C:\Users\bet\Desktop\APP\UART.c" 1
 112  0002              	IF (205>=7) AND (205<( 4 + __PBP__ * 2))  AND ( __PBP__ > 1 )
 112  0002              ;# 112 "C:\Users\bet\Desktop\APP\UART.c" 1
 112  0002              	NOP
 112  0002              	ENDIF
 112  0002              ;# 112 "C:\Users\bet\Desktop\APP\UART.c" 1
 112  0002              	IF (205>=8) AND (205<( 4 + __PBP__ * 2))  AND ( __PBP__ > 2 )
 112  0002              ;# 112 "C:\Users\bet\Desktop\APP\UART.c" 1
 112  0002              	NOP
 112  0002              	ENDIF
 112  0002              ;# 112 "C:\Users\bet\Desktop\APP\UART.c" 1
 112  0002              	IF (205==9)  AND ( __PBP__ > 2 )
 112  0002              ;# 112 "C:\Users\bet\Desktop\APP\UART.c" 1
 112  0002              	NOP
 112  0002              	ENDIF
 112  0002              ;# 112 "C:\Users\bet\Desktop\APP\UART.c" 1
 112  0002              	IF (205< ( 8 + __PBP__ * 2)) AND (205>( 3 + __PBP__ * 2))
 112  0002              ;# 112 "C:\Users\bet\Desktop\APP\UART.c" 1
 112  0002              	fcall __DELAY3 + ( 7 + __PBP__ * 2) -205
 112  0002              	ENDIF
 112  0002              ;# 112 "C:\Users\bet\Desktop\APP\UART.c" 1
 112  0002              	IF (205< ( 0404h + __PBP__ * 2)) AND (205>( 7 + __PBP__ * 2))
 112  0002              ;# 112 "C:\Users\bet\Desktop\APP\UART.c" 1
 112  0002  0F31        	MOV A,(205-( 4 + __PBP__ * 2))/4
 112  0003              ;# 112 "C:\Users\bet\Desktop\APP\UART.c" 1
 112  0003              	fcall __DELAYX3 + 3 -((205-( 4 + __PBP__ * 2)) MOD 4) 
 112  000A              	ENDIF
 112  000A              ;# 112 "C:\Users\bet\Desktop\APP\UART.c" 1
 112  000A              	IF (205< ( 040bh + __PBP__ * 2)) AND (205> ( 0403h + __PBP__ * 2))
 112  000A              ;# 112 "C:\Users\bet\Desktop\APP\UART.c" 1
 112  000A              	MOV A,0 
 112  000A              ;# 112 "C:\Users\bet\Desktop\APP\UART.c" 1
 112  000A              	fcall __DELAYX6 + ( 040ah + __PBP__ * 2) -205
 112  000A              	ENDIF
 112  000A              ;# 112 "C:\Users\bet\Desktop\APP\UART.c" 1
 112  000A              	IF (205 >= ( 040bh + __PBP__ * 2)) AND ((((205-( 9 + __PBP__ * 2))%0402h)/4+1)>256)
"File: UART.c        Assembler  Version HGASM0202      Page 9

 112  000A              ;# 112 "C:\Users\bet\Desktop\APP\UART.c" 1
 112  000A              	MOV A,(205-( 9 + __PBP__ * 2))/0402h
 112  000A              ;# 112 "C:\Users\bet\Desktop\APP\UART.c" 1
 112  000A              	MOV _builtin_holtek_delay_2,A
 112  000A              ;# 112 "C:\Users\bet\Desktop\APP\UART.c" 1
 112  000A              	MOV A,0
 112  000A              ;# 112 "C:\Users\bet\Desktop\APP\UART.c" 1
 112  000A              	fcall __DELAYY5 +5- (((205-( 9 + __PBP__ * 2))%0402h)%6) 
 112  000A              	ENDIF
 112  000A              ;# 112 "C:\Users\bet\Desktop\APP\UART.c" 1
 112  000A              	IF (205 >= ( 040bh + __PBP__ * 2)) AND ((((205-( 9 + __PBP__ * 2))%0402h)/4+1)<=256)
 112  000A              ;# 112 "C:\Users\bet\Desktop\APP\UART.c" 1
 112  000A              	MOV A,(205-( 9 + __PBP__ * 2))/0402h
 112  000A              ;# 112 "C:\Users\bet\Desktop\APP\UART.c" 1
 112  000A              	MOV _builtin_holtek_delay_2,A
 112  000A              ;# 112 "C:\Users\bet\Desktop\APP\UART.c" 1
 112  000A              	MOV A,((205-( 9 + __PBP__ * 2))%0402h)/4+1
 112  000A              ;# 112 "C:\Users\bet\Desktop\APP\UART.c" 1
 112  000A              	fcall __DELAYY3 +3-(((205-( 9 + __PBP__ * 2))%0402h)%4) 
 112  000A              	ENDIF
 113  000A              #line 113 "C:\Users\bet\Desktop\APP\UART.c"
 113  000A              ;# 113 "C:\Users\bet\Desktop\APP\UART.c" 1
 113  000A              	IF 205/2>263690
 113  000A              ;# 113 "C:\Users\bet\Desktop\APP\UART.c" 1
 113  000A              	ERRMESSAGE 'the value 205/2of the argument exceeds the maxinum 263690'
 113  000A              	ENDIF
 113  000A              ;# 113 "C:\Users\bet\Desktop\APP\UART.c" 1
 113  000A              	IF 205/2<0
 113  000A              ;# 113 "C:\Users\bet\Desktop\APP\UART.c" 1
 113  000A              	ERRMESSAGE 'the value 205/2 of the argument exceeds the mininum 0'
 113  000A              	ENDIF
 113  000A              ;# 113 "C:\Users\bet\Desktop\APP\UART.c" 1
 113  000A              	IF 205/2==0
 113  000A              ;# 113 "C:\Users\bet\Desktop\APP\UART.c" 1
 113  000A              	JMP $
 113  000A              	ENDIF
 113  000A              ;# 113 "C:\Users\bet\Desktop\APP\UART.c" 1
 113  000A              	IF (205/2>=1) AND (205/2<( 4 + __PBP__ * 2))
 113  000A              ;# 113 "C:\Users\bet\Desktop\APP\UART.c" 1
 113  000A              	NOP
 113  000A              	ENDIF
 113  000A              ;# 113 "C:\Users\bet\Desktop\APP\UART.c" 1
 113  000A              	IF (205/2>=2) AND (205/2<( 4 + __PBP__ * 2))
 113  000A              ;# 113 "C:\Users\bet\Desktop\APP\UART.c" 1
 113  000A              	NOP
 113  000A              	ENDIF
 113  000A              ;# 113 "C:\Users\bet\Desktop\APP\UART.c" 1
 113  000A              	IF (205/2>=3) AND (205/2<( 4 + __PBP__ * 2))
 113  000A              ;# 113 "C:\Users\bet\Desktop\APP\UART.c" 1
 113  000A              	NOP
 113  000A              	ENDIF
 113  000A              ;# 113 "C:\Users\bet\Desktop\APP\UART.c" 1
 113  000A              	IF (205/2>=4) AND (205/2<( 4 + __PBP__ * 2)) AND ( __PBP__ > 0 )
 113  000A              ;# 113 "C:\Users\bet\Desktop\APP\UART.c" 1
 113  000A              	NOP
 113  000A              	ENDIF
 113  000A              ;# 113 "C:\Users\bet\Desktop\APP\UART.c" 1
 113  000A              	IF (205/2>=5) AND (205/2<( 4 + __PBP__ * 2)) AND ( __PBP__ > 0 )
 113  000A              ;# 113 "C:\Users\bet\Desktop\APP\UART.c" 1
 113  000A              	NOP
"File: UART.c        Assembler  Version HGASM0202      Page 10

 113  000A              	ENDIF
 113  000A              ;# 113 "C:\Users\bet\Desktop\APP\UART.c" 1
 113  000A              	IF (205/2>=6) AND (205/2<( 4 + __PBP__ * 2))  AND ( __PBP__ > 1 )
 113  000A              ;# 113 "C:\Users\bet\Desktop\APP\UART.c" 1
 113  000A              	NOP
 113  000A              	ENDIF
 113  000A              ;# 113 "C:\Users\bet\Desktop\APP\UART.c" 1
 113  000A              	IF (205/2>=7) AND (205/2<( 4 + __PBP__ * 2))  AND ( __PBP__ > 1 )
 113  000A              ;# 113 "C:\Users\bet\Desktop\APP\UART.c" 1
 113  000A              	NOP
 113  000A              	ENDIF
 113  000A              ;# 113 "C:\Users\bet\Desktop\APP\UART.c" 1
 113  000A              	IF (205/2>=8) AND (205/2<( 4 + __PBP__ * 2))  AND ( __PBP__ > 2 )
 113  000A              ;# 113 "C:\Users\bet\Desktop\APP\UART.c" 1
 113  000A              	NOP
 113  000A              	ENDIF
 113  000A              ;# 113 "C:\Users\bet\Desktop\APP\UART.c" 1
 113  000A              	IF (205/2==9)  AND ( __PBP__ > 2 )
 113  000A              ;# 113 "C:\Users\bet\Desktop\APP\UART.c" 1
 113  000A              	NOP
 113  000A              	ENDIF
 113  000A              ;# 113 "C:\Users\bet\Desktop\APP\UART.c" 1
 113  000A              	IF (205/2< ( 8 + __PBP__ * 2)) AND (205/2>( 3 + __PBP__ * 2))
 113  000A              ;# 113 "C:\Users\bet\Desktop\APP\UART.c" 1
 113  000A              	fcall __DELAY3 + ( 7 + __PBP__ * 2) -205/2
 113  000A              	ENDIF
 113  000A              ;# 113 "C:\Users\bet\Desktop\APP\UART.c" 1
 113  000A              	IF (205/2< ( 0404h + __PBP__ * 2)) AND (205/2>( 7 + __PBP__ * 2))
 113  000A              ;# 113 "C:\Users\bet\Desktop\APP\UART.c" 1
 113  000A  0F17        	MOV A,(205/2-( 4 + __PBP__ * 2))/4
 113  000B              ;# 113 "C:\Users\bet\Desktop\APP\UART.c" 1
 113  000B              	fcall __DELAYX3 + 3 -((205/2-( 4 + __PBP__ * 2)) MOD 4) 
 113  0012              	ENDIF
 113  0012              ;# 113 "C:\Users\bet\Desktop\APP\UART.c" 1
 113  0012              	IF (205/2< ( 040bh + __PBP__ * 2)) AND (205/2> ( 0403h + __PBP__ * 2))
 113  0012              ;# 113 "C:\Users\bet\Desktop\APP\UART.c" 1
 113  0012              	MOV A,0 
 113  0012              ;# 113 "C:\Users\bet\Desktop\APP\UART.c" 1
 113  0012              	fcall __DELAYX6 + ( 040ah + __PBP__ * 2) -205/2
 113  0012              	ENDIF
 113  0012              ;# 113 "C:\Users\bet\Desktop\APP\UART.c" 1
 113  0012              	IF (205/2 >= ( 040bh + __PBP__ * 2)) AND ((((205/2-( 9 + __PBP__ * 2))%0402h)/4+1)>256)
 113  0012              ;# 113 "C:\Users\bet\Desktop\APP\UART.c" 1
 113  0012              	MOV A,(205/2-( 9 + __PBP__ * 2))/0402h
 113  0012              ;# 113 "C:\Users\bet\Desktop\APP\UART.c" 1
 113  0012              	MOV _builtin_holtek_delay_2,A
 113  0012              ;# 113 "C:\Users\bet\Desktop\APP\UART.c" 1
 113  0012              	MOV A,0
 113  0012              ;# 113 "C:\Users\bet\Desktop\APP\UART.c" 1
 113  0012              	fcall __DELAYY5 +5- (((205/2-( 9 + __PBP__ * 2))%0402h)%6) 
 113  0012              	ENDIF
 113  0012              ;# 113 "C:\Users\bet\Desktop\APP\UART.c" 1
 113  0012              	IF (205/2 >= ( 040bh + __PBP__ * 2)) AND ((((205/2-( 9 + __PBP__ * 2))%0402h)/4+1)<=256)
 113  0012              ;# 113 "C:\Users\bet\Desktop\APP\UART.c" 1
 113  0012              	MOV A,(205/2-( 9 + __PBP__ * 2))/0402h
 113  0012              ;# 113 "C:\Users\bet\Desktop\APP\UART.c" 1
 113  0012              	MOV _builtin_holtek_delay_2,A
 113  0012              ;# 113 "C:\Users\bet\Desktop\APP\UART.c" 1
 113  0012              	MOV A,((205/2-( 9 + __PBP__ * 2))%0402h)/4+1
 113  0012              ;# 113 "C:\Users\bet\Desktop\APP\UART.c" 1
"File: UART.c        Assembler  Version HGASM0202      Page 11

 113  0012              	fcall __DELAYY3 +3-(((205/2-( 9 + __PBP__ * 2))%0402h)%4) 
 113  0012              	ENDIF
 113  0012  0F08        	mov a,8
 113  0013  0080     E  	mov rb,a
 110  0014              #line 110 "C:\Users\bet\Desktop\APP\UART.c"
 110  0014  1F00     E  	clr ra
 110  0015              _L18:
 116  0015              #line 116 "C:\Users\bet\Desktop\APP\UART.c"
 116  0015  340A        	clr c
 116  0016  1B80     E  	rrc ra
 117  0017              #line 117 "C:\Users\bet\Desktop\APP\UART.c"
 117  0017  3822        	snz [34].0
 117  0018  2800     R  	jmp _L16
 117  0019  3000     E  	set ra.7
 117  001A              _L16:
 118  001A              #line 118 "C:\Users\bet\Desktop\APP\UART.c"
 118  001A              ;# 118 "C:\Users\bet\Desktop\APP\UART.c" 1
 118  001A              	IF 205-15>263690
 118  001A              ;# 118 "C:\Users\bet\Desktop\APP\UART.c" 1
 118  001A              	ERRMESSAGE 'the value 205-15of the argument exceeds the maxinum 263690'
 118  001A              	ENDIF
 118  001A              ;# 118 "C:\Users\bet\Desktop\APP\UART.c" 1
 118  001A              	IF 205-15<0
 118  001A              ;# 118 "C:\Users\bet\Desktop\APP\UART.c" 1
 118  001A              	ERRMESSAGE 'the value 205-15 of the argument exceeds the mininum 0'
 118  001A              	ENDIF
 118  001A              ;# 118 "C:\Users\bet\Desktop\APP\UART.c" 1
 118  001A              	IF 205-15==0
 118  001A              ;# 118 "C:\Users\bet\Desktop\APP\UART.c" 1
 118  001A              	JMP $
 118  001A              	ENDIF
 118  001A              ;# 118 "C:\Users\bet\Desktop\APP\UART.c" 1
 118  001A              	IF (205-15>=1) AND (205-15<( 4 + __PBP__ * 2))
 118  001A              ;# 118 "C:\Users\bet\Desktop\APP\UART.c" 1
 118  001A              	NOP
 118  001A              	ENDIF
 118  001A              ;# 118 "C:\Users\bet\Desktop\APP\UART.c" 1
 118  001A              	IF (205-15>=2) AND (205-15<( 4 + __PBP__ * 2))
 118  001A              ;# 118 "C:\Users\bet\Desktop\APP\UART.c" 1
 118  001A              	NOP
 118  001A              	ENDIF
 118  001A              ;# 118 "C:\Users\bet\Desktop\APP\UART.c" 1
 118  001A              	IF (205-15>=3) AND (205-15<( 4 + __PBP__ * 2))
 118  001A              ;# 118 "C:\Users\bet\Desktop\APP\UART.c" 1
 118  001A              	NOP
 118  001A              	ENDIF
 118  001A              ;# 118 "C:\Users\bet\Desktop\APP\UART.c" 1
 118  001A              	IF (205-15>=4) AND (205-15<( 4 + __PBP__ * 2)) AND ( __PBP__ > 0 )
 118  001A              ;# 118 "C:\Users\bet\Desktop\APP\UART.c" 1
 118  001A              	NOP
 118  001A              	ENDIF
 118  001A              ;# 118 "C:\Users\bet\Desktop\APP\UART.c" 1
 118  001A              	IF (205-15>=5) AND (205-15<( 4 + __PBP__ * 2)) AND ( __PBP__ > 0 )
 118  001A              ;# 118 "C:\Users\bet\Desktop\APP\UART.c" 1
 118  001A              	NOP
 118  001A              	ENDIF
 118  001A              ;# 118 "C:\Users\bet\Desktop\APP\UART.c" 1
 118  001A              	IF (205-15>=6) AND (205-15<( 4 + __PBP__ * 2))  AND ( __PBP__ > 1 )
 118  001A              ;# 118 "C:\Users\bet\Desktop\APP\UART.c" 1
 118  001A              	NOP
"File: UART.c        Assembler  Version HGASM0202      Page 12

 118  001A              	ENDIF
 118  001A              ;# 118 "C:\Users\bet\Desktop\APP\UART.c" 1
 118  001A              	IF (205-15>=7) AND (205-15<( 4 + __PBP__ * 2))  AND ( __PBP__ > 1 )
 118  001A              ;# 118 "C:\Users\bet\Desktop\APP\UART.c" 1
 118  001A              	NOP
 118  001A              	ENDIF
 118  001A              ;# 118 "C:\Users\bet\Desktop\APP\UART.c" 1
 118  001A              	IF (205-15>=8) AND (205-15<( 4 + __PBP__ * 2))  AND ( __PBP__ > 2 )
 118  001A              ;# 118 "C:\Users\bet\Desktop\APP\UART.c" 1
 118  001A              	NOP
 118  001A              	ENDIF
 118  001A              ;# 118 "C:\Users\bet\Desktop\APP\UART.c" 1
 118  001A              	IF (205-15==9)  AND ( __PBP__ > 2 )
 118  001A              ;# 118 "C:\Users\bet\Desktop\APP\UART.c" 1
 118  001A              	NOP
 118  001A              	ENDIF
 118  001A              ;# 118 "C:\Users\bet\Desktop\APP\UART.c" 1
 118  001A              	IF (205-15< ( 8 + __PBP__ * 2)) AND (205-15>( 3 + __PBP__ * 2))
 118  001A              ;# 118 "C:\Users\bet\Desktop\APP\UART.c" 1
 118  001A              	fcall __DELAY3 + ( 7 + __PBP__ * 2) -205-15
 118  001A              	ENDIF
 118  001A              ;# 118 "C:\Users\bet\Desktop\APP\UART.c" 1
 118  001A              	IF (205-15< ( 0404h + __PBP__ * 2)) AND (205-15>( 7 + __PBP__ * 2))
 118  001A              ;# 118 "C:\Users\bet\Desktop\APP\UART.c" 1
 118  001A  0F2D        	MOV A,(205-15-( 4 + __PBP__ * 2))/4
 118  001B              ;# 118 "C:\Users\bet\Desktop\APP\UART.c" 1
 118  001B              	fcall __DELAYX3 + 3 -((205-15-( 4 + __PBP__ * 2)) MOD 4) 
 118  0022              	ENDIF
 118  0022              ;# 118 "C:\Users\bet\Desktop\APP\UART.c" 1
 118  0022              	IF (205-15< ( 040bh + __PBP__ * 2)) AND (205-15> ( 0403h + __PBP__ * 2))
 118  0022              ;# 118 "C:\Users\bet\Desktop\APP\UART.c" 1
 118  0022              	MOV A,0 
 118  0022              ;# 118 "C:\Users\bet\Desktop\APP\UART.c" 1
 118  0022              	fcall __DELAYX6 + ( 040ah + __PBP__ * 2) -205-15
 118  0022              	ENDIF
 118  0022              ;# 118 "C:\Users\bet\Desktop\APP\UART.c" 1
 118  0022              	IF (205-15 >= ( 040bh + __PBP__ * 2)) AND ((((205-15-( 9 + __PBP__ * 2))%0402h)/4+1)>256)
 118  0022              ;# 118 "C:\Users\bet\Desktop\APP\UART.c" 1
 118  0022              	MOV A,(205-15-( 9 + __PBP__ * 2))/0402h
 118  0022              ;# 118 "C:\Users\bet\Desktop\APP\UART.c" 1
 118  0022              	MOV _builtin_holtek_delay_2,A
 118  0022              ;# 118 "C:\Users\bet\Desktop\APP\UART.c" 1
 118  0022              	MOV A,0
 118  0022              ;# 118 "C:\Users\bet\Desktop\APP\UART.c" 1
 118  0022              	fcall __DELAYY5 +5- (((205-15-( 9 + __PBP__ * 2))%0402h)%6) 
 118  0022              	ENDIF
 118  0022              ;# 118 "C:\Users\bet\Desktop\APP\UART.c" 1
 118  0022              	IF (205-15 >= ( 040bh + __PBP__ * 2)) AND ((((205-15-( 9 + __PBP__ * 2))%0402h)/4+1)<=256)
 118  0022              ;# 118 "C:\Users\bet\Desktop\APP\UART.c" 1
 118  0022              	MOV A,(205-15-( 9 + __PBP__ * 2))/0402h
 118  0022              ;# 118 "C:\Users\bet\Desktop\APP\UART.c" 1
 118  0022              	MOV _builtin_holtek_delay_2,A
 118  0022              ;# 118 "C:\Users\bet\Desktop\APP\UART.c" 1
 118  0022              	MOV A,((205-15-( 9 + __PBP__ * 2))%0402h)/4+1
 118  0022              ;# 118 "C:\Users\bet\Desktop\APP\UART.c" 1
 118  0022              	fcall __DELAYY3 +3-(((205-15-( 9 + __PBP__ * 2))%0402h)%4) 
 118  0022              	ENDIF
 118  0022  1780     E  	sdz rb
 118  0023  2800     R  	jmp _L18
 121  0024              #line 121 "C:\Users\bet\Desktop\APP\UART.c"
"File: UART.c        Assembler  Version HGASM0202      Page 13

 121  0024  0700     E  	mov a,ra
 121  0025  0003        	ret
 121  0026              _PC_RX endp
 121  0026              #line 121 "C:\Users\bet\Desktop\APP\UART.c"
 121  0026              #pragma debug scope 1 1
 121  0026              public _rx_string
 121  0026              #pragma debug scope 9 1
 123  0026              #line 123 "C:\Users\bet\Desktop\APP\UART.c"
 123  0000              _rx_string .section 'code'
 123  0000              _rx_string proc
 123  0000  0002[           local _rx_string_2 db 2 dup(?)	; 0,2
            00
            ]
 123  0002              #pragma debug variable 7 9 _rx_string_2+1 "w"
 123  0000  0F0A        	mov a,10
 123  0001  0080     R  	mov _rx_string_2[0],a
 125  0002              #line 125 "C:\Users\bet\Desktop\APP\UART.c"
 125  0002  1F00     R  	clr _rx_string_2[1]
 125  0003              _L24:
 127  0003              #line 127 "C:\Users\bet\Desktop\APP\UART.c"
 127  0003              	fcall _PC_RX
 127  000A  0080     E  	mov ra,a
 127  000B  3400     E  	clr ra.7
 127  000C  0700     R  	mov a,_rx_string_2[1]
 127  000D  0080     E  	mov rb,a
 127  000E  1F00     E  	clr rc
 127  000F  3F85        	sz acc.7
 127  0010  1F80     E  	set rc
 127  0011  0F00     R  	mov a,low offset _output
 127  0012  0300     E  	add a,rb
 127  0013  0083        	mov mp,a
 127  0014  0F00     R  	mov a,high offset _output
 127  0015  1300     E  	adc a,rc
 127  0016  0084        	mov sbp,a
 127  0017  0700     E  	mov a,ra
 127  0018  0082        	mov ir,a
 128  0019              #line 128 "C:\Users\bet\Desktop\APP\UART.c"
 128  0019  0700     E  	mov a,ra
 128  001A  0A0D        	sub a,13
 128  001B  3D0A        	sz z
 128  001C  2800     R  	jmp _L22
 125  001D              #line 125 "C:\Users\bet\Desktop\APP\UART.c"
 125  001D  1480     R  	inc _rx_string_2[1]
 125  001E  1780     R  	sdz _rx_string_2[0]
 125  001F  2800     R  	jmp _L24
 125  0020              _L22:
 125  0020  0003        	ret
 125  0021              _rx_string endp
 125  0021              #line 125 "C:\Users\bet\Desktop\APP\UART.c"
 125  0021              #pragma debug scope 1 1
 125  0021              public _PC_TX
 125  0021              #pragma debug scope 10 1
 132  0021              #line 132 "C:\Users\bet\Desktop\APP\UART.c"
 132  0000              _PC_TX .section 'code'
 132  0000              _PC_TX proc
 132  0000  00              local _PC_TX_2 db 1 dup(?)	; 0,1
 132  0000  0080     R  	mov _PC_TX_2[0],a
 132  0001              #pragma debug variable 7 10 _PC_TX_2+0 "da"
 135  0001              #line 135 "C:\Users\bet\Desktop\APP\UART.c"
 135  0001  34A2        	clr [34].1
"File: UART.c        Assembler  Version HGASM0202      Page 14

 135  0002              ;# 135 "C:\Users\bet\Desktop\APP\UART.c" 1
 135  0002              	IF 205>263690
 135  0002              ;# 135 "C:\Users\bet\Desktop\APP\UART.c" 1
 135  0002              	ERRMESSAGE 'the value 205of the argument exceeds the maxinum 263690'
 135  0002              	ENDIF
 135  0002              ;# 135 "C:\Users\bet\Desktop\APP\UART.c" 1
 135  0002              	IF 205<0
 135  0002              ;# 135 "C:\Users\bet\Desktop\APP\UART.c" 1
 135  0002              	ERRMESSAGE 'the value 205 of the argument exceeds the mininum 0'
 135  0002              	ENDIF
 135  0002              ;# 135 "C:\Users\bet\Desktop\APP\UART.c" 1
 135  0002              	IF 205==0
 135  0002              ;# 135 "C:\Users\bet\Desktop\APP\UART.c" 1
 135  0002              	JMP $
 135  0002              	ENDIF
 135  0002              ;# 135 "C:\Users\bet\Desktop\APP\UART.c" 1
 135  0002              	IF (205>=1) AND (205<( 4 + __PBP__ * 2))
 135  0002              ;# 135 "C:\Users\bet\Desktop\APP\UART.c" 1
 135  0002              	NOP
 135  0002              	ENDIF
 135  0002              ;# 135 "C:\Users\bet\Desktop\APP\UART.c" 1
 135  0002              	IF (205>=2) AND (205<( 4 + __PBP__ * 2))
 135  0002              ;# 135 "C:\Users\bet\Desktop\APP\UART.c" 1
 135  0002              	NOP
 135  0002              	ENDIF
 135  0002              ;# 135 "C:\Users\bet\Desktop\APP\UART.c" 1
 135  0002              	IF (205>=3) AND (205<( 4 + __PBP__ * 2))
 135  0002              ;# 135 "C:\Users\bet\Desktop\APP\UART.c" 1
 135  0002              	NOP
 135  0002              	ENDIF
 135  0002              ;# 135 "C:\Users\bet\Desktop\APP\UART.c" 1
 135  0002              	IF (205>=4) AND (205<( 4 + __PBP__ * 2)) AND ( __PBP__ > 0 )
 135  0002              ;# 135 "C:\Users\bet\Desktop\APP\UART.c" 1
 135  0002              	NOP
 135  0002              	ENDIF
 135  0002              ;# 135 "C:\Users\bet\Desktop\APP\UART.c" 1
 135  0002              	IF (205>=5) AND (205<( 4 + __PBP__ * 2)) AND ( __PBP__ > 0 )
 135  0002              ;# 135 "C:\Users\bet\Desktop\APP\UART.c" 1
 135  0002              	NOP
 135  0002              	ENDIF
 135  0002              ;# 135 "C:\Users\bet\Desktop\APP\UART.c" 1
 135  0002              	IF (205>=6) AND (205<( 4 + __PBP__ * 2))  AND ( __PBP__ > 1 )
 135  0002              ;# 135 "C:\Users\bet\Desktop\APP\UART.c" 1
 135  0002              	NOP
 135  0002              	ENDIF
 135  0002              ;# 135 "C:\Users\bet\Desktop\APP\UART.c" 1
 135  0002              	IF (205>=7) AND (205<( 4 + __PBP__ * 2))  AND ( __PBP__ > 1 )
 135  0002              ;# 135 "C:\Users\bet\Desktop\APP\UART.c" 1
 135  0002              	NOP
 135  0002              	ENDIF
 135  0002              ;# 135 "C:\Users\bet\Desktop\APP\UART.c" 1
 135  0002              	IF (205>=8) AND (205<( 4 + __PBP__ * 2))  AND ( __PBP__ > 2 )
 135  0002              ;# 135 "C:\Users\bet\Desktop\APP\UART.c" 1
 135  0002              	NOP
 135  0002              	ENDIF
 135  0002              ;# 135 "C:\Users\bet\Desktop\APP\UART.c" 1
 135  0002              	IF (205==9)  AND ( __PBP__ > 2 )
 135  0002              ;# 135 "C:\Users\bet\Desktop\APP\UART.c" 1
 135  0002              	NOP
 135  0002              	ENDIF
"File: UART.c        Assembler  Version HGASM0202      Page 15

 135  0002              ;# 135 "C:\Users\bet\Desktop\APP\UART.c" 1
 135  0002              	IF (205< ( 8 + __PBP__ * 2)) AND (205>( 3 + __PBP__ * 2))
 135  0002              ;# 135 "C:\Users\bet\Desktop\APP\UART.c" 1
 135  0002              	fcall __DELAY3 + ( 7 + __PBP__ * 2) -205
 135  0002              	ENDIF
 135  0002              ;# 135 "C:\Users\bet\Desktop\APP\UART.c" 1
 135  0002              	IF (205< ( 0404h + __PBP__ * 2)) AND (205>( 7 + __PBP__ * 2))
 135  0002              ;# 135 "C:\Users\bet\Desktop\APP\UART.c" 1
 135  0002  0F31        	MOV A,(205-( 4 + __PBP__ * 2))/4
 135  0003              ;# 135 "C:\Users\bet\Desktop\APP\UART.c" 1
 135  0003              	fcall __DELAYX3 + 3 -((205-( 4 + __PBP__ * 2)) MOD 4) 
 135  000A              	ENDIF
 135  000A              ;# 135 "C:\Users\bet\Desktop\APP\UART.c" 1
 135  000A              	IF (205< ( 040bh + __PBP__ * 2)) AND (205> ( 0403h + __PBP__ * 2))
 135  000A              ;# 135 "C:\Users\bet\Desktop\APP\UART.c" 1
 135  000A              	MOV A,0 
 135  000A              ;# 135 "C:\Users\bet\Desktop\APP\UART.c" 1
 135  000A              	fcall __DELAYX6 + ( 040ah + __PBP__ * 2) -205
 135  000A              	ENDIF
 135  000A              ;# 135 "C:\Users\bet\Desktop\APP\UART.c" 1
 135  000A              	IF (205 >= ( 040bh + __PBP__ * 2)) AND ((((205-( 9 + __PBP__ * 2))%0402h)/4+1)>256)
 135  000A              ;# 135 "C:\Users\bet\Desktop\APP\UART.c" 1
 135  000A              	MOV A,(205-( 9 + __PBP__ * 2))/0402h
 135  000A              ;# 135 "C:\Users\bet\Desktop\APP\UART.c" 1
 135  000A              	MOV _builtin_holtek_delay_2,A
 135  000A              ;# 135 "C:\Users\bet\Desktop\APP\UART.c" 1
 135  000A              	MOV A,0
 135  000A              ;# 135 "C:\Users\bet\Desktop\APP\UART.c" 1
 135  000A              	fcall __DELAYY5 +5- (((205-( 9 + __PBP__ * 2))%0402h)%6) 
 135  000A              	ENDIF
 135  000A              ;# 135 "C:\Users\bet\Desktop\APP\UART.c" 1
 135  000A              	IF (205 >= ( 040bh + __PBP__ * 2)) AND ((((205-( 9 + __PBP__ * 2))%0402h)/4+1)<=256)
 135  000A              ;# 135 "C:\Users\bet\Desktop\APP\UART.c" 1
 135  000A              	MOV A,(205-( 9 + __PBP__ * 2))/0402h
 135  000A              ;# 135 "C:\Users\bet\Desktop\APP\UART.c" 1
 135  000A              	MOV _builtin_holtek_delay_2,A
 135  000A              ;# 135 "C:\Users\bet\Desktop\APP\UART.c" 1
 135  000A              	MOV A,((205-( 9 + __PBP__ * 2))%0402h)/4+1
 135  000A              ;# 135 "C:\Users\bet\Desktop\APP\UART.c" 1
 135  000A              	fcall __DELAYY3 +3-(((205-( 9 + __PBP__ * 2))%0402h)%4) 
 135  000A              	ENDIF
 135  000A  0F08        	mov a,8
 135  000B  0080     E  	mov ra,a
 135  000C              _L35:
 138  000C              #line 138 "C:\Users\bet\Desktop\APP\UART.c"
 138  000C  3800     R  	snz _PC_TX_2[0].0
 138  000D  2800     R  	jmp _L32
 138  000E  30A2        	set [34].1
 138  000F  2800     R  	jmp _L33
 138  0010              _L32:
 139  0010              #line 139 "C:\Users\bet\Desktop\APP\UART.c"
 139  0010  34A2        	clr [34].1
 139  0011              _L33:
 140  0011              #line 140 "C:\Users\bet\Desktop\APP\UART.c"
 140  0011  1A00     R  	rlca _PC_TX_2[0]
 140  0012  1B80     R  	rrc _PC_TX_2[0]
 141  0013              #line 141 "C:\Users\bet\Desktop\APP\UART.c"
 141  0013              ;# 141 "C:\Users\bet\Desktop\APP\UART.c" 1
 141  0013              	IF 205-15>263690
 141  0013              ;# 141 "C:\Users\bet\Desktop\APP\UART.c" 1
"File: UART.c        Assembler  Version HGASM0202      Page 16

 141  0013              	ERRMESSAGE 'the value 205-15of the argument exceeds the maxinum 263690'
 141  0013              	ENDIF
 141  0013              ;# 141 "C:\Users\bet\Desktop\APP\UART.c" 1
 141  0013              	IF 205-15<0
 141  0013              ;# 141 "C:\Users\bet\Desktop\APP\UART.c" 1
 141  0013              	ERRMESSAGE 'the value 205-15 of the argument exceeds the mininum 0'
 141  0013              	ENDIF
 141  0013              ;# 141 "C:\Users\bet\Desktop\APP\UART.c" 1
 141  0013              	IF 205-15==0
 141  0013              ;# 141 "C:\Users\bet\Desktop\APP\UART.c" 1
 141  0013              	JMP $
 141  0013              	ENDIF
 141  0013              ;# 141 "C:\Users\bet\Desktop\APP\UART.c" 1
 141  0013              	IF (205-15>=1) AND (205-15<( 4 + __PBP__ * 2))
 141  0013              ;# 141 "C:\Users\bet\Desktop\APP\UART.c" 1
 141  0013              	NOP
 141  0013              	ENDIF
 141  0013              ;# 141 "C:\Users\bet\Desktop\APP\UART.c" 1
 141  0013              	IF (205-15>=2) AND (205-15<( 4 + __PBP__ * 2))
 141  0013              ;# 141 "C:\Users\bet\Desktop\APP\UART.c" 1
 141  0013              	NOP
 141  0013              	ENDIF
 141  0013              ;# 141 "C:\Users\bet\Desktop\APP\UART.c" 1
 141  0013              	IF (205-15>=3) AND (205-15<( 4 + __PBP__ * 2))
 141  0013              ;# 141 "C:\Users\bet\Desktop\APP\UART.c" 1
 141  0013              	NOP
 141  0013              	ENDIF
 141  0013              ;# 141 "C:\Users\bet\Desktop\APP\UART.c" 1
 141  0013              	IF (205-15>=4) AND (205-15<( 4 + __PBP__ * 2)) AND ( __PBP__ > 0 )
 141  0013              ;# 141 "C:\Users\bet\Desktop\APP\UART.c" 1
 141  0013              	NOP
 141  0013              	ENDIF
 141  0013              ;# 141 "C:\Users\bet\Desktop\APP\UART.c" 1
 141  0013              	IF (205-15>=5) AND (205-15<( 4 + __PBP__ * 2)) AND ( __PBP__ > 0 )
 141  0013              ;# 141 "C:\Users\bet\Desktop\APP\UART.c" 1
 141  0013              	NOP
 141  0013              	ENDIF
 141  0013              ;# 141 "C:\Users\bet\Desktop\APP\UART.c" 1
 141  0013              	IF (205-15>=6) AND (205-15<( 4 + __PBP__ * 2))  AND ( __PBP__ > 1 )
 141  0013              ;# 141 "C:\Users\bet\Desktop\APP\UART.c" 1
 141  0013              	NOP
 141  0013              	ENDIF
 141  0013              ;# 141 "C:\Users\bet\Desktop\APP\UART.c" 1
 141  0013              	IF (205-15>=7) AND (205-15<( 4 + __PBP__ * 2))  AND ( __PBP__ > 1 )
 141  0013              ;# 141 "C:\Users\bet\Desktop\APP\UART.c" 1
 141  0013              	NOP
 141  0013              	ENDIF
 141  0013              ;# 141 "C:\Users\bet\Desktop\APP\UART.c" 1
 141  0013              	IF (205-15>=8) AND (205-15<( 4 + __PBP__ * 2))  AND ( __PBP__ > 2 )
 141  0013              ;# 141 "C:\Users\bet\Desktop\APP\UART.c" 1
 141  0013              	NOP
 141  0013              	ENDIF
 141  0013              ;# 141 "C:\Users\bet\Desktop\APP\UART.c" 1
 141  0013              	IF (205-15==9)  AND ( __PBP__ > 2 )
 141  0013              ;# 141 "C:\Users\bet\Desktop\APP\UART.c" 1
 141  0013              	NOP
 141  0013              	ENDIF
 141  0013              ;# 141 "C:\Users\bet\Desktop\APP\UART.c" 1
 141  0013              	IF (205-15< ( 8 + __PBP__ * 2)) AND (205-15>( 3 + __PBP__ * 2))
 141  0013              ;# 141 "C:\Users\bet\Desktop\APP\UART.c" 1
"File: UART.c        Assembler  Version HGASM0202      Page 17

 141  0013              	fcall __DELAY3 + ( 7 + __PBP__ * 2) -205-15
 141  0013              	ENDIF
 141  0013              ;# 141 "C:\Users\bet\Desktop\APP\UART.c" 1
 141  0013              	IF (205-15< ( 0404h + __PBP__ * 2)) AND (205-15>( 7 + __PBP__ * 2))
 141  0013              ;# 141 "C:\Users\bet\Desktop\APP\UART.c" 1
 141  0013  0F2D        	MOV A,(205-15-( 4 + __PBP__ * 2))/4
 141  0014              ;# 141 "C:\Users\bet\Desktop\APP\UART.c" 1
 141  0014              	fcall __DELAYX3 + 3 -((205-15-( 4 + __PBP__ * 2)) MOD 4) 
 141  001B              	ENDIF
 141  001B              ;# 141 "C:\Users\bet\Desktop\APP\UART.c" 1
 141  001B              	IF (205-15< ( 040bh + __PBP__ * 2)) AND (205-15> ( 0403h + __PBP__ * 2))
 141  001B              ;# 141 "C:\Users\bet\Desktop\APP\UART.c" 1
 141  001B              	MOV A,0 
 141  001B              ;# 141 "C:\Users\bet\Desktop\APP\UART.c" 1
 141  001B              	fcall __DELAYX6 + ( 040ah + __PBP__ * 2) -205-15
 141  001B              	ENDIF
 141  001B              ;# 141 "C:\Users\bet\Desktop\APP\UART.c" 1
 141  001B              	IF (205-15 >= ( 040bh + __PBP__ * 2)) AND ((((205-15-( 9 + __PBP__ * 2))%0402h)/4+1)>256)
 141  001B              ;# 141 "C:\Users\bet\Desktop\APP\UART.c" 1
 141  001B              	MOV A,(205-15-( 9 + __PBP__ * 2))/0402h
 141  001B              ;# 141 "C:\Users\bet\Desktop\APP\UART.c" 1
 141  001B              	MOV _builtin_holtek_delay_2,A
 141  001B              ;# 141 "C:\Users\bet\Desktop\APP\UART.c" 1
 141  001B              	MOV A,0
 141  001B              ;# 141 "C:\Users\bet\Desktop\APP\UART.c" 1
 141  001B              	fcall __DELAYY5 +5- (((205-15-( 9 + __PBP__ * 2))%0402h)%6) 
 141  001B              	ENDIF
 141  001B              ;# 141 "C:\Users\bet\Desktop\APP\UART.c" 1
 141  001B              	IF (205-15 >= ( 040bh + __PBP__ * 2)) AND ((((205-15-( 9 + __PBP__ * 2))%0402h)/4+1)<=256)
 141  001B              ;# 141 "C:\Users\bet\Desktop\APP\UART.c" 1
 141  001B              	MOV A,(205-15-( 9 + __PBP__ * 2))/0402h
 141  001B              ;# 141 "C:\Users\bet\Desktop\APP\UART.c" 1
 141  001B              	MOV _builtin_holtek_delay_2,A
 141  001B              ;# 141 "C:\Users\bet\Desktop\APP\UART.c" 1
 141  001B              	MOV A,((205-15-( 9 + __PBP__ * 2))%0402h)/4+1
 141  001B              ;# 141 "C:\Users\bet\Desktop\APP\UART.c" 1
 141  001B              	fcall __DELAYY3 +3-(((205-15-( 9 + __PBP__ * 2))%0402h)%4) 
 141  001B              	ENDIF
 141  001B  1780     E  	sdz ra
 141  001C  2800     R  	jmp _L35
 143  001D              #line 143 "C:\Users\bet\Desktop\APP\UART.c"
 143  001D  30A2        	set [34].1
 143  001E              ;# 143 "C:\Users\bet\Desktop\APP\UART.c" 1
 143  001E              	IF 205>263690
 143  001E              ;# 143 "C:\Users\bet\Desktop\APP\UART.c" 1
 143  001E              	ERRMESSAGE 'the value 205of the argument exceeds the maxinum 263690'
 143  001E              	ENDIF
 143  001E              ;# 143 "C:\Users\bet\Desktop\APP\UART.c" 1
 143  001E              	IF 205<0
 143  001E              ;# 143 "C:\Users\bet\Desktop\APP\UART.c" 1
 143  001E              	ERRMESSAGE 'the value 205 of the argument exceeds the mininum 0'
 143  001E              	ENDIF
 143  001E              ;# 143 "C:\Users\bet\Desktop\APP\UART.c" 1
 143  001E              	IF 205==0
 143  001E              ;# 143 "C:\Users\bet\Desktop\APP\UART.c" 1
 143  001E              	JMP $
 143  001E              	ENDIF
 143  001E              ;# 143 "C:\Users\bet\Desktop\APP\UART.c" 1
 143  001E              	IF (205>=1) AND (205<( 4 + __PBP__ * 2))
 143  001E              ;# 143 "C:\Users\bet\Desktop\APP\UART.c" 1
"File: UART.c        Assembler  Version HGASM0202      Page 18

 143  001E              	NOP
 143  001E              	ENDIF
 143  001E              ;# 143 "C:\Users\bet\Desktop\APP\UART.c" 1
 143  001E              	IF (205>=2) AND (205<( 4 + __PBP__ * 2))
 143  001E              ;# 143 "C:\Users\bet\Desktop\APP\UART.c" 1
 143  001E              	NOP
 143  001E              	ENDIF
 143  001E              ;# 143 "C:\Users\bet\Desktop\APP\UART.c" 1
 143  001E              	IF (205>=3) AND (205<( 4 + __PBP__ * 2))
 143  001E              ;# 143 "C:\Users\bet\Desktop\APP\UART.c" 1
 143  001E              	NOP
 143  001E              	ENDIF
 143  001E              ;# 143 "C:\Users\bet\Desktop\APP\UART.c" 1
 143  001E              	IF (205>=4) AND (205<( 4 + __PBP__ * 2)) AND ( __PBP__ > 0 )
 143  001E              ;# 143 "C:\Users\bet\Desktop\APP\UART.c" 1
 143  001E              	NOP
 143  001E              	ENDIF
 143  001E              ;# 143 "C:\Users\bet\Desktop\APP\UART.c" 1
 143  001E              	IF (205>=5) AND (205<( 4 + __PBP__ * 2)) AND ( __PBP__ > 0 )
 143  001E              ;# 143 "C:\Users\bet\Desktop\APP\UART.c" 1
 143  001E              	NOP
 143  001E              	ENDIF
 143  001E              ;# 143 "C:\Users\bet\Desktop\APP\UART.c" 1
 143  001E              	IF (205>=6) AND (205<( 4 + __PBP__ * 2))  AND ( __PBP__ > 1 )
 143  001E              ;# 143 "C:\Users\bet\Desktop\APP\UART.c" 1
 143  001E              	NOP
 143  001E              	ENDIF
 143  001E              ;# 143 "C:\Users\bet\Desktop\APP\UART.c" 1
 143  001E              	IF (205>=7) AND (205<( 4 + __PBP__ * 2))  AND ( __PBP__ > 1 )
 143  001E              ;# 143 "C:\Users\bet\Desktop\APP\UART.c" 1
 143  001E              	NOP
 143  001E              	ENDIF
 143  001E              ;# 143 "C:\Users\bet\Desktop\APP\UART.c" 1
 143  001E              	IF (205>=8) AND (205<( 4 + __PBP__ * 2))  AND ( __PBP__ > 2 )
 143  001E              ;# 143 "C:\Users\bet\Desktop\APP\UART.c" 1
 143  001E              	NOP
 143  001E              	ENDIF
 143  001E              ;# 143 "C:\Users\bet\Desktop\APP\UART.c" 1
 143  001E              	IF (205==9)  AND ( __PBP__ > 2 )
 143  001E              ;# 143 "C:\Users\bet\Desktop\APP\UART.c" 1
 143  001E              	NOP
 143  001E              	ENDIF
 143  001E              ;# 143 "C:\Users\bet\Desktop\APP\UART.c" 1
 143  001E              	IF (205< ( 8 + __PBP__ * 2)) AND (205>( 3 + __PBP__ * 2))
 143  001E              ;# 143 "C:\Users\bet\Desktop\APP\UART.c" 1
 143  001E              	fcall __DELAY3 + ( 7 + __PBP__ * 2) -205
 143  001E              	ENDIF
 143  001E              ;# 143 "C:\Users\bet\Desktop\APP\UART.c" 1
 143  001E              	IF (205< ( 0404h + __PBP__ * 2)) AND (205>( 7 + __PBP__ * 2))
 143  001E              ;# 143 "C:\Users\bet\Desktop\APP\UART.c" 1
 143  001E  0F31        	MOV A,(205-( 4 + __PBP__ * 2))/4
 143  001F              ;# 143 "C:\Users\bet\Desktop\APP\UART.c" 1
 143  001F              	fcall __DELAYX3 + 3 -((205-( 4 + __PBP__ * 2)) MOD 4) 
 143  0026              	ENDIF
 143  0026              ;# 143 "C:\Users\bet\Desktop\APP\UART.c" 1
 143  0026              	IF (205< ( 040bh + __PBP__ * 2)) AND (205> ( 0403h + __PBP__ * 2))
 143  0026              ;# 143 "C:\Users\bet\Desktop\APP\UART.c" 1
 143  0026              	MOV A,0 
 143  0026              ;# 143 "C:\Users\bet\Desktop\APP\UART.c" 1
 143  0026              	fcall __DELAYX6 + ( 040ah + __PBP__ * 2) -205
"File: UART.c        Assembler  Version HGASM0202      Page 19

 143  0026              	ENDIF
 143  0026              ;# 143 "C:\Users\bet\Desktop\APP\UART.c" 1
 143  0026              	IF (205 >= ( 040bh + __PBP__ * 2)) AND ((((205-( 9 + __PBP__ * 2))%0402h)/4+1)>256)
 143  0026              ;# 143 "C:\Users\bet\Desktop\APP\UART.c" 1
 143  0026              	MOV A,(205-( 9 + __PBP__ * 2))/0402h
 143  0026              ;# 143 "C:\Users\bet\Desktop\APP\UART.c" 1
 143  0026              	MOV _builtin_holtek_delay_2,A
 143  0026              ;# 143 "C:\Users\bet\Desktop\APP\UART.c" 1
 143  0026              	MOV A,0
 143  0026              ;# 143 "C:\Users\bet\Desktop\APP\UART.c" 1
 143  0026              	fcall __DELAYY5 +5- (((205-( 9 + __PBP__ * 2))%0402h)%6) 
 143  0026              	ENDIF
 143  0026              ;# 143 "C:\Users\bet\Desktop\APP\UART.c" 1
 143  0026              	IF (205 >= ( 040bh + __PBP__ * 2)) AND ((((205-( 9 + __PBP__ * 2))%0402h)/4+1)<=256)
 143  0026              ;# 143 "C:\Users\bet\Desktop\APP\UART.c" 1
 143  0026              	MOV A,(205-( 9 + __PBP__ * 2))/0402h
 143  0026              ;# 143 "C:\Users\bet\Desktop\APP\UART.c" 1
 143  0026              	MOV _builtin_holtek_delay_2,A
 143  0026              ;# 143 "C:\Users\bet\Desktop\APP\UART.c" 1
 143  0026              	MOV A,((205-( 9 + __PBP__ * 2))%0402h)/4+1
 143  0026              ;# 143 "C:\Users\bet\Desktop\APP\UART.c" 1
 143  0026              	fcall __DELAYY3 +3-(((205-( 9 + __PBP__ * 2))%0402h)%4) 
 143  0026              	ENDIF
 143  0026  0003        	ret
 143  0027              _PC_TX endp
 143  0027              #line 143 "C:\Users\bet\Desktop\APP\UART.c"
 143  0027              #pragma debug scope 1 1
 143  0027              ___wdtc equ [62]
 143  0027              ___adcr1 equ [105]
 143  0027              ___pas1 equ [353]
 143  0027              ___intc0 equ [48]
 143  0027              public _main
 143  0027              #pragma debug scope 11 1
  27  0027              #line 27 "C:\Users\bet\Desktop\APP\UART.c"
  27  0027              IFDEF WITH_DEFAULT_STARTUP
  27  0027              extern _main_initial0:near
  27  0027              extern _main_startup:near
  27  0027              ENDIF
  27  0027              
  27  0027              ROMBANK 0 @start
  27  0000              @start .section com_l 'code'
  27  0000              _main_startup1:
  27  0000              @start .section com_e 'code'
  27  0000  0F00     R  	mov a,bank _main
  27  0001  008B        	mov bp,a
  27  0002  2800     R  	jmp _main
  27  0003              
  27  0000              _main .section 'code'
  27  0000              _main proc
  29  0000              #line 29 "C:\Users\bet\Desktop\APP\UART.c"
  29  0000              	fcall _UART_init
  30  0007              #line 30 "C:\Users\bet\Desktop\APP\UART.c"
  30  0007  0FAF        	mov a,175
  30  0008  00BE        	mov [62],a
  32  0009              #line 32 "C:\Users\bet\Desktop\APP\UART.c"
  32  0009  0F03        	mov a,3
  32  000A  00E8        	mov [104],a
  33  000B              #line 33 "C:\Users\bet\Desktop\APP\UART.c"
  33  000B  0F06        	mov a,6
  33  000C  00E9        	mov [105],a
"File: UART.c        Assembler  Version HGASM0202      Page 20

  34  000D              #line 34 "C:\Users\bet\Desktop\APP\UART.c"
  34  000D  0F30        	mov a,48
  34  000E  80E1 0001   	lmov [353],a
  35  0010              #line 35 "C:\Users\bet\Desktop\APP\UART.c"
  35  0010  31B1        	set [49].3
  35  0011  3030        	set [48].0
  36  0012              #line 36 "C:\Users\bet\Desktop\APP\UART.c"
  36  0012  33E8        	set [104].7
  37  0013              #line 37 "C:\Users\bet\Desktop\APP\UART.c"
  37  0013  37E8        	clr [104].7
  37  0014              _L37:
  45  0014              #line 45 "C:\Users\bet\Desktop\APP\UART.c"
  45  0014  31B1        	set [49].3
  46  0015              #line 46 "C:\Users\bet\Desktop\APP\UART.c"
  46  0015  0F57        	mov a,87
  46  0016              	fcall _PC_TX
  47  001D              #line 47 "C:\Users\bet\Desktop\APP\UART.c"
  47  001D  0FE8        	mov a,-24
  47  001E  0080     R  	mov _Delay100us_2[0],a
  47  001F  0F03        	mov a,3
  47  0020  0080     R  	mov _Delay100us_2[1],a
  47  0021              	fcall _Delay100us
  48  0028              #line 48 "C:\Users\bet\Desktop\APP\UART.c"
  48  0028  0700     R  	mov a,_e[1]
  48  0029              	fcall _PC_TX
  49  0030              #line 49 "C:\Users\bet\Desktop\APP\UART.c"
  49  0030  0FE8        	mov a,-24
  49  0031  0080     R  	mov _Delay100us_2[0],a
  49  0032  0F03        	mov a,3
  49  0033  0080     R  	mov _Delay100us_2[1],a
  49  0034              	fcall _Delay100us
  50  003B              #line 50 "C:\Users\bet\Desktop\APP\UART.c"
  50  003B  0700     R  	mov a,_e[0]
  50  003C              	fcall _PC_TX
  51  0043              #line 51 "C:\Users\bet\Desktop\APP\UART.c"
  51  0043  0FE8        	mov a,-24
  51  0044  0080     R  	mov _Delay100us_2[0],a
  51  0045  0F03        	mov a,3
  51  0046  0080     R  	mov _Delay100us_2[1],a
  51  0047              	fcall _Delay100us
  52  004E              #line 52 "C:\Users\bet\Desktop\APP\UART.c"
  52  004E  0F41        	mov a,65
  52  004F              	fcall _PC_TX
  53  0056              #line 53 "C:\Users\bet\Desktop\APP\UART.c"
  53  0056  0FE8        	mov a,-24
  53  0057  0080     R  	mov _Delay100us_2[0],a
  53  0058  0F03        	mov a,3
  53  0059  0080     R  	mov _Delay100us_2[1],a
  53  005A              	fcall _Delay100us
  53  0061  2800     R  	jmp _L37
  53  0062  2800     R  	jmp $
  53  0063              _main endp
  53  0063              
  53  0063              @dummy endp
  53  0063              
  53  0063              #line 53 "C:\Users\bet\Desktop\APP\UART.c"
  53  0063              #pragma debug scope 1 1
  53  0063              public _tx_string
  53  0063              #pragma debug scope 12 1
 146  0063              #line 146 "C:\Users\bet\Desktop\APP\UART.c"
"File: UART.c        Assembler  Version HGASM0202      Page 21

 146  0000              _tx_string .section 'code'
 146  0000              _tx_string proc
 146  0000              public _tx_string_2
 146  0000  0004[           local _tx_string_2 db 4 dup(?)	; 2,2
            00
            ]
 146  0004              #pragma debug pointer 42 7 12
 146  0004              #pragma debug pointer 42 7 12
 146  0004              #pragma debug variable 42 12 _tx_string_2+0 "data"
 146  0004              #pragma debug variable 7 12 _tx_string_2+3 "test"
 146  0000  0F09        	mov a,9
 146  0001  0080     R  	mov _tx_string_2[2],a
 148  0002              #line 148 "C:\Users\bet\Desktop\APP\UART.c"
 148  0002  1F00     R  	clr _tx_string_2[3]
 148  0003              _L40:
 150  0003              #line 150 "C:\Users\bet\Desktop\APP\UART.c"
 150  0003  0700     R  	mov a,_tx_string_2[3]
 150  0004  0080     E  	mov rb,a
 150  0005  1F00     E  	clr rc
 150  0006  3F85        	sz acc.7
 150  0007  1F80     E  	set rc
 150  0008  0700     E  	mov a,rb
 150  0009  0300     R  	add a,_tx_string_2[0]
 150  000A  0083        	mov mp,a
 150  000B  0700     E  	mov a,rc
 150  000C  1300     R  	adc a,_tx_string_2[1]
 150  000D  0084        	mov sbp,a
 150  000E              	fcall _Crom2Prom
 150  0015              	fcall _PC_TX
 148  001C              #line 148 "C:\Users\bet\Desktop\APP\UART.c"
 148  001C  1480     R  	inc _tx_string_2[3]
 148  001D  1780     R  	sdz _tx_string_2[2]
 148  001E  2800     R  	jmp _L40
 148  001F  0003        	ret
 148  0020              _tx_string endp
 148  0020              #line 148 "C:\Users\bet\Desktop\APP\UART.c"
 148  0020              #pragma debug scope 1 1
  25  0020              #line 25 "C:\Users\bet\Desktop\APP\UART.c"
  25  0020              public _kk
  25  0000              @HCCINIT0_kk .section 'data'
  25  0000              _kk	db 0
  25  0001              #pragma debug variable 7 1 _kk "kk"
  25  0001              
  25  0000              @HCCINIT .section 'data'
  24  0000              #line 24 "C:\Users\bet\Desktop\APP\UART.c"
  24  0000              public _e
  24  0000              @HCCINIT0_e .section 'data'
  24  0000  0002[       _e	db 2 dup(0)
            00
            ]
  24  0002              #pragma debug array 43 7 2 1
  24  0002              #pragma debug array 43 7 2 1
  24  0002              #pragma debug variable 43 1 _e "e"
  24  0002              
  24  0000              @HCCINIT .section 'data'
  19  0000              #line 19 "C:\Users\bet\Desktop\APP\UART.c"
  19  0000              public _output
  19  0000              @HCCINIT0_output .section 'data'
  19  0000  0032[       _output	db 50 dup(0)
            00
"File: UART.c        Assembler  Version HGASM0202      Page 22

            ]
  19  0032              #pragma debug array 44 7 50 1
  19  0032              #pragma debug array 44 7 50 1
  19  0032              #pragma debug variable 44 1 _output "output"
  19  0032              
  19  0000              @HCCINIT .section 'data'
  19  0000              public _output1
  19  0000              @HCCINIT	.section 'data'
  15  0000              #line 15 "C:\Users\bet\Desktop\APP\UART.c"
  15  0000              @HCCINIT_output1 .section 'data'
  15  0000              _output1 label byte
  15  0000              #pragma debug array 45 7 4 1
  15  0000              #pragma debug array 45 7 4 1
  15  0000              #pragma debug variable 45 1 _output1 "output1"
  15  0000              	db 48
  15  0000              @ROMDATA_BASE .section inpage 'code'
  15  0000              	db 48
  15  0001              @HCCINIT_output1 .section 'data'
  15  0001              	db 49
  15  0001              @ROMDATA_BASE .section inpage 'code'
  15  0001              	db 49
  15  0002              @HCCINIT_output1 .section 'data'
  15  0002              	db 0
  15  0001              @ROMDATA_BASE .section inpage 'code'
  15  0001              	db 0
  15  0003              @HCCINIT_output1 .section 'data'
  15  0003              	db 0
  15  0002              @ROMDATA_BASE .section inpage 'code'
  15  0002              	db 0
  15  0004              @HCCINIT_output1 .section 'data'
  15  0004              #pragma debug struct_end
  15  0004              #pragma debug struct_end
  15  0004              #pragma debug union_end
  15  0004              #pragma debug union_end
  15  0004              #pragma debug variable 47 1 ___pe "__pe" 1
  15  0004              #pragma debug struct_end
  15  0004              #pragma debug struct_end
  15  0004              #pragma debug union_end
  15  0004              #pragma debug union_end
  15  0004              #pragma debug variable 49 1 ___pec "__pec" 1
  15  0004              #pragma debug struct_end
  15  0004              #pragma debug struct_end
  15  0004              #pragma debug union_end
  15  0004              #pragma debug union_end
  15  0004              #pragma debug variable 51 1 ___intc0 "__intc0" 1
  15  0004              #pragma debug struct_end
  15  0004              #pragma debug struct_end
  15  0004              #pragma debug union_end
  15  0004              #pragma debug union_end
  15  0004              #pragma debug variable 53 1 ___intc1 "__intc1" 1
  15  0004              #pragma debug struct_end
  15  0004              #pragma debug struct_end
  15  0004              #pragma debug union_end
  15  0004              #pragma debug union_end
  15  0004              #pragma debug variable 55 1 ___wdtc "__wdtc" 1
  15  0004              #pragma debug struct_end
  15  0004              #pragma debug struct_end
  15  0004              #pragma debug union_end
  15  0004              #pragma debug union_end
  15  0004              #pragma debug variable 57 1 ___adcr0 "__adcr0" 1
"File: UART.c        Assembler  Version HGASM0202      Page 23

  15  0004              #pragma debug struct_end
  15  0004              #pragma debug struct_end
  15  0004              #pragma debug union_end
  15  0004              #pragma debug union_end
  15  0004              #pragma debug variable 59 1 ___adcr1 "__adcr1" 1
  15  0004              #pragma debug variable 8 1 ___adrl "__adrl" 1
  15  0004              #pragma debug variable 8 1 ___adrh "__adrh" 1
  15  0004              #pragma debug struct_end
  15  0004              #pragma debug struct_end
  15  0004              #pragma debug union_end
  15  0004              #pragma debug union_end
  15  0004              #pragma debug variable 61 1 ___pas1 "__pas1" 1
  15  0004              extern r1:byte
  15  0004              extern r2:byte
  15  0004              extern r3:byte
  27  0004              #line 27 "C:\Users\bet\Desktop\APP\UART.c"
  27  0000              @code .section at 0 'code'
  27  0000  1F0B        	clr bp
  27  0001  2800     R  	jmp _main_startup1
  27  0002              
  27  0002              extern _builtin_holtek_divmodhi4:near
  27  0002              extern _builtin_holtek_udivmodhi4_2:byte
  27  0002              extern _builtin_holtek_udivmodhi4:near
  27  0002              
  27  0002              ; 
  27  0002              ; Generated by holtek-gcc v3.13, Thu Nov 17 21:13:05 2016
  27  0002              ; Rebuild 71
  27  0002              ; end of file


        0 Errors, 0