"File: HT66F70A.c    Assembler  Version HGASM0202      Page 1


   1  0000              ; Generated by holtek-gcc v3.17, Thu Oct 12 13:32:21 2017
   2  0000              ; 
   3  0000              ; Configuration:
   4  0000              ;       with long instruction
   5  0000              ;       Multi-ROM, Multi-RAM
   6  0000              ;       bits_per_rom_unit:16
   7  0000              ;       with mp1
   8  0000              ;       with tbhp, address(0x9)
   9  0000              ;          Use tabrd-const
  10  0000              ;       
  11  0000              ; SFR address of long-instruction arch:
  12  0000              ;    mp0 = -1,1,0
  13  0000              ;    mp1 = 4,3,2
  14  0000              ;    mp2 = 14,13,12
  15  0000              ;    tbp = 9,7,8
  16  0000              ;    acc = 5
  17  0000              ;    pcl = 6
  18  0000              ;    status = 10
  19  0000              ;    bp = 11
  20  0000              ;    intc = 48
  21  0000              ;       
  22  0000              ;       
  23  0000              ; use 'tabrdc' instead of 'tabrd'
  24  0000              ;       
  25  0000              
  26  0000              #pragma translator "holtek-gcc 4.6.4" "3.17" "build 20130711"
  27  0000              ; Rebuild 307
  28  0000              
  29  0000              ir equ [2]
  30  0000              mp equ [3]
  31  0000              sbp equ [4]
  32  0000              acc equ [5]
  33  0000              bp equ [11]
  34  0000              tblp equ [7]
  35  0000              tbhp equ [9]
  36  0000              status equ [10]
  37  0000              c equ [10].0
  38  0000              ac equ [10].1
  39  0000              z equ [10].2
  40  0000              ov equ [10].3
  41  0000              cz equ [10].6
  42  0000              sc equ [10].7
  43  0000              intc equ [48]
  44  0000              
  45  0000              extern ra:byte
  46  0000              extern rb:byte
  47  0000              extern rc:byte
  48  0000              extern rd:byte
  49  0000              extern re:byte
  50  0000              extern rf:byte
  51  0000              extern rg:byte
  52  0000              extern rh:byte
  53  0000              extern _Crom2Prom:near
  54  0000              extern _Crom2PromNext:near
  55  0000              
  56  0000              RAMBANK 0 @BITDATASEC, @BITDATASEC1
  57  0000              @HCCINIT	.section 'data'
  58  0000              @HCCINIT0	.section 'data'
  59  0000              @BITDATASEC	 .section 'data'
"File: HT66F70A.ASM  Assembler  Version HGASM0202      Page 2

  60  0000              @BITDATASEC1	 .section 'data'
  61  0000              
  62  0000              #pragma debug scope 1 1
  63  0000              	extern __DELAY3:near
  64  0000              	extern __DELAYX3:near
  65  0000              	extern __DELAYX6:near
  66  0000              	extern __DELAYY5:near
  67  0000              	extern __DELAYY3:near
  68  0000              	extern _builtin_holtek_delay_2:byte
  69  0000              public _LED_Delay
  70  0000              #pragma debug scope 2 1

  23  0000              #line 23 "C:\Users\SA\Desktop\VR回饋TIMER\HT66F70A.c"
  23  0000              _LED_Delay .section 'code'
  23  0000              _LED_Delay proc
  23  0000              public _LED_Delay_2
  23  0000  0002[           local _LED_Delay_2 db 2 dup(?)	; 2,0
            00
            ]
  23  0002              #pragma debug variable 10 2 _LED_Delay_2+0 "del"
  25  0002              #line 25 "C:\Users\SA\Desktop\VR回饋TIMER\HT66F70A.c"
  25  0000  1F00     E  	clr rb
  25  0001  1F00     E  	clr rc
  25  0002  2800     R  	jmp _L2
  25  0003              _L3:
  25  0003              #line 25 "C:\Users\SA\Desktop\VR回饋TIMER\HT66F70A.c"
  25  0003              ;# 25 "C:\Users\SA\Desktop\VR回饋TIMER\HT66F70A.c" 1
  25  0003              	IF 200>263690
  25  0003              ;# 25 "C:\Users\SA\Desktop\VR回饋TIMER\HT66F70A.c" 1
  25  0003              	ERRMESSAGE 'the value 200of the argument exceeds the maxinum 263690'
  25  0003              	ENDIF
  25  0003              ;# 25 "C:\Users\SA\Desktop\VR回饋TIMER\HT66F70A.c" 1
  25  0003              	IF 200<0
  25  0003              ;# 25 "C:\Users\SA\Desktop\VR回饋TIMER\HT66F70A.c" 1
  25  0003              	ERRMESSAGE 'the value 200 of the argument exceeds the mininum 0'
  25  0003              	ENDIF
  25  0003              ;# 25 "C:\Users\SA\Desktop\VR回饋TIMER\HT66F70A.c" 1
  25  0003              	IF 200==0
  25  0003              ;# 25 "C:\Users\SA\Desktop\VR回饋TIMER\HT66F70A.c" 1
  25  0003              	JMP $
  25  0003              	ENDIF
  25  0003              ;# 25 "C:\Users\SA\Desktop\VR回饋TIMER\HT66F70A.c" 1
  25  0003              	IF (200>=1) AND (200<( 4 + __PBP__ * 2))
  25  0003              ;# 25 "C:\Users\SA\Desktop\VR回饋TIMER\HT66F70A.c" 1
  25  0003              	NOP
  25  0003              	ENDIF
  25  0003              ;# 25 "C:\Users\SA\Desktop\VR回饋TIMER\HT66F70A.c" 1
  25  0003              	IF (200>=2) AND (200<( 4 + __PBP__ * 2))
  25  0003              ;# 25 "C:\Users\SA\Desktop\VR回饋TIMER\HT66F70A.c" 1
  25  0003              	NOP
  25  0003              	ENDIF
  25  0003              ;# 25 "C:\Users\SA\Desktop\VR回饋TIMER\HT66F70A.c" 1
  25  0003              	IF (200>=3) AND (200<( 4 + __PBP__ * 2))
  25  0003              ;# 25 "C:\Users\SA\Desktop\VR回饋TIMER\HT66F70A.c" 1
  25  0003              	NOP
  25  0003              	ENDIF
  25  0003              ;# 25 "C:\Users\SA\Desktop\VR回饋TIMER\HT66F70A.c" 1
  25  0003              	IF (200>=4) AND (200<( 4 + __PBP__ * 2)) AND ( __PBP__ > 0 )
  25  0003              ;# 25 "C:\Users\SA\Desktop\VR回饋TIMER\HT66F70A.c" 1
  25  0003              	NOP
"File: HT66F70A.c    Assembler  Version HGASM0202      Page 3

  25  0003              	ENDIF
  25  0003              ;# 25 "C:\Users\SA\Desktop\VR回饋TIMER\HT66F70A.c" 1
  25  0003              	IF (200>=5) AND (200<( 4 + __PBP__ * 2)) AND ( __PBP__ > 0 )
  25  0003              ;# 25 "C:\Users\SA\Desktop\VR回饋TIMER\HT66F70A.c" 1
  25  0003              	NOP
  25  0003              	ENDIF
  25  0003              ;# 25 "C:\Users\SA\Desktop\VR回饋TIMER\HT66F70A.c" 1
  25  0003              	IF (200>=6) AND (200<( 4 + __PBP__ * 2))  AND ( __PBP__ > 1 )
  25  0003              ;# 25 "C:\Users\SA\Desktop\VR回饋TIMER\HT66F70A.c" 1
  25  0003              	NOP
  25  0003              	ENDIF
  25  0003              ;# 25 "C:\Users\SA\Desktop\VR回饋TIMER\HT66F70A.c" 1
  25  0003              	IF (200>=7) AND (200<( 4 + __PBP__ * 2))  AND ( __PBP__ > 1 )
  25  0003              ;# 25 "C:\Users\SA\Desktop\VR回饋TIMER\HT66F70A.c" 1
  25  0003              	NOP
  25  0003              	ENDIF
  25  0003              ;# 25 "C:\Users\SA\Desktop\VR回饋TIMER\HT66F70A.c" 1
  25  0003              	IF (200>=8) AND (200<( 4 + __PBP__ * 2))  AND ( __PBP__ > 2 )
  25  0003              ;# 25 "C:\Users\SA\Desktop\VR回饋TIMER\HT66F70A.c" 1
  25  0003              	NOP
  25  0003              	ENDIF
  25  0003              ;# 25 "C:\Users\SA\Desktop\VR回饋TIMER\HT66F70A.c" 1
  25  0003              	IF (200==9)  AND ( __PBP__ > 2 )
  25  0003              ;# 25 "C:\Users\SA\Desktop\VR回饋TIMER\HT66F70A.c" 1
  25  0003              	NOP
  25  0003              	ENDIF
  25  0003              ;# 25 "C:\Users\SA\Desktop\VR回饋TIMER\HT66F70A.c" 1
  25  0003              	IF (200< ( 8 + __PBP__ * 2)) AND (200>( 3 + __PBP__ * 2))
  25  0003              ;# 25 "C:\Users\SA\Desktop\VR回饋TIMER\HT66F70A.c" 1
  25  0003              	fcall __DELAY3 + ( 7 + __PBP__ * 2) -200
  25  0003              	ENDIF
  25  0003              ;# 25 "C:\Users\SA\Desktop\VR回饋TIMER\HT66F70A.c" 1
  25  0003              	IF (200< ( 0404h + __PBP__ * 2)) AND (200>( 7 + __PBP__ * 2))
  25  0003              ;# 25 "C:\Users\SA\Desktop\VR回饋TIMER\HT66F70A.c" 1
  25  0003  0F30        	MOV A,(200-( 4 + __PBP__ * 2))/4
  25  0004              ;# 25 "C:\Users\SA\Desktop\VR回饋TIMER\HT66F70A.c" 1
  25  0004              	fcall __DELAYX3 + 3 -((200-( 4 + __PBP__ * 2)) MOD 4) 
  25  000B              	ENDIF
  25  000B              ;# 25 "C:\Users\SA\Desktop\VR回饋TIMER\HT66F70A.c" 1
  25  000B              	IF (200< ( 040bh + __PBP__ * 2)) AND (200> ( 0403h + __PBP__ * 2))
  25  000B              ;# 25 "C:\Users\SA\Desktop\VR回饋TIMER\HT66F70A.c" 1
  25  000B              	MOV A,0 
  25  000B              ;# 25 "C:\Users\SA\Desktop\VR回饋TIMER\HT66F70A.c" 1
  25  000B              	fcall __DELAYX6 + ( 040ah + __PBP__ * 2) -200
  25  000B              	ENDIF
  25  000B              ;# 25 "C:\Users\SA\Desktop\VR回饋TIMER\HT66F70A.c" 1
  25  000B              	IF (200 >= ( 040bh + __PBP__ * 2)) AND ((((200-( 9 + __PBP__ * 2))%0402h)/4+1)>256)
  25  000B              ;# 25 "C:\Users\SA\Desktop\VR回饋TIMER\HT66F70A.c" 1
  25  000B              	MOV A,(200-( 9 + __PBP__ * 2))/0402h
  25  000B              ;# 25 "C:\Users\SA\Desktop\VR回饋TIMER\HT66F70A.c" 1
  25  000B              	MOV _builtin_holtek_delay_2,A
  25  000B              ;# 25 "C:\Users\SA\Desktop\VR回饋TIMER\HT66F70A.c" 1
  25  000B              	MOV A,0
  25  000B              ;# 25 "C:\Users\SA\Desktop\VR回饋TIMER\HT66F70A.c" 1
  25  000B              	fcall __DELAYY5 +5- (((200-( 9 + __PBP__ * 2))%0402h)%6) 
  25  000B              	ENDIF
  25  000B              ;# 25 "C:\Users\SA\Desktop\VR回饋TIMER\HT66F70A.c" 1
  25  000B              	IF (200 >= ( 040bh + __PBP__ * 2)) AND ((((200-( 9 + __PBP__ * 2))%0402h)/4+1)<=256)
  25  000B              ;# 25 "C:\Users\SA\Desktop\VR回饋TIMER\HT66F70A.c" 1
  25  000B              	MOV A,(200-( 9 + __PBP__ * 2))/0402h
"File: HT66F70A.c    Assembler  Version HGASM0202      Page 4

  25  000B              ;# 25 "C:\Users\SA\Desktop\VR回饋TIMER\HT66F70A.c" 1
  25  000B              	MOV _builtin_holtek_delay_2,A
  25  000B              ;# 25 "C:\Users\SA\Desktop\VR回饋TIMER\HT66F70A.c" 1
  25  000B              	MOV A,((200-( 9 + __PBP__ * 2))%0402h)/4+1
  25  000B              ;# 25 "C:\Users\SA\Desktop\VR回饋TIMER\HT66F70A.c" 1
  25  000B              	fcall __DELAYY3 +3-(((200-( 9 + __PBP__ * 2))%0402h)%4) 
  25  000B              	ENDIF
  25  000B  1480     E  	inc rb
  25  000C  3D0A        	sz z
  25  000D  1480     E  	inc rc
  25  000E              _L2:
  25  000E  0700     E  	mov a,rb
  25  000F  0200     R  	sub a,_LED_Delay_2[0]
  25  0010  0700     E  	mov a,rc
  25  0011  1200     R  	sbc a,_LED_Delay_2[1]
  25  0012  3B0A        	snz cz
  25  0013  2800     R  	jmp _L3
  25  0014  0003        	ret
  25  0015              _LED_Delay endp
  25  0015              #line 25 "C:\Users\SA\Desktop\VR回饋TIMER\HT66F70A.c"
  25  0015              #pragma debug scope 1 1
  25  0015              public _Delayms
  25  0015              #pragma debug scope 3 1
  28  0015              #line 28 "C:\Users\SA\Desktop\VR回饋TIMER\HT66F70A.c"
  28  0000              _Delayms .section 'code'
  28  0000              _Delayms proc
  28  0000              public _Delayms_2
  28  0000  0002[           local _Delayms_2 db 2 dup(?)	; 2,0
            00
            ]
  28  0002              #pragma debug variable 10 3 _Delayms_2+0 "del"
  30  0002              #line 30 "C:\Users\SA\Desktop\VR回饋TIMER\HT66F70A.c"
  30  0000  1F00     E  	clr rb
  30  0001  1F00     E  	clr rc
  30  0002  2800     R  	jmp _L6
  30  0003              _L7:
  30  0003              #line 30 "C:\Users\SA\Desktop\VR回饋TIMER\HT66F70A.c"
  30  0003              ;# 30 "C:\Users\SA\Desktop\VR回饋TIMER\HT66F70A.c" 1
  30  0003              	IF 2000>263690
  30  0003              ;# 30 "C:\Users\SA\Desktop\VR回饋TIMER\HT66F70A.c" 1
  30  0003              	ERRMESSAGE 'the value 2000of the argument exceeds the maxinum 263690'
  30  0003              	ENDIF
  30  0003              ;# 30 "C:\Users\SA\Desktop\VR回饋TIMER\HT66F70A.c" 1
  30  0003              	IF 2000<0
  30  0003              ;# 30 "C:\Users\SA\Desktop\VR回饋TIMER\HT66F70A.c" 1
  30  0003              	ERRMESSAGE 'the value 2000 of the argument exceeds the mininum 0'
  30  0003              	ENDIF
  30  0003              ;# 30 "C:\Users\SA\Desktop\VR回饋TIMER\HT66F70A.c" 1
  30  0003              	IF 2000==0
  30  0003              ;# 30 "C:\Users\SA\Desktop\VR回饋TIMER\HT66F70A.c" 1
  30  0003              	JMP $
  30  0003              	ENDIF
  30  0003              ;# 30 "C:\Users\SA\Desktop\VR回饋TIMER\HT66F70A.c" 1
  30  0003              	IF (2000>=1) AND (2000<( 4 + __PBP__ * 2))
  30  0003              ;# 30 "C:\Users\SA\Desktop\VR回饋TIMER\HT66F70A.c" 1
  30  0003              	NOP
  30  0003              	ENDIF
  30  0003              ;# 30 "C:\Users\SA\Desktop\VR回饋TIMER\HT66F70A.c" 1
  30  0003              	IF (2000>=2) AND (2000<( 4 + __PBP__ * 2))
  30  0003              ;# 30 "C:\Users\SA\Desktop\VR回饋TIMER\HT66F70A.c" 1
"File: HT66F70A.c    Assembler  Version HGASM0202      Page 5

  30  0003              	NOP
  30  0003              	ENDIF
  30  0003              ;# 30 "C:\Users\SA\Desktop\VR回饋TIMER\HT66F70A.c" 1
  30  0003              	IF (2000>=3) AND (2000<( 4 + __PBP__ * 2))
  30  0003              ;# 30 "C:\Users\SA\Desktop\VR回饋TIMER\HT66F70A.c" 1
  30  0003              	NOP
  30  0003              	ENDIF
  30  0003              ;# 30 "C:\Users\SA\Desktop\VR回饋TIMER\HT66F70A.c" 1
  30  0003              	IF (2000>=4) AND (2000<( 4 + __PBP__ * 2)) AND ( __PBP__ > 0 )
  30  0003              ;# 30 "C:\Users\SA\Desktop\VR回饋TIMER\HT66F70A.c" 1
  30  0003              	NOP
  30  0003              	ENDIF
  30  0003              ;# 30 "C:\Users\SA\Desktop\VR回饋TIMER\HT66F70A.c" 1
  30  0003              	IF (2000>=5) AND (2000<( 4 + __PBP__ * 2)) AND ( __PBP__ > 0 )
  30  0003              ;# 30 "C:\Users\SA\Desktop\VR回饋TIMER\HT66F70A.c" 1
  30  0003              	NOP
  30  0003              	ENDIF
  30  0003              ;# 30 "C:\Users\SA\Desktop\VR回饋TIMER\HT66F70A.c" 1
  30  0003              	IF (2000>=6) AND (2000<( 4 + __PBP__ * 2))  AND ( __PBP__ > 1 )
  30  0003              ;# 30 "C:\Users\SA\Desktop\VR回饋TIMER\HT66F70A.c" 1
  30  0003              	NOP
  30  0003              	ENDIF
  30  0003              ;# 30 "C:\Users\SA\Desktop\VR回饋TIMER\HT66F70A.c" 1
  30  0003              	IF (2000>=7) AND (2000<( 4 + __PBP__ * 2))  AND ( __PBP__ > 1 )
  30  0003              ;# 30 "C:\Users\SA\Desktop\VR回饋TIMER\HT66F70A.c" 1
  30  0003              	NOP
  30  0003              	ENDIF
  30  0003              ;# 30 "C:\Users\SA\Desktop\VR回饋TIMER\HT66F70A.c" 1
  30  0003              	IF (2000>=8) AND (2000<( 4 + __PBP__ * 2))  AND ( __PBP__ > 2 )
  30  0003              ;# 30 "C:\Users\SA\Desktop\VR回饋TIMER\HT66F70A.c" 1
  30  0003              	NOP
  30  0003              	ENDIF
  30  0003              ;# 30 "C:\Users\SA\Desktop\VR回饋TIMER\HT66F70A.c" 1
  30  0003              	IF (2000==9)  AND ( __PBP__ > 2 )
  30  0003              ;# 30 "C:\Users\SA\Desktop\VR回饋TIMER\HT66F70A.c" 1
  30  0003              	NOP
  30  0003              	ENDIF
  30  0003              ;# 30 "C:\Users\SA\Desktop\VR回饋TIMER\HT66F70A.c" 1
  30  0003              	IF (2000< ( 8 + __PBP__ * 2)) AND (2000>( 3 + __PBP__ * 2))
  30  0003              ;# 30 "C:\Users\SA\Desktop\VR回饋TIMER\HT66F70A.c" 1
  30  0003              	fcall __DELAY3 + ( 7 + __PBP__ * 2) -2000
  30  0003              	ENDIF
  30  0003              ;# 30 "C:\Users\SA\Desktop\VR回饋TIMER\HT66F70A.c" 1
  30  0003              	IF (2000< ( 0404h + __PBP__ * 2)) AND (2000>( 7 + __PBP__ * 2))
  30  0003              ;# 30 "C:\Users\SA\Desktop\VR回饋TIMER\HT66F70A.c" 1
  30  0003              	MOV A,(2000-( 4 + __PBP__ * 2))/4
  30  0003              ;# 30 "C:\Users\SA\Desktop\VR回饋TIMER\HT66F70A.c" 1
  30  0003              	fcall __DELAYX3 + 3 -((2000-( 4 + __PBP__ * 2)) MOD 4) 
  30  0003              	ENDIF
  30  0003              ;# 30 "C:\Users\SA\Desktop\VR回饋TIMER\HT66F70A.c" 1
  30  0003              	IF (2000< ( 040bh + __PBP__ * 2)) AND (2000> ( 0403h + __PBP__ * 2))
  30  0003              ;# 30 "C:\Users\SA\Desktop\VR回饋TIMER\HT66F70A.c" 1
  30  0003              	MOV A,0 
  30  0003              ;# 30 "C:\Users\SA\Desktop\VR回饋TIMER\HT66F70A.c" 1
  30  0003              	fcall __DELAYX6 + ( 040ah + __PBP__ * 2) -2000
  30  0003              	ENDIF
  30  0003              ;# 30 "C:\Users\SA\Desktop\VR回饋TIMER\HT66F70A.c" 1
  30  0003              	IF (2000 >= ( 040bh + __PBP__ * 2)) AND ((((2000-( 9 + __PBP__ * 2))%0402h)/4+1)>256)
  30  0003              ;# 30 "C:\Users\SA\Desktop\VR回饋TIMER\HT66F70A.c" 1
  30  0003              	MOV A,(2000-( 9 + __PBP__ * 2))/0402h
"File: HT66F70A.c    Assembler  Version HGASM0202      Page 6

  30  0003              ;# 30 "C:\Users\SA\Desktop\VR回饋TIMER\HT66F70A.c" 1
  30  0003              	MOV _builtin_holtek_delay_2,A
  30  0003              ;# 30 "C:\Users\SA\Desktop\VR回饋TIMER\HT66F70A.c" 1
  30  0003              	MOV A,0
  30  0003              ;# 30 "C:\Users\SA\Desktop\VR回饋TIMER\HT66F70A.c" 1
  30  0003              	fcall __DELAYY5 +5- (((2000-( 9 + __PBP__ * 2))%0402h)%6) 
  30  0003              	ENDIF
  30  0003              ;# 30 "C:\Users\SA\Desktop\VR回饋TIMER\HT66F70A.c" 1
  30  0003              	IF (2000 >= ( 040bh + __PBP__ * 2)) AND ((((2000-( 9 + __PBP__ * 2))%0402h)/4+1)<=256)
  30  0003              ;# 30 "C:\Users\SA\Desktop\VR回饋TIMER\HT66F70A.c" 1
  30  0003  0F01        	MOV A,(2000-( 9 + __PBP__ * 2))/0402h
  30  0004              ;# 30 "C:\Users\SA\Desktop\VR回饋TIMER\HT66F70A.c" 1
  30  0004  0080     E  	MOV _builtin_holtek_delay_2,A
  30  0005              ;# 30 "C:\Users\SA\Desktop\VR回饋TIMER\HT66F70A.c" 1
  30  0005  0FF1        	MOV A,((2000-( 9 + __PBP__ * 2))%0402h)/4+1
  30  0006              ;# 30 "C:\Users\SA\Desktop\VR回饋TIMER\HT66F70A.c" 1
  30  0006              	fcall __DELAYY3 +3-(((2000-( 9 + __PBP__ * 2))%0402h)%4) 
  30  000D              	ENDIF
  30  000D  1480     E  	inc rb
  30  000E  3D0A        	sz z
  30  000F  1480     E  	inc rc
  30  0010              _L6:
  30  0010  0700     E  	mov a,rb
  30  0011  0200     R  	sub a,_Delayms_2[0]
  30  0012  0700     E  	mov a,rc
  30  0013  1200     R  	sbc a,_Delayms_2[1]
  30  0014  3B0A        	snz cz
  30  0015  2800     R  	jmp _L7
  30  0016  0003        	ret
  30  0017              _Delayms endp
  30  0017              #line 30 "C:\Users\SA\Desktop\VR回饋TIMER\HT66F70A.c"
  30  0017              #pragma debug scope 1 1
  30  0017              ___pd equ [30]
  30  0017              public _LED_change
  30  0017              #pragma debug scope 4 1
  33  0017              #line 33 "C:\Users\SA\Desktop\VR回饋TIMER\HT66F70A.c"
  33  0000              _LED_change .section 'code'
  33  0000              _LED_change proc
  34  0000              #line 34 "C:\Users\SA\Desktop\VR回饋TIMER\HT66F70A.c"
  34  0000  0700     R  	mov a,_s[0]
  34  0001  0A31        	sub a,49
  34  0002  3D0A        	sz z
  34  0003  2800     R  	jmp _L10
  34  0004  0A01        	sub a,(50)-(49)
  34  0005  3D0A        	sz z
  34  0006  2800     R  	jmp _L11
  34  0007              #line 34 "C:\Users\SA\Desktop\VR回饋TIMER\HT66F70A.c"
  34  0007  0700     R  	mov a,_s[0]
  34  0008  0A33        	sub a,51
  34  0009  3D0A        	sz z
  34  000A  2800     R  	jmp _L12
  34  000B  0700     R  	mov a,_s[0]
  34  000C  0A34        	sub a,52
  34  000D  390A        	snz z
  34  000E  2800     R  	jmp _L15
  37  000F              #line 37 "C:\Users\SA\Desktop\VR回饋TIMER\HT66F70A.c"
  37  000F  301E        	set [30].0
  37  0010  2800     R  	jmp _L18
  37  0011              _L12:
  40  0011              #line 40 "C:\Users\SA\Desktop\VR回饋TIMER\HT66F70A.c"
"File: HT66F70A.c    Assembler  Version HGASM0202      Page 7

  40  0011  341E        	clr [30].0
  40  0012              _L18:
  40  0012  309E        	set [30].1
  40  0013  351E        	clr [30].2
  40  0014  2800     R  	jmp _L16
  40  0015              _L10:
  43  0015              #line 43 "C:\Users\SA\Desktop\VR回饋TIMER\HT66F70A.c"
  43  0015  301E        	set [30].0
  43  0016  309E        	set [30].1
  43  0017  311E        	set [30].2
  43  0018  359E        	clr [30].3
  44  0019              #line 44 "C:\Users\SA\Desktop\VR回饋TIMER\HT66F70A.c"
  44  0019  2800     R  	jmp _L8
  44  001A              _L11:
  46  001A              #line 46 "C:\Users\SA\Desktop\VR回饋TIMER\HT66F70A.c"
  46  001A  341E        	clr [30].0
  46  001B  2800     R  	jmp _L17
  46  001C              _L15:
  49  001C              #line 49 "C:\Users\SA\Desktop\VR回饋TIMER\HT66F70A.c"
  49  001C  301E        	set [30].0
  49  001D              _L17:
  49  001D  309E        	set [30].1
  49  001E  311E        	set [30].2
  49  001F              _L16:
  49  001F  319E        	set [30].3
  49  0020              _L8:
  49  0020  0003        	ret
  49  0021              _LED_change endp
  49  0021              #line 49 "C:\Users\SA\Desktop\VR回饋TIMER\HT66F70A.c"
  49  0021              #pragma debug scope 1 1
  49  0021              public _LED
  49  0021              #pragma debug scope 5 1
  54  0021              #line 54 "C:\Users\SA\Desktop\VR回饋TIMER\HT66F70A.c"
  54  0000              _LED .section 'code'
  54  0000              _LED proc
  54  0000  0005[           local _LED_2 db 5 dup(?)	; 0,5
            00
            ]
  59  0005              #line 59 "C:\Users\SA\Desktop\VR回饋TIMER\HT66F70A.c"
  59  0000  0FE8        	mov a,-24
  59  0001  0080     R  	mov _LED_Delay_2[0],a
  59  0002  0F03        	mov a,3
  59  0003  0080     R  	mov _LED_Delay_2[1],a
  59  0004              	fcall _LED_Delay
  59  000B  1F00     R  	clr _LED_2[4]
  58  000C              #line 58 "C:\Users\SA\Desktop\VR回饋TIMER\HT66F70A.c"
  58  000C  0F64        	mov a,100
  58  000D  0080     R  	mov _LED_2[2],a
  58  000E  1F00     R  	clr _LED_2[3]
  57  000F              #line 57 "C:\Users\SA\Desktop\VR回饋TIMER\HT66F70A.c"
  57  000F  1F00     R  	clr _LED_2[0]
  57  0010  1F00     R  	clr _LED_2[1]
  57  0011              _L23:
  62  0011              #line 62 "C:\Users\SA\Desktop\VR回饋TIMER\HT66F70A.c"
  62  0011  0F64        	mov a,100
  62  0012  0200     R  	sub a,_LED_2[0]
  62  0013  0F00        	mov a,0
  62  0014  1200     R  	sbc a,_LED_2[1]
  62  0015  3C0A        	sz c
  62  0016  2800     R  	jmp _L20
"File: HT66F70A.c    Assembler  Version HGASM0202      Page 8

  64  0017              #line 64 "C:\Users\SA\Desktop\VR回饋TIMER\HT66F70A.c"
  64  0017              	fcall _LED_change
  64  001E  2800     R  	jmp _L21
  64  001F              _L20:
  68  001F              #line 68 "C:\Users\SA\Desktop\VR回饋TIMER\HT66F70A.c"
  68  001F  301E        	set [30].0
  68  0020  309E        	set [30].1
  68  0021  311E        	set [30].2
  68  0022  319E        	set [30].3
  69  0023              #line 69 "C:\Users\SA\Desktop\VR回饋TIMER\HT66F70A.c"
  69  0023  0700     R  	mov a,_LED_2[2]
  69  0024  0080     R  	mov _LED_Delay_2[0],a
  69  0025  0700     R  	mov a,_LED_2[3]
  69  0026  0080     R  	mov _LED_Delay_2[1],a
  69  0027              	fcall _LED_Delay
  70  002E              #line 70 "C:\Users\SA\Desktop\VR回饋TIMER\HT66F70A.c"
  70  002E              	fcall _LED_change
  71  0035              #line 71 "C:\Users\SA\Desktop\VR回饋TIMER\HT66F70A.c"
  71  0035  0700     R  	mov a,_LED_2[0]
  71  0036  0080     R  	mov _LED_Delay_2[0],a
  71  0037  0700     R  	mov a,_LED_2[1]
  71  0038  0080     R  	mov _LED_Delay_2[1],a
  71  0039              	fcall _LED_Delay
  72  0040              #line 72 "C:\Users\SA\Desktop\VR回饋TIMER\HT66F70A.c"
  72  0040  1480     R  	inc _LED_2[0]
  72  0041  3D0A        	sz z
  72  0042  1480     R  	inc _LED_2[1]
  73  0043              #line 73 "C:\Users\SA\Desktop\VR回饋TIMER\HT66F70A.c"
  73  0043  0FFF        	mov a,255
  73  0044  0380     R  	addm a,_LED_2[2]
  73  0045  0FFF        	mov a,255
  73  0046  1380     R  	adcm a,_LED_2[3]
  73  0047              _L21:
  73  0047  1480     R  	inc _LED_2[4]
  60  0048              #line 60 "C:\Users\SA\Desktop\VR回饋TIMER\HT66F70A.c"
  60  0048  0700     R  	mov a,_LED_2[4]
  60  0049  0A78        	sub a,120
  60  004A  390A        	snz z
  60  004B  2800     R  	jmp _L23
  79  004C              #line 79 "C:\Users\SA\Desktop\VR回饋TIMER\HT66F70A.c"
  79  004C  0FE8        	mov a,-24
  79  004D  0080     R  	mov _LED_Delay_2[0],a
  79  004E  0F03        	mov a,3
  79  004F  0080     R  	mov _LED_Delay_2[1],a
  79  0050              	fcall _LED_Delay
  79  0057  1F00     R  	clr _LED_2[4]
  78  0058              #line 78 "C:\Users\SA\Desktop\VR回饋TIMER\HT66F70A.c"
  78  0058  1F00     R  	clr _LED_2[2]
  78  0059  1F00     R  	clr _LED_2[3]
  77  005A              #line 77 "C:\Users\SA\Desktop\VR回饋TIMER\HT66F70A.c"
  77  005A  0F64        	mov a,100
  77  005B  0080     R  	mov _LED_2[0],a
  77  005C  1F00     R  	clr _LED_2[1]
  77  005D              _L27:
  82  005D              #line 82 "C:\Users\SA\Desktop\VR回饋TIMER\HT66F70A.c"
  82  005D  0F09        	mov a,9
  82  005E  0200     R  	sub a,_LED_2[0]
  82  005F  0F00        	mov a,0
  82  0060  1200     R  	sbc a,_LED_2[1]
  82  0061  380A        	snz c
"File: HT66F70A.c    Assembler  Version HGASM0202      Page 9

  82  0062  2800     R  	jmp _L24
  84  0063              #line 84 "C:\Users\SA\Desktop\VR回饋TIMER\HT66F70A.c"
  84  0063  301E        	set [30].0
  84  0064  309E        	set [30].1
  84  0065  311E        	set [30].2
  84  0066  319E        	set [30].3
  84  0067  2800     R  	jmp _L25
  84  0068              _L24:
  88  0068              #line 88 "C:\Users\SA\Desktop\VR回饋TIMER\HT66F70A.c"
  88  0068  301E        	set [30].0
  88  0069  309E        	set [30].1
  88  006A  311E        	set [30].2
  88  006B  319E        	set [30].3
  89  006C              #line 89 "C:\Users\SA\Desktop\VR回饋TIMER\HT66F70A.c"
  89  006C  0700     R  	mov a,_LED_2[2]
  89  006D  0080     R  	mov _LED_Delay_2[0],a
  89  006E  0700     R  	mov a,_LED_2[3]
  89  006F  0080     R  	mov _LED_Delay_2[1],a
  89  0070              	fcall _LED_Delay
  90  0077              #line 90 "C:\Users\SA\Desktop\VR回饋TIMER\HT66F70A.c"
  90  0077              	fcall _LED_change
  91  007E              #line 91 "C:\Users\SA\Desktop\VR回饋TIMER\HT66F70A.c"
  91  007E  0700     R  	mov a,_LED_2[0]
  91  007F  0080     R  	mov _LED_Delay_2[0],a
  91  0080  0700     R  	mov a,_LED_2[1]
  91  0081  0080     R  	mov _LED_Delay_2[1],a
  91  0082              	fcall _LED_Delay
  92  0089              #line 92 "C:\Users\SA\Desktop\VR回饋TIMER\HT66F70A.c"
  92  0089  0FFF        	mov a,255
  92  008A  0380     R  	addm a,_LED_2[0]
  92  008B  0FFF        	mov a,255
  92  008C  1380     R  	adcm a,_LED_2[1]
  93  008D              #line 93 "C:\Users\SA\Desktop\VR回饋TIMER\HT66F70A.c"
  93  008D  1480     R  	inc _LED_2[2]
  93  008E  3D0A        	sz z
  93  008F  1480     R  	inc _LED_2[3]
  93  0090              _L25:
  93  0090  1480     R  	inc _LED_2[4]
  80  0091              #line 80 "C:\Users\SA\Desktop\VR回饋TIMER\HT66F70A.c"
  80  0091  0700     R  	mov a,_LED_2[4]
  80  0092  0A78        	sub a,120
  80  0093  390A        	snz z
  80  0094  2800     R  	jmp _L27
  80  0095  0003        	ret
  80  0096              _LED endp
  80  0096              #line 80 "C:\Users\SA\Desktop\VR回饋TIMER\HT66F70A.c"
  80  0096              #pragma debug scope 1 1
  80  0096              ___pcc equ [27]
  80  0096              ___pc equ [26]
  80  0096              ___pdc equ [31]
  80  0096              ___pec equ [35]
  80  0096              ___pe equ [34]
  80  0096              ___pgc equ [43]
  80  0096              ___pg equ [42]
  80  0096              public _GPIO_init
  80  0096              #pragma debug scope 6 1
  98  0096              #line 98 "C:\Users\SA\Desktop\VR回饋TIMER\HT66F70A.c"
  98  0000              _GPIO_init .section 'code'
  98  0000              _GPIO_init proc
 100  0000              #line 100 "C:\Users\SA\Desktop\VR回饋TIMER\HT66F70A.c"
"File: HT66F70A.c    Assembler  Version HGASM0202      Page 10

 100  0000  371B        	clr [27].6
 101  0001              #line 101 "C:\Users\SA\Desktop\VR回饋TIMER\HT66F70A.c"
 101  0001  331A        	set [26].6
 103  0002              #line 103 "C:\Users\SA\Desktop\VR回饋TIMER\HT66F70A.c"
 103  0002  341F        	clr [31].0
 104  0003              #line 104 "C:\Users\SA\Desktop\VR回饋TIMER\HT66F70A.c"
 104  0003  349F        	clr [31].1
 105  0004              #line 105 "C:\Users\SA\Desktop\VR回饋TIMER\HT66F70A.c"
 105  0004  351F        	clr [31].2
 106  0005              #line 106 "C:\Users\SA\Desktop\VR回饋TIMER\HT66F70A.c"
 106  0005  359F        	clr [31].3
 107  0006              #line 107 "C:\Users\SA\Desktop\VR回饋TIMER\HT66F70A.c"
 107  0006  379F        	clr [31].7
 108  0007              #line 108 "C:\Users\SA\Desktop\VR回饋TIMER\HT66F70A.c"
 108  0007  341E        	clr [30].0
 109  0008              #line 109 "C:\Users\SA\Desktop\VR回饋TIMER\HT66F70A.c"
 109  0008  349E        	clr [30].1
 110  0009              #line 110 "C:\Users\SA\Desktop\VR回饋TIMER\HT66F70A.c"
 110  0009  351E        	clr [30].2
 111  000A              #line 111 "C:\Users\SA\Desktop\VR回饋TIMER\HT66F70A.c"
 111  000A  359E        	clr [30].3
 112  000B              #line 112 "C:\Users\SA\Desktop\VR回饋TIMER\HT66F70A.c"
 112  000B  379E        	clr [30].7
 114  000C              #line 114 "C:\Users\SA\Desktop\VR回饋TIMER\HT66F70A.c"
 114  000C  341B        	clr [27].0
 115  000D              #line 115 "C:\Users\SA\Desktop\VR回饋TIMER\HT66F70A.c"
 115  000D  301A        	set [26].0
 117  000E              #line 117 "C:\Users\SA\Desktop\VR回饋TIMER\HT66F70A.c"
 117  000E  3523        	clr [35].2
 118  000F              #line 118 "C:\Users\SA\Desktop\VR回饋TIMER\HT66F70A.c"
 118  000F  3522        	clr [34].2
 120  0010              #line 120 "C:\Users\SA\Desktop\VR回饋TIMER\HT66F70A.c"
 120  0010  342B        	clr [43].0
 121  0011              #line 121 "C:\Users\SA\Desktop\VR回饋TIMER\HT66F70A.c"
 121  0011  302A        	set [42].0
 121  0012  0003        	ret
 121  0013              _GPIO_init endp
 121  0013              #line 121 "C:\Users\SA\Desktop\VR回饋TIMER\HT66F70A.c"
 121  0013              #pragma debug scope 1 1
 121  0013              ___intc0 equ [48]
 121  0013              public _ISR_UART
 121  0013              #pragma debug scope 7 1
 124  0013              #line 124 "C:\Users\SA\Desktop\VR回饋TIMER\HT66F70A.c"
 124  0013              rombank 0 @ISR_UART_code
 124  0000              @ISR_UART_code .section at 8 'code'
 124  0000  0080     E  	mov r1,a
 124  0001  070B        	mov a,bp
 124  0002  1F0B        	clr bp
 124  0003  2800     R  	jmp _ISR_UART
 124  0004              ROMBANK 0 _ISR_UART
 124  0004              #pragma debug scope 1 1
 124  0004              @dummy8 endp
 124  0004              #pragma debug scope 8 1
 124  0000              _ISR_UART .section 'code'
 124  0000              _ISR_UART proc
 124  0000  00          local _ISR_UART_2 db 1 dup(?)
 124  0000  0080     E  	mov r2,a
 124  0001  070A        	mov a, status
 124  0002  0080     E  	mov r3,a
 124  0003  0703        	mov a,mp
"File: HT66F70A.c    Assembler  Version HGASM0202      Page 11

 124  0004  0080     E  	mov r4,a
 124  0005  0704        	mov a,sbp
 124  0006  0080     E  	mov r5,a
 124  0007  0707        	mov a,tblp
 124  0008  0080     E  	mov r6,a
 124  0009  0709        	mov a,tbhp
 124  000A  0080     E  	mov r7,a
 125  000B              #line 125 "C:\Users\SA\Desktop\VR回饋TIMER\HT66F70A.c"
 125  000B              	fcall _PC_RX
 125  0012  0080     R  	mov _ISR_UART_2[0],a
 125  0013  0080     R  	mov _s[0],a
 126  0014              #line 126 "C:\Users\SA\Desktop\VR回饋TIMER\HT66F70A.c"
 126  0014  0700     R  	mov a,_ISR_UART_2[0]
 126  0015  0A33        	sub a,51
 126  0016  390A        	snz z
 126  0017  2800     R  	jmp _L30
 128  0018              #line 128 "C:\Users\SA\Desktop\VR回饋TIMER\HT66F70A.c"
 128  0018  3122        	set [34].2
 129  0019              #line 129 "C:\Users\SA\Desktop\VR回饋TIMER\HT66F70A.c"
 129  0019  0F01        	mov a,1
 129  001A  0080     R  	mov _r1[0],a
 129  001B  1F00     R  	clr _r1[1]
 130  001C              #line 130 "C:\Users\SA\Desktop\VR回饋TIMER\HT66F70A.c"
 130  001C  1F00     R  	clr _gg[0]
 130  001D  1F00     R  	clr _gg[1]
 130  001E  2800     R  	jmp _L31
 130  001F              _L30:
 132  001F              #line 132 "C:\Users\SA\Desktop\VR回饋TIMER\HT66F70A.c"
 132  001F  0700     R  	mov a,_ISR_UART_2[0]
 132  0020  0A34        	sub a,52
 132  0021  390A        	snz z
 132  0022  2800     R  	jmp _L32
 134  0023              #line 134 "C:\Users\SA\Desktop\VR回饋TIMER\HT66F70A.c"
 134  0023  341A        	clr [26].0
 135  0024              #line 135 "C:\Users\SA\Desktop\VR回饋TIMER\HT66F70A.c"
 135  0024  331A        	set [26].6
 136  0025              #line 136 "C:\Users\SA\Desktop\VR回饋TIMER\HT66F70A.c"
 136  0025  302A        	set [42].0
 138  0026              #line 138 "C:\Users\SA\Desktop\VR回饋TIMER\HT66F70A.c"
 138  0026  0700     R  	mov a,_r3[0]
 138  0027  0C01        	xor a,1
 138  0028  0500     R  	or a,_r3[1]
 138  0029  3D0A        	sz z
 138  002A  2800     R  	jmp _L33
 139  002B              #line 139 "C:\Users\SA\Desktop\VR回饋TIMER\HT66F70A.c"
 139  002B  1F00     R  	clr _ff[0]
 139  002C  1F00     R  	clr _ff[1]
 139  002D              _L33:
 140  002D              #line 140 "C:\Users\SA\Desktop\VR回饋TIMER\HT66F70A.c"
 140  002D  0F01        	mov a,1
 140  002E  0080     R  	mov _r3[0],a
 140  002F  1F00     R  	clr _r3[1]
 140  0030  2800     R  	jmp _L34
 140  0031              _L32:
 142  0031              #line 142 "C:\Users\SA\Desktop\VR回饋TIMER\HT66F70A.c"
 142  0031  0700     R  	mov a,_ISR_UART_2[0]
 142  0032  0A31        	sub a,49
 142  0033  390A        	snz z
 142  0034  2800     R  	jmp _L35
 144  0035              #line 144 "C:\Users\SA\Desktop\VR回饋TIMER\HT66F70A.c"
"File: HT66F70A.c    Assembler  Version HGASM0202      Page 12

 144  0035  301A        	set [26].0
 145  0036              #line 145 "C:\Users\SA\Desktop\VR回饋TIMER\HT66F70A.c"
 145  0036  371A        	clr [26].6
 146  0037              #line 146 "C:\Users\SA\Desktop\VR回饋TIMER\HT66F70A.c"
 146  0037  302A        	set [42].0
 146  0038  2800     R  	jmp _L42
 146  0039              _L35:
 152  0039              #line 152 "C:\Users\SA\Desktop\VR回饋TIMER\HT66F70A.c"
 152  0039  0700     R  	mov a,_ISR_UART_2[0]
 152  003A  0A32        	sub a,50
 152  003B  390A        	snz z
 152  003C  2800     R  	jmp _L37
 154  003D              #line 154 "C:\Users\SA\Desktop\VR回饋TIMER\HT66F70A.c"
 154  003D  301A        	set [26].0
 155  003E              #line 155 "C:\Users\SA\Desktop\VR回饋TIMER\HT66F70A.c"
 155  003E  371A        	clr [26].6
 156  003F              #line 156 "C:\Users\SA\Desktop\VR回饋TIMER\HT66F70A.c"
 156  003F  342A        	clr [42].0
 156  0040              _L42:
 158  0040              #line 158 "C:\Users\SA\Desktop\VR回饋TIMER\HT66F70A.c"
 158  0040  0700     R  	mov a,_r2[0]
 158  0041  0C01        	xor a,1
 158  0042  0500     R  	or a,_r2[1]
 158  0043  3D0A        	sz z
 158  0044  2800     R  	jmp _L38
 159  0045              #line 159 "C:\Users\SA\Desktop\VR回饋TIMER\HT66F70A.c"
 159  0045  0F01        	mov a,1
 159  0046  0080     R  	mov _r2[0],a
 159  0047  1F00     R  	clr _r2[1]
 159  0048              _L38:
 160  0048              #line 160 "C:\Users\SA\Desktop\VR回饋TIMER\HT66F70A.c"
 160  0048  1F00     R  	clr _dd[0]
 160  0049  1F00     R  	clr _dd[1]
 160  004A  2800     R  	jmp _L34
 160  004B              _L37:
 162  004B              #line 162 "C:\Users\SA\Desktop\VR回饋TIMER\HT66F70A.c"
 162  004B  0700     R  	mov a,_ISR_UART_2[0]
 162  004C  0A30        	sub a,48
 162  004D  390A        	snz z
 162  004E  2800     R  	jmp _L34
 164  004F              #line 164 "C:\Users\SA\Desktop\VR回饋TIMER\HT66F70A.c"
 164  004F  301A        	set [26].0
 165  0050              #line 165 "C:\Users\SA\Desktop\VR回饋TIMER\HT66F70A.c"
 165  0050  331A        	set [26].6
 166  0051              #line 166 "C:\Users\SA\Desktop\VR回饋TIMER\HT66F70A.c"
 166  0051  302A        	set [42].0
 166  0052              _L34:
 169  0052              #line 169 "C:\Users\SA\Desktop\VR回饋TIMER\HT66F70A.c"
 169  0052  0700     R  	mov a,_ISR_UART_2[0]
 169  0053  0080     R  	mov _s2[0],a
 169  0054              _L31:
 170  0054              #line 170 "C:\Users\SA\Desktop\VR回饋TIMER\HT66F70A.c"
 170  0054  36B0        	clr [48].5
 170  0055  0700     E  	mov a,r2
 170  0056  008B        	mov bp,a
 170  0057  0700     E  	mov a,r3
 170  0058  008A        	mov status,a
 170  0059  0700     E  	mov a,r4
 170  005A  0083        	mov mp,a
 170  005B  0700     E  	mov a,r5
"File: HT66F70A.c    Assembler  Version HGASM0202      Page 13

 170  005C  0084        	mov sbp,a
 170  005D  0700     E  	mov a,r6
 170  005E  0087        	mov tblp,a
 170  005F  0700     E  	mov a,r7
 170  0060  0089        	mov tbhp,a
 170  0061  1D05        	tabrdc acc
 170  0062  0700     E  	mov a,r1
 170  0063  0004        	reti
 170  0064              _ISR_UART endp
 170  0064              
 170  0064              #line 170 "C:\Users\SA\Desktop\VR回饋TIMER\HT66F70A.c"
 170  0064              #pragma debug scope 1 1
 170  0064              ___mfi0 equ [52]
 170  0064              public _ISR_TIMER
 170  0064              #pragma debug scope 9 1
 174  0064              #line 174 "C:\Users\SA\Desktop\VR回饋TIMER\HT66F70A.c"
 174  0064              rombank 0 @ISR_TIMER_code
 174  0000              @ISR_TIMER_code .section at 20 'code'
 174  0000  0080     E  	mov r1,a
 174  0001  070B        	mov a,bp
 174  0002  1F0B        	clr bp
 174  0003  2800     R  	jmp _ISR_TIMER
 174  0004              ROMBANK 0 _ISR_TIMER
 174  0004              #pragma debug scope 1 1
 174  0004              @dummy20 endp
 174  0004              #pragma debug scope 10 1
 174  0000              _ISR_TIMER .section 'code'
 174  0000              _ISR_TIMER proc
 174  0000  0080     E  	mov r2,a
 174  0001  070A        	mov a, status
 174  0002  0080     E  	mov r3,a
 175  0003              #line 175 "C:\Users\SA\Desktop\VR回饋TIMER\HT66F70A.c"
 175  0003  0FF4        	mov a,244
 175  0004  0200     R  	sub a,_gg[0]
 175  0005  0F01        	mov a,1
 175  0006  1200     R  	sbc a,_gg[1]
 175  0007  3B8A        	snz sc
 175  0008  2800     R  	jmp _L44
 175  0009              #line 175 "C:\Users\SA\Desktop\VR回饋TIMER\HT66F70A.c"
 175  0009  0700     R  	mov a,_r1[0]
 175  000A  0C01        	xor a,1
 175  000B  0500     R  	or a,_r1[1]
 175  000C  390A        	snz z
 175  000D  2800     R  	jmp _L44
 177  000E              #line 177 "C:\Users\SA\Desktop\VR回饋TIMER\HT66F70A.c"
 177  000E  3522        	clr [34].2
 178  000F              #line 178 "C:\Users\SA\Desktop\VR回饋TIMER\HT66F70A.c"
 178  000F  0700     R  	mov a,_s2[0]
 178  0010  0080     R  	mov _s[0],a
 179  0011              #line 179 "C:\Users\SA\Desktop\VR回饋TIMER\HT66F70A.c"
 179  0011  1F00     R  	clr _r1[0]
 179  0012  1F00     R  	clr _r1[1]
 180  0013              #line 180 "C:\Users\SA\Desktop\VR回饋TIMER\HT66F70A.c"
 180  0013  1F00     R  	clr _gg[0]
 180  0014  1F00     R  	clr _gg[1]
 180  0015              _L44:
 182  0015              #line 182 "C:\Users\SA\Desktop\VR回饋TIMER\HT66F70A.c"
 182  0015  0F58        	mov a,88
 182  0016  0200     R  	sub a,_dd[0]
 182  0017  0F1B        	mov a,27
"File: HT66F70A.c    Assembler  Version HGASM0202      Page 14

 182  0018  1200     R  	sbc a,_dd[1]
 182  0019  3B8A        	snz sc
 182  001A  2800     R  	jmp _L45
 182  001B  0700     R  	mov a,_r2[0]
 182  001C  0C01        	xor a,1
 182  001D  0500     R  	or a,_r2[1]
 182  001E  390A        	snz z
 182  001F  2800     R  	jmp _L45
 184  0020              #line 184 "C:\Users\SA\Desktop\VR回饋TIMER\HT66F70A.c"
 184  0020  331A        	set [26].6
 184  0021  302A        	set [42].0
 185  0022              #line 185 "C:\Users\SA\Desktop\VR回饋TIMER\HT66F70A.c"
 185  0022  1F00     R  	clr _r2[0]
 185  0023  1F00     R  	clr _r2[1]
 186  0024              #line 186 "C:\Users\SA\Desktop\VR回饋TIMER\HT66F70A.c"
 186  0024  1F00     R  	clr _dd[0]
 186  0025  1F00     R  	clr _dd[1]
 187  0026              #line 187 "C:\Users\SA\Desktop\VR回饋TIMER\HT66F70A.c"
 187  0026  0F30        	mov a,48
 187  0027  0080     R  	mov _s2[0],a
 188  0028              #line 188 "C:\Users\SA\Desktop\VR回饋TIMER\HT66F70A.c"
 188  0028  0F30        	mov a,48
 188  0029  0080     R  	mov _s[0],a
 189  002A              #line 189 "C:\Users\SA\Desktop\VR回饋TIMER\HT66F70A.c"
 189  002A  301E        	set [30].0
 189  002B  309E        	set [30].1
 189  002C  311E        	set [30].2
 189  002D  319E        	set [30].3
 189  002E              _L45:
 191  002E              #line 191 "C:\Users\SA\Desktop\VR回饋TIMER\HT66F70A.c"
 191  002E  0F58        	mov a,88
 191  002F  0200     R  	sub a,_ff[0]
 191  0030  0F1B        	mov a,27
 191  0031  1200     R  	sbc a,_ff[1]
 191  0032  3B8A        	snz sc
 191  0033  2800     R  	jmp _L46
 191  0034  0700     R  	mov a,_r3[0]
 191  0035  0C01        	xor a,1
 191  0036  0500     R  	or a,_r3[1]
 191  0037  390A        	snz z
 191  0038  2800     R  	jmp _L46
 193  0039              #line 193 "C:\Users\SA\Desktop\VR回饋TIMER\HT66F70A.c"
 193  0039  301A        	set [26].0
 194  003A              #line 194 "C:\Users\SA\Desktop\VR回饋TIMER\HT66F70A.c"
 194  003A  1F00     R  	clr _r3[0]
 194  003B  1F00     R  	clr _r3[1]
 195  003C              #line 195 "C:\Users\SA\Desktop\VR回饋TIMER\HT66F70A.c"
 195  003C  1F00     R  	clr _ff[0]
 195  003D  1F00     R  	clr _ff[1]
 196  003E              #line 196 "C:\Users\SA\Desktop\VR回饋TIMER\HT66F70A.c"
 196  003E  0F30        	mov a,48
 196  003F  0080     R  	mov _s2[0],a
 197  0040              #line 197 "C:\Users\SA\Desktop\VR回饋TIMER\HT66F70A.c"
 197  0040  0F30        	mov a,48
 197  0041  0080     R  	mov _s[0],a
 198  0042              #line 198 "C:\Users\SA\Desktop\VR回饋TIMER\HT66F70A.c"
 198  0042  301E        	set [30].0
 198  0043  309E        	set [30].1
 198  0044  311E        	set [30].2
 198  0045  319E        	set [30].3
"File: HT66F70A.c    Assembler  Version HGASM0202      Page 15

 198  0046              _L46:
 200  0046              #line 200 "C:\Users\SA\Desktop\VR回饋TIMER\HT66F70A.c"
 200  0046  0700     R  	mov a,_r1[0]
 200  0047  0C01        	xor a,1
 200  0048  0500     R  	or a,_r1[1]
 200  0049  390A        	snz z
 200  004A  2800     R  	jmp _L47
 201  004B              #line 201 "C:\Users\SA\Desktop\VR回饋TIMER\HT66F70A.c"
 201  004B  1480     R  	inc _gg[0]
 201  004C  3D0A        	sz z
 201  004D  1480     R  	inc _gg[1]
 201  004E              _L47:
 202  004E              #line 202 "C:\Users\SA\Desktop\VR回饋TIMER\HT66F70A.c"
 202  004E  0700     R  	mov a,_r2[0]
 202  004F  0C01        	xor a,1
 202  0050  0500     R  	or a,_r2[1]
 202  0051  390A        	snz z
 202  0052  2800     R  	jmp _L48
 203  0053              #line 203 "C:\Users\SA\Desktop\VR回饋TIMER\HT66F70A.c"
 203  0053  1480     R  	inc _dd[0]
 203  0054  3D0A        	sz z
 203  0055  1480     R  	inc _dd[1]
 203  0056              _L48:
 204  0056              #line 204 "C:\Users\SA\Desktop\VR回饋TIMER\HT66F70A.c"
 204  0056  0700     R  	mov a,_r3[0]
 204  0057  0C01        	xor a,1
 204  0058  0500     R  	or a,_r3[1]
 204  0059  390A        	snz z
 204  005A  2800     R  	jmp _L49
 205  005B              #line 205 "C:\Users\SA\Desktop\VR回饋TIMER\HT66F70A.c"
 205  005B  1480     R  	inc _ff[0]
 205  005C  3D0A        	sz z
 205  005D  1480     R  	inc _ff[1]
 205  005E              _L49:
 206  005E              #line 206 "C:\Users\SA\Desktop\VR回饋TIMER\HT66F70A.c"
 206  005E  3634        	clr [52].4
 206  005F  0700     E  	mov a,r2
 206  0060  008B        	mov bp,a
 206  0061  0700     E  	mov a,r3
 206  0062  008A        	mov status,a
 206  0063  0700     E  	mov a,r1
 206  0064  0004        	reti
 206  0065              _ISR_TIMER endp
 206  0065              
 206  0065              #line 206 "C:\Users\SA\Desktop\VR回饋TIMER\HT66F70A.c"
 206  0065              #pragma debug scope 1 1
 206  0065              ___wdtc equ [62]
 206  0000              @crom	.section 'crom'
 206  0000              _LC0:
 206  0000              	db 041h,054h,02bh,043h,057h,04ah,041h,050h,03dh,022h
 206  0005              	db 06eh,061h,066h,062h,075h,063h,032h,022h,02ch,022h
 206  000A              	db 034h,030h,033h,034h,033h,032h,034h,034h,022h,0dh
 206  000F              	db 0ah,00h
 206  0010              @crom	.section 'crom'
 206  0010              _LC1:
 206  0010              	db 041h,054h,02bh,043h,049h,050h,053h,054h,041h,052h
 206  0015              	db 054h,03dh,022h,054h,043h,050h,022h,02ch,022h,031h
 206  001A              	db 039h,032h,02eh,031h,036h,038h,02eh,034h,02eh,031h
 206  001F              	db 022h,02ch,038h,030h,038h,037h,0dh,0ah,00h
 206  0024              @crom	.section 'crom'
"File: HT66F70A.c    Assembler  Version HGASM0202      Page 16

 206  0024              _LC2:
 206  0024              	db 041h,054h,02bh,043h,049h,050h,04dh,04fh,044h,045h
 206  0029              	db 03dh,031h,0dh,0ah,00h
 206  002B              ___intc1 equ [49]
 206  002B              ___tm0c0 equ [94]
 206  002B              ___ifs0 equ [328]
 206  002B              ___integ equ [57]
 206  002B              public _main
 206  002B              #pragma debug scope 11 1
 209  002B              #line 209 "C:\Users\SA\Desktop\VR回饋TIMER\HT66F70A.c"
 209  002B              IFDEF WITH_DEFAULT_STARTUP
 209  002B              extern _main_initial0:near
 209  002B              extern _main_startup:near
 209  002B              ENDIF
 209  002B              
 209  002B              ROMBANK 0 @start
 209  0000              @start .section com_l 'code'
 209  0000              _main_startup1:
 209  0000              @start .section com_e 'code'
 209  0000  0F00     R  	mov a,bank _main
 209  0001  008B        	mov bp,a
 209  0002  2800     R  	jmp _main
 209  0003              
 209  0000              _main .section 'code'
 209  0000              _main proc
 212  0000              #line 212 "C:\Users\SA\Desktop\VR回饋TIMER\HT66F70A.c"
 212  0000  0FAF        	mov a,175
 212  0001  00BE        	mov [62],a
 213  0002              #line 213 "C:\Users\SA\Desktop\VR回饋TIMER\HT66F70A.c"
 213  0002              	fcall _UART_init
 214  0009              #line 214 "C:\Users\SA\Desktop\VR回饋TIMER\HT66F70A.c"
 214  0009              	fcall _GPIO_init
 217  0010              #line 217 "C:\Users\SA\Desktop\VR回饋TIMER\HT66F70A.c"
 217  0010  0FB8        	mov a,-72
 217  0011  0080     R  	mov _Delayms_2[0],a
 217  0012  0F0B        	mov a,11
 217  0013  0080     R  	mov _Delayms_2[1],a
 217  0014              	fcall _Delayms
 218  001B              #line 218 "C:\Users\SA\Desktop\VR回饋TIMER\HT66F70A.c"
 218  001B  0F1F        	mov a,31
 218  001C  0080     E  	mov _tx_string_2[2],a
 218  001D  1F00     E  	clr _tx_string_2[3]
 218  001E  0F00     R  	mov a,low offset _LC0
 218  001F  0080     E  	mov _tx_string_2[0],a
 218  0020  0F00     R  	mov a,high offset _LC0
 218  0021  0080     E  	mov _tx_string_2[1],a
 218  0022              	fcall _tx_string
 219  0029              #line 219 "C:\Users\SA\Desktop\VR回饋TIMER\HT66F70A.c"
 219  0029  0F58        	mov a,88
 219  002A  0080     R  	mov _Delayms_2[0],a
 219  002B  0F1B        	mov a,27
 219  002C  0080     R  	mov _Delayms_2[1],a
 219  002D              	fcall _Delayms
 220  0034              #line 220 "C:\Users\SA\Desktop\VR回饋TIMER\HT66F70A.c"
 220  0034  0F26        	mov a,38
 220  0035  0080     E  	mov _tx_string_2[2],a
 220  0036  1F00     E  	clr _tx_string_2[3]
 220  0037  0F00     R  	mov a,low offset _LC1
 220  0038  0080     E  	mov _tx_string_2[0],a
 220  0039  0F00     R  	mov a,high offset _LC1
"File: HT66F70A.c    Assembler  Version HGASM0202      Page 17

 220  003A  0080     E  	mov _tx_string_2[1],a
 220  003B              	fcall _tx_string
 221  0042              #line 221 "C:\Users\SA\Desktop\VR回饋TIMER\HT66F70A.c"
 221  0042  0FE8        	mov a,-24
 221  0043  0080     R  	mov _Delayms_2[0],a
 221  0044  0F03        	mov a,3
 221  0045  0080     R  	mov _Delayms_2[1],a
 221  0046              	fcall _Delayms
 222  004D              #line 222 "C:\Users\SA\Desktop\VR回饋TIMER\HT66F70A.c"
 222  004D  0F0E        	mov a,14
 222  004E  0080     E  	mov _tx_string_2[2],a
 222  004F  1F00     E  	clr _tx_string_2[3]
 222  0050  0F00     R  	mov a,low offset _LC2
 222  0051  0080     E  	mov _tx_string_2[0],a
 222  0052  0F00     R  	mov a,high offset _LC2
 222  0053  0080     E  	mov _tx_string_2[1],a
 222  0054              	fcall _tx_string
 223  005B              #line 223 "C:\Users\SA\Desktop\VR回饋TIMER\HT66F70A.c"
 223  005B  0FF4        	mov a,-12
 223  005C  0080     R  	mov _Delayms_2[0],a
 223  005D  0F01        	mov a,1
 223  005E  0080     R  	mov _Delayms_2[1],a
 223  005F              	fcall _Delayms
 226  0066              #line 226 "C:\Users\SA\Desktop\VR回饋TIMER\HT66F70A.c"
 226  0066  3030        	set [48].0
 227  0067              #line 227 "C:\Users\SA\Desktop\VR回饋TIMER\HT66F70A.c"
 227  0067  30B1        	set [49].1
 228  0068              #line 228 "C:\Users\SA\Desktop\VR回饋TIMER\HT66F70A.c"
 228  0068  0F01        	mov a,1
 228  0069  00B4        	mov [52],a
 229  006A              #line 229 "C:\Users\SA\Desktop\VR回饋TIMER\HT66F70A.c"
 229  006A  0F08        	mov a,8
 229  006B  00DE        	mov [94],a
 231  006C              #line 231 "C:\Users\SA\Desktop\VR回饋TIMER\HT66F70A.c"
 231  006C  0F08        	mov a,8
 231  006D  80C8 0001   	lmov [328],a
 232  006F              #line 232 "C:\Users\SA\Desktop\VR回饋TIMER\HT66F70A.c"
 232  006F  0F08        	mov a,8
 232  0070  00B9        	mov [57],a
 233  0071              #line 233 "C:\Users\SA\Desktop\VR回饋TIMER\HT66F70A.c"
 233  0071  0F05        	mov a,5
 233  0072  00B0        	mov [48],a
 234  0073              #line 234 "C:\Users\SA\Desktop\VR回饋TIMER\HT66F70A.c"
 234  0073  339E        	set [30].7
 234  0074              _L51:
 237  0074              #line 237 "C:\Users\SA\Desktop\VR回饋TIMER\HT66F70A.c"
 237  0074              	fcall _LED
 237  007B  2800     R  	jmp _L51
 237  007C  2800     R  	jmp $
 237  007D              _main endp
 237  007D              
 237  007D              @dummy endp
 237  007D              
 237  007D              #line 237 "C:\Users\SA\Desktop\VR回饋TIMER\HT66F70A.c"
 237  007D              #pragma debug scope 1 1
 237  007D              public _r3
 237  0000              @HCCINIT	.section 'data'
  21  0000              #line 21 "C:\Users\SA\Desktop\VR回饋TIMER\HT66F70A.c"
  21  0000              @HCCINIT_r3 .section 'data'
  21  0000              _r3 label byte
"File: HT66F70A.c    Assembler  Version HGASM0202      Page 18

  21  0000              #pragma debug variable 11 1 _r3 "r3"
  21  0000              	db 0
  21  0000              @ROMDATA_BASE .section inpage 'code'
  21  0000              	db 0
  21  0001              @HCCINIT_r3 .section 'data'
  21  0001              	db 0
  21  0001              @ROMDATA_BASE .section inpage 'code'
  21  0001              	db 0
  21  0002              @HCCINIT_r3 .section 'data'
  21  0002              public _r2
  21  0002              #line 21 "C:\Users\SA\Desktop\VR回饋TIMER\HT66F70A.c"
  21  0000              @HCCINIT_r2 .section 'data'
  21  0000              _r2 label byte
  21  0000              #pragma debug variable 11 1 _r2 "r2"
  21  0000              	db 0
  21  0001              @ROMDATA_BASE .section inpage 'code'
  21  0001              	db 0
  21  0001              @HCCINIT_r2 .section 'data'
  21  0001              	db 0
  21  0002              @ROMDATA_BASE .section inpage 'code'
  21  0002              	db 0
  21  0002              @HCCINIT_r2 .section 'data'
  21  0002              public _r1
  21  0002              #line 21 "C:\Users\SA\Desktop\VR回饋TIMER\HT66F70A.c"
  21  0000              @HCCINIT_r1 .section 'data'
  21  0000              _r1 label byte
  21  0000              #pragma debug variable 11 1 _r1 "r1"
  21  0000              	db 0
  21  0002              @ROMDATA_BASE .section inpage 'code'
  21  0002              	db 0
  21  0001              @HCCINIT_r1 .section 'data'
  21  0001              	db 0
  21  0003              @ROMDATA_BASE .section inpage 'code'
  21  0003              	db 0
  21  0002              @HCCINIT_r1 .section 'data'
  21  0002              public _ff
  20  0002              #line 20 "C:\Users\SA\Desktop\VR回饋TIMER\HT66F70A.c"
  20  0000              @HCCINIT_ff .section 'data'
  20  0000              _ff label byte
  20  0000              #pragma debug variable 11 1 _ff "ff"
  20  0000              	db 0
  20  0003              @ROMDATA_BASE .section inpage 'code'
  20  0003              	db 0
  20  0001              @HCCINIT_ff .section 'data'
  20  0001              	db 0
  20  0004              @ROMDATA_BASE .section inpage 'code'
  20  0004              	db 0
  20  0002              @HCCINIT_ff .section 'data'
  20  0002              public _dd
  19  0002              #line 19 "C:\Users\SA\Desktop\VR回饋TIMER\HT66F70A.c"
  19  0000              @HCCINIT_dd .section 'data'
  19  0000              _dd label byte
  19  0000              #pragma debug variable 11 1 _dd "dd"
  19  0000              	db 0
  19  0004              @ROMDATA_BASE .section inpage 'code'
  19  0004              	db 0
  19  0001              @HCCINIT_dd .section 'data'
  19  0001              	db 0
  19  0005              @ROMDATA_BASE .section inpage 'code'
  19  0005              	db 0
"File: HT66F70A.c    Assembler  Version HGASM0202      Page 19

  19  0002              @HCCINIT_dd .section 'data'
  19  0002              public _gg
  18  0002              #line 18 "C:\Users\SA\Desktop\VR回饋TIMER\HT66F70A.c"
  18  0000              @HCCINIT_gg .section 'data'
  18  0000              _gg label byte
  18  0000              #pragma debug variable 11 1 _gg "gg"
  18  0000              	db 0
  18  0005              @ROMDATA_BASE .section inpage 'code'
  18  0005              	db 0
  18  0001              @HCCINIT_gg .section 'data'
  18  0001              	db 0
  18  0006              @ROMDATA_BASE .section inpage 'code'
  18  0006              	db 0
  18  0002              @HCCINIT_gg .section 'data'
  18  0002              public _s2
  17  0002              #line 17 "C:\Users\SA\Desktop\VR回饋TIMER\HT66F70A.c"
  17  0000              @HCCINIT_s2 .section 'data'
  17  0000              _s2 label byte
  17  0000              #pragma debug variable 7 1 _s2 "s2"
  17  0000              	db 48
  17  0006              @ROMDATA_BASE .section inpage 'code'
  17  0006              	db 48
  17  0001              @HCCINIT_s2 .section 'data'
  17  0001              public _s
  17  0001              #line 17 "C:\Users\SA\Desktop\VR回饋TIMER\HT66F70A.c"
  17  0000              @HCCINIT_s .section 'data'
  17  0000              _s label byte
  17  0000              #pragma debug variable 7 1 _s "s"
  17  0000              	db 48
  17  0007              @ROMDATA_BASE .section inpage 'code'
  17  0007              	db 48
  17  0001              @HCCINIT_s .section 'data'
  17  0001              public _output1
  16  0001              #line 16 "C:\Users\SA\Desktop\VR回饋TIMER\HT66F70A.c"
  16  0000              @HCCINIT_output1 .section 'data'
  16  0000              _output1 label byte
  16  0000              #pragma debug array 42 7 4 1
  16  0000              #pragma debug array 42 7 4 1
  16  0000              #pragma debug variable 42 1 _output1 "output1"
  16  0000              	db 48
  16  0007              @ROMDATA_BASE .section inpage 'code'
  16  0007              	db 48
  16  0001              @HCCINIT_output1 .section 'data'
  16  0001              	db 49
  16  0008              @ROMDATA_BASE .section inpage 'code'
  16  0008              	db 49
  16  0002              @HCCINIT_output1 .section 'data'
  16  0002              	db 0
  16  0008              @ROMDATA_BASE .section inpage 'code'
  16  0008              	db 0
  16  0003              @HCCINIT_output1 .section 'data'
  16  0003              	db 0
  16  0009              @ROMDATA_BASE .section inpage 'code'
  16  0009              	db 0
  16  0004              @HCCINIT_output1 .section 'data'
  16  0004              #pragma debug struct_end
  16  0004              #pragma debug struct_end
  16  0004              #pragma debug union_end
  16  0004              #pragma debug union_end
  16  0004              #pragma debug variable 44 1 ___pc "__pc" 1
"File: HT66F70A.c    Assembler  Version HGASM0202      Page 20

  16  0004              #pragma debug struct_end
  16  0004              #pragma debug struct_end
  16  0004              #pragma debug union_end
  16  0004              #pragma debug union_end
  16  0004              #pragma debug variable 46 1 ___pcc "__pcc" 1
  16  0004              #pragma debug struct_end
  16  0004              #pragma debug struct_end
  16  0004              #pragma debug union_end
  16  0004              #pragma debug union_end
  16  0004              #pragma debug variable 48 1 ___pd "__pd" 1
  16  0004              #pragma debug struct_end
  16  0004              #pragma debug struct_end
  16  0004              #pragma debug union_end
  16  0004              #pragma debug union_end
  16  0004              #pragma debug variable 50 1 ___pdc "__pdc" 1
  16  0004              #pragma debug struct_end
  16  0004              #pragma debug struct_end
  16  0004              #pragma debug union_end
  16  0004              #pragma debug union_end
  16  0004              #pragma debug variable 52 1 ___pe "__pe" 1
  16  0004              #pragma debug struct_end
  16  0004              #pragma debug struct_end
  16  0004              #pragma debug union_end
  16  0004              #pragma debug union_end
  16  0004              #pragma debug variable 54 1 ___pec "__pec" 1
  16  0004              #pragma debug struct_end
  16  0004              #pragma debug struct_end
  16  0004              #pragma debug union_end
  16  0004              #pragma debug union_end
  16  0004              #pragma debug variable 56 1 ___pg "__pg" 1
  16  0004              #pragma debug struct_end
  16  0004              #pragma debug struct_end
  16  0004              #pragma debug union_end
  16  0004              #pragma debug union_end
  16  0004              #pragma debug variable 58 1 ___pgc "__pgc" 1
  16  0004              #pragma debug struct_end
  16  0004              #pragma debug struct_end
  16  0004              #pragma debug union_end
  16  0004              #pragma debug union_end
  16  0004              #pragma debug variable 60 1 ___intc0 "__intc0" 1
  16  0004              #pragma debug struct_end
  16  0004              #pragma debug struct_end
  16  0004              #pragma debug union_end
  16  0004              #pragma debug union_end
  16  0004              #pragma debug variable 62 1 ___intc1 "__intc1" 1
  16  0004              #pragma debug struct_end
  16  0004              #pragma debug struct_end
  16  0004              #pragma debug union_end
  16  0004              #pragma debug union_end
  16  0004              #pragma debug variable 64 1 ___mfi0 "__mfi0" 1
  16  0004              #pragma debug struct_end
  16  0004              #pragma debug struct_end
  16  0004              #pragma debug union_end
  16  0004              #pragma debug union_end
  16  0004              #pragma debug variable 66 1 ___integ "__integ" 1
  16  0004              #pragma debug struct_end
  16  0004              #pragma debug struct_end
  16  0004              #pragma debug union_end
  16  0004              #pragma debug union_end
  16  0004              #pragma debug variable 68 1 ___wdtc "__wdtc" 1
"File: HT66F70A.c    Assembler  Version HGASM0202      Page 21

  16  0004              #pragma debug struct_end
  16  0004              #pragma debug struct_end
  16  0004              #pragma debug union_end
  16  0004              #pragma debug union_end
  16  0004              #pragma debug variable 70 1 ___tm0c0 "__tm0c0" 1
  16  0004              #pragma debug struct_end
  16  0004              #pragma debug struct_end
  16  0004              #pragma debug union_end
  16  0004              #pragma debug union_end
  16  0004              #pragma debug variable 72 1 ___ifs0 "__ifs0" 1
  16  0004              extern r1:byte
  16  0004              extern r2:byte
  16  0004              extern r3:byte
  16  0004              extern r4:byte
  16  0004              extern r5:byte
  16  0004              extern r6:byte
  16  0004              extern r7:byte
 209  0004              #line 209 "C:\Users\SA\Desktop\VR回饋TIMER\HT66F70A.c"
 209  0000              @code .section at 0 'code'
 209  0000  1F0B        	clr bp
 209  0001  2800     R  	jmp _main_startup1
 209  0002              
 209  0002              extern _PC_RX:near
 209  0002              extern _UART_init:near
 209  0002              extern _tx_string_2:byte
 209  0002              extern _tx_string:near
 209  0002              
 209  0002              ; 
 209  0002              ; Generated by holtek-gcc v3.17, Thu Oct 12 13:32:22 2017
 209  0002              ; Rebuild 307
 209  0002              ; end of file


        0 Errors, 0