"File: UART.c        Assembler  Version HGASM0202      Page 1


   1  0000              ; Generated by holtek-gcc v3.17, Thu Oct 12 13:32:22 2017
   2  0000              ; 
   3  0000              ; Configuration:
   4  0000              ;       with long instruction
   5  0000              ;       Multi-ROM, Multi-RAM
   6  0000              ;       bits_per_rom_unit:16
   7  0000              ;       with mp1
   8  0000              ;       with tbhp, address(0x9)
   9  0000              ;          Use tabrd-const
  10  0000              ;       
  11  0000              ; SFR address of long-instruction arch:
  12  0000              ;    mp0 = -1,1,0
  13  0000              ;    mp1 = 4,3,2
  14  0000              ;    mp2 = 14,13,12
  15  0000              ;    tbp = 9,7,8
  16  0000              ;    acc = 5
  17  0000              ;    pcl = 6
  18  0000              ;    status = 10
  19  0000              ;    bp = 11
  20  0000              ;    intc = 48
  21  0000              ;       
  22  0000              ;       
  23  0000              ; use 'tabrdc' instead of 'tabrd'
  24  0000              ;       
  25  0000              
  26  0000              #pragma translator "holtek-gcc 4.6.4" "3.17" "build 20130711"
  27  0000              ; Rebuild 307
  28  0000              
  29  0000              ir equ [2]
  30  0000              mp equ [3]
  31  0000              sbp equ [4]
  32  0000              acc equ [5]
  33  0000              bp equ [11]
  34  0000              tblp equ [7]
  35  0000              tbhp equ [9]
  36  0000              status equ [10]
  37  0000              c equ [10].0
  38  0000              ac equ [10].1
  39  0000              z equ [10].2
  40  0000              ov equ [10].3
  41  0000              cz equ [10].6
  42  0000              sc equ [10].7
  43  0000              intc equ [48]
  44  0000              
  45  0000              extern ra:byte
  46  0000              extern rb:byte
  47  0000              extern rc:byte
  48  0000              extern rd:byte
  49  0000              extern re:byte
  50  0000              extern rf:byte
  51  0000              extern rg:byte
  52  0000              extern rh:byte
  53  0000              extern _Crom2Prom:near
  54  0000              extern _Crom2PromNext:near
  55  0000              
  56  0000              RAMBANK 0 @BITDATASEC, @BITDATASEC1
  57  0000              @HCCINIT	.section 'data'
  58  0000              @HCCINIT0	.section 'data'
  59  0000              @BITDATASEC	 .section 'data'
"File: UART.ASM      Assembler  Version HGASM0202      Page 2

  60  0000              @BITDATASEC1	 .section 'data'
  61  0000              
  62  0000              #pragma debug scope 1 1
  63  0000              	extern __DELAY3:near
  64  0000              	extern __DELAYX3:near
  65  0000              	extern __DELAYX6:near
  66  0000              	extern __DELAYY5:near
  67  0000              	extern __DELAYY3:near
  68  0000              	extern _builtin_holtek_delay_2:byte
  69  0000              ___pec equ [35]
  70  0000              ___pe equ [34]
  71  0000              public _UART_init
  72  0000              #pragma debug scope 2 1

  21  0000              #line 21 "C:\Users\SA\Desktop\VR回饋TIMER\UART.c"
  21  0000              _UART_init .section 'code'
  21  0000              _UART_init proc
  22  0000              #line 22 "C:\Users\SA\Desktop\VR回饋TIMER\UART.c"
  22  0000  30A3        	set [35].1
  23  0001              #line 23 "C:\Users\SA\Desktop\VR回饋TIMER\UART.c"
  23  0001  3423        	clr [35].0
  24  0002              #line 24 "C:\Users\SA\Desktop\VR回饋TIMER\UART.c"
  24  0002  3022        	set [34].0
  24  0003  0003        	ret
  24  0004              _UART_init endp
  24  0004              #line 24 "C:\Users\SA\Desktop\VR回饋TIMER\UART.c"
  24  0004              #pragma debug scope 1 1
  24  0004              public _PC_RX
  24  0004              #pragma debug scope 3 1
  28  0004              #line 28 "C:\Users\SA\Desktop\VR回饋TIMER\UART.c"
  28  0000              _PC_RX .section 'code'
  28  0000              _PC_RX proc
  32  0000              #line 32 "C:\Users\SA\Desktop\VR回饋TIMER\UART.c"
  32  0000              ;# 32 "C:\Users\SA\Desktop\VR回饋TIMER\UART.c" 1
  32  0000              	IF 212>263690
  32  0000              ;# 32 "C:\Users\SA\Desktop\VR回饋TIMER\UART.c" 1
  32  0000              	ERRMESSAGE 'the value 212of the argument exceeds the maxinum 263690'
  32  0000              	ENDIF
  32  0000              ;# 32 "C:\Users\SA\Desktop\VR回饋TIMER\UART.c" 1
  32  0000              	IF 212<0
  32  0000              ;# 32 "C:\Users\SA\Desktop\VR回饋TIMER\UART.c" 1
  32  0000              	ERRMESSAGE 'the value 212 of the argument exceeds the mininum 0'
  32  0000              	ENDIF
  32  0000              ;# 32 "C:\Users\SA\Desktop\VR回饋TIMER\UART.c" 1
  32  0000              	IF 212==0
  32  0000              ;# 32 "C:\Users\SA\Desktop\VR回饋TIMER\UART.c" 1
  32  0000              	JMP $
  32  0000              	ENDIF
  32  0000              ;# 32 "C:\Users\SA\Desktop\VR回饋TIMER\UART.c" 1
  32  0000              	IF (212>=1) AND (212<( 4 + __PBP__ * 2))
  32  0000              ;# 32 "C:\Users\SA\Desktop\VR回饋TIMER\UART.c" 1
  32  0000              	NOP
  32  0000              	ENDIF
  32  0000              ;# 32 "C:\Users\SA\Desktop\VR回饋TIMER\UART.c" 1
  32  0000              	IF (212>=2) AND (212<( 4 + __PBP__ * 2))
  32  0000              ;# 32 "C:\Users\SA\Desktop\VR回饋TIMER\UART.c" 1
  32  0000              	NOP
  32  0000              	ENDIF
  32  0000              ;# 32 "C:\Users\SA\Desktop\VR回饋TIMER\UART.c" 1
  32  0000              	IF (212>=3) AND (212<( 4 + __PBP__ * 2))
"File: UART.c        Assembler  Version HGASM0202      Page 3

  32  0000              ;# 32 "C:\Users\SA\Desktop\VR回饋TIMER\UART.c" 1
  32  0000              	NOP
  32  0000              	ENDIF
  32  0000              ;# 32 "C:\Users\SA\Desktop\VR回饋TIMER\UART.c" 1
  32  0000              	IF (212>=4) AND (212<( 4 + __PBP__ * 2)) AND ( __PBP__ > 0 )
  32  0000              ;# 32 "C:\Users\SA\Desktop\VR回饋TIMER\UART.c" 1
  32  0000              	NOP
  32  0000              	ENDIF
  32  0000              ;# 32 "C:\Users\SA\Desktop\VR回饋TIMER\UART.c" 1
  32  0000              	IF (212>=5) AND (212<( 4 + __PBP__ * 2)) AND ( __PBP__ > 0 )
  32  0000              ;# 32 "C:\Users\SA\Desktop\VR回饋TIMER\UART.c" 1
  32  0000              	NOP
  32  0000              	ENDIF
  32  0000              ;# 32 "C:\Users\SA\Desktop\VR回饋TIMER\UART.c" 1
  32  0000              	IF (212>=6) AND (212<( 4 + __PBP__ * 2))  AND ( __PBP__ > 1 )
  32  0000              ;# 32 "C:\Users\SA\Desktop\VR回饋TIMER\UART.c" 1
  32  0000              	NOP
  32  0000              	ENDIF
  32  0000              ;# 32 "C:\Users\SA\Desktop\VR回饋TIMER\UART.c" 1
  32  0000              	IF (212>=7) AND (212<( 4 + __PBP__ * 2))  AND ( __PBP__ > 1 )
  32  0000              ;# 32 "C:\Users\SA\Desktop\VR回饋TIMER\UART.c" 1
  32  0000              	NOP
  32  0000              	ENDIF
  32  0000              ;# 32 "C:\Users\SA\Desktop\VR回饋TIMER\UART.c" 1
  32  0000              	IF (212>=8) AND (212<( 4 + __PBP__ * 2))  AND ( __PBP__ > 2 )
  32  0000              ;# 32 "C:\Users\SA\Desktop\VR回饋TIMER\UART.c" 1
  32  0000              	NOP
  32  0000              	ENDIF
  32  0000              ;# 32 "C:\Users\SA\Desktop\VR回饋TIMER\UART.c" 1
  32  0000              	IF (212==9)  AND ( __PBP__ > 2 )
  32  0000              ;# 32 "C:\Users\SA\Desktop\VR回饋TIMER\UART.c" 1
  32  0000              	NOP
  32  0000              	ENDIF
  32  0000              ;# 32 "C:\Users\SA\Desktop\VR回饋TIMER\UART.c" 1
  32  0000              	IF (212< ( 8 + __PBP__ * 2)) AND (212>( 3 + __PBP__ * 2))
  32  0000              ;# 32 "C:\Users\SA\Desktop\VR回饋TIMER\UART.c" 1
  32  0000              	fcall __DELAY3 + ( 7 + __PBP__ * 2) -212
  32  0000              	ENDIF
  32  0000              ;# 32 "C:\Users\SA\Desktop\VR回饋TIMER\UART.c" 1
  32  0000              	IF (212< ( 0404h + __PBP__ * 2)) AND (212>( 7 + __PBP__ * 2))
  32  0000              ;# 32 "C:\Users\SA\Desktop\VR回饋TIMER\UART.c" 1
  32  0000  0F33        	MOV A,(212-( 4 + __PBP__ * 2))/4
  32  0001              ;# 32 "C:\Users\SA\Desktop\VR回饋TIMER\UART.c" 1
  32  0001              	fcall __DELAYX3 + 3 -((212-( 4 + __PBP__ * 2)) MOD 4) 
  32  0008              	ENDIF
  32  0008              ;# 32 "C:\Users\SA\Desktop\VR回饋TIMER\UART.c" 1
  32  0008              	IF (212< ( 040bh + __PBP__ * 2)) AND (212> ( 0403h + __PBP__ * 2))
  32  0008              ;# 32 "C:\Users\SA\Desktop\VR回饋TIMER\UART.c" 1
  32  0008              	MOV A,0 
  32  0008              ;# 32 "C:\Users\SA\Desktop\VR回饋TIMER\UART.c" 1
  32  0008              	fcall __DELAYX6 + ( 040ah + __PBP__ * 2) -212
  32  0008              	ENDIF
  32  0008              ;# 32 "C:\Users\SA\Desktop\VR回饋TIMER\UART.c" 1
  32  0008              	IF (212 >= ( 040bh + __PBP__ * 2)) AND ((((212-( 9 + __PBP__ * 2))%0402h)/4+1)>256)
  32  0008              ;# 32 "C:\Users\SA\Desktop\VR回饋TIMER\UART.c" 1
  32  0008              	MOV A,(212-( 9 + __PBP__ * 2))/0402h
  32  0008              ;# 32 "C:\Users\SA\Desktop\VR回饋TIMER\UART.c" 1
  32  0008              	MOV _builtin_holtek_delay_2,A
  32  0008              ;# 32 "C:\Users\SA\Desktop\VR回饋TIMER\UART.c" 1
  32  0008              	MOV A,0
"File: UART.c        Assembler  Version HGASM0202      Page 4

  32  0008              ;# 32 "C:\Users\SA\Desktop\VR回饋TIMER\UART.c" 1
  32  0008              	fcall __DELAYY5 +5- (((212-( 9 + __PBP__ * 2))%0402h)%6) 
  32  0008              	ENDIF
  32  0008              ;# 32 "C:\Users\SA\Desktop\VR回饋TIMER\UART.c" 1
  32  0008              	IF (212 >= ( 040bh + __PBP__ * 2)) AND ((((212-( 9 + __PBP__ * 2))%0402h)/4+1)<=256)
  32  0008              ;# 32 "C:\Users\SA\Desktop\VR回饋TIMER\UART.c" 1
  32  0008              	MOV A,(212-( 9 + __PBP__ * 2))/0402h
  32  0008              ;# 32 "C:\Users\SA\Desktop\VR回饋TIMER\UART.c" 1
  32  0008              	MOV _builtin_holtek_delay_2,A
  32  0008              ;# 32 "C:\Users\SA\Desktop\VR回饋TIMER\UART.c" 1
  32  0008              	MOV A,((212-( 9 + __PBP__ * 2))%0402h)/4+1
  32  0008              ;# 32 "C:\Users\SA\Desktop\VR回饋TIMER\UART.c" 1
  32  0008              	fcall __DELAYY3 +3-(((212-( 9 + __PBP__ * 2))%0402h)%4) 
  32  0008              	ENDIF
  33  0008              #line 33 "C:\Users\SA\Desktop\VR回饋TIMER\UART.c"
  33  0008              ;# 33 "C:\Users\SA\Desktop\VR回饋TIMER\UART.c" 1
  33  0008              	IF 212/2>263690
  33  0008              ;# 33 "C:\Users\SA\Desktop\VR回饋TIMER\UART.c" 1
  33  0008              	ERRMESSAGE 'the value 212/2of the argument exceeds the maxinum 263690'
  33  0008              	ENDIF
  33  0008              ;# 33 "C:\Users\SA\Desktop\VR回饋TIMER\UART.c" 1
  33  0008              	IF 212/2<0
  33  0008              ;# 33 "C:\Users\SA\Desktop\VR回饋TIMER\UART.c" 1
  33  0008              	ERRMESSAGE 'the value 212/2 of the argument exceeds the mininum 0'
  33  0008              	ENDIF
  33  0008              ;# 33 "C:\Users\SA\Desktop\VR回饋TIMER\UART.c" 1
  33  0008              	IF 212/2==0
  33  0008              ;# 33 "C:\Users\SA\Desktop\VR回饋TIMER\UART.c" 1
  33  0008              	JMP $
  33  0008              	ENDIF
  33  0008              ;# 33 "C:\Users\SA\Desktop\VR回饋TIMER\UART.c" 1
  33  0008              	IF (212/2>=1) AND (212/2<( 4 + __PBP__ * 2))
  33  0008              ;# 33 "C:\Users\SA\Desktop\VR回饋TIMER\UART.c" 1
  33  0008              	NOP
  33  0008              	ENDIF
  33  0008              ;# 33 "C:\Users\SA\Desktop\VR回饋TIMER\UART.c" 1
  33  0008              	IF (212/2>=2) AND (212/2<( 4 + __PBP__ * 2))
  33  0008              ;# 33 "C:\Users\SA\Desktop\VR回饋TIMER\UART.c" 1
  33  0008              	NOP
  33  0008              	ENDIF
  33  0008              ;# 33 "C:\Users\SA\Desktop\VR回饋TIMER\UART.c" 1
  33  0008              	IF (212/2>=3) AND (212/2<( 4 + __PBP__ * 2))
  33  0008              ;# 33 "C:\Users\SA\Desktop\VR回饋TIMER\UART.c" 1
  33  0008              	NOP
  33  0008              	ENDIF
  33  0008              ;# 33 "C:\Users\SA\Desktop\VR回饋TIMER\UART.c" 1
  33  0008              	IF (212/2>=4) AND (212/2<( 4 + __PBP__ * 2)) AND ( __PBP__ > 0 )
  33  0008              ;# 33 "C:\Users\SA\Desktop\VR回饋TIMER\UART.c" 1
  33  0008              	NOP
  33  0008              	ENDIF
  33  0008              ;# 33 "C:\Users\SA\Desktop\VR回饋TIMER\UART.c" 1
  33  0008              	IF (212/2>=5) AND (212/2<( 4 + __PBP__ * 2)) AND ( __PBP__ > 0 )
  33  0008              ;# 33 "C:\Users\SA\Desktop\VR回饋TIMER\UART.c" 1
  33  0008              	NOP
  33  0008              	ENDIF
  33  0008              ;# 33 "C:\Users\SA\Desktop\VR回饋TIMER\UART.c" 1
  33  0008              	IF (212/2>=6) AND (212/2<( 4 + __PBP__ * 2))  AND ( __PBP__ > 1 )
  33  0008              ;# 33 "C:\Users\SA\Desktop\VR回饋TIMER\UART.c" 1
  33  0008              	NOP
  33  0008              	ENDIF
"File: UART.c        Assembler  Version HGASM0202      Page 5

  33  0008              ;# 33 "C:\Users\SA\Desktop\VR回饋TIMER\UART.c" 1
  33  0008              	IF (212/2>=7) AND (212/2<( 4 + __PBP__ * 2))  AND ( __PBP__ > 1 )
  33  0008              ;# 33 "C:\Users\SA\Desktop\VR回饋TIMER\UART.c" 1
  33  0008              	NOP
  33  0008              	ENDIF
  33  0008              ;# 33 "C:\Users\SA\Desktop\VR回饋TIMER\UART.c" 1
  33  0008              	IF (212/2>=8) AND (212/2<( 4 + __PBP__ * 2))  AND ( __PBP__ > 2 )
  33  0008              ;# 33 "C:\Users\SA\Desktop\VR回饋TIMER\UART.c" 1
  33  0008              	NOP
  33  0008              	ENDIF
  33  0008              ;# 33 "C:\Users\SA\Desktop\VR回饋TIMER\UART.c" 1
  33  0008              	IF (212/2==9)  AND ( __PBP__ > 2 )
  33  0008              ;# 33 "C:\Users\SA\Desktop\VR回饋TIMER\UART.c" 1
  33  0008              	NOP
  33  0008              	ENDIF
  33  0008              ;# 33 "C:\Users\SA\Desktop\VR回饋TIMER\UART.c" 1
  33  0008              	IF (212/2< ( 8 + __PBP__ * 2)) AND (212/2>( 3 + __PBP__ * 2))
  33  0008              ;# 33 "C:\Users\SA\Desktop\VR回饋TIMER\UART.c" 1
  33  0008              	fcall __DELAY3 + ( 7 + __PBP__ * 2) -212/2
  33  0008              	ENDIF
  33  0008              ;# 33 "C:\Users\SA\Desktop\VR回饋TIMER\UART.c" 1
  33  0008              	IF (212/2< ( 0404h + __PBP__ * 2)) AND (212/2>( 7 + __PBP__ * 2))
  33  0008              ;# 33 "C:\Users\SA\Desktop\VR回饋TIMER\UART.c" 1
  33  0008  0F18        	MOV A,(212/2-( 4 + __PBP__ * 2))/4
  33  0009              ;# 33 "C:\Users\SA\Desktop\VR回饋TIMER\UART.c" 1
  33  0009              	fcall __DELAYX3 + 3 -((212/2-( 4 + __PBP__ * 2)) MOD 4) 
  33  0010              	ENDIF
  33  0010              ;# 33 "C:\Users\SA\Desktop\VR回饋TIMER\UART.c" 1
  33  0010              	IF (212/2< ( 040bh + __PBP__ * 2)) AND (212/2> ( 0403h + __PBP__ * 2))
  33  0010              ;# 33 "C:\Users\SA\Desktop\VR回饋TIMER\UART.c" 1
  33  0010              	MOV A,0 
  33  0010              ;# 33 "C:\Users\SA\Desktop\VR回饋TIMER\UART.c" 1
  33  0010              	fcall __DELAYX6 + ( 040ah + __PBP__ * 2) -212/2
  33  0010              	ENDIF
  33  0010              ;# 33 "C:\Users\SA\Desktop\VR回饋TIMER\UART.c" 1
  33  0010              	IF (212/2 >= ( 040bh + __PBP__ * 2)) AND ((((212/2-( 9 + __PBP__ * 2))%0402h)/4+1)>256)
  33  0010              ;# 33 "C:\Users\SA\Desktop\VR回饋TIMER\UART.c" 1
  33  0010              	MOV A,(212/2-( 9 + __PBP__ * 2))/0402h
  33  0010              ;# 33 "C:\Users\SA\Desktop\VR回饋TIMER\UART.c" 1
  33  0010              	MOV _builtin_holtek_delay_2,A
  33  0010              ;# 33 "C:\Users\SA\Desktop\VR回饋TIMER\UART.c" 1
  33  0010              	MOV A,0
  33  0010              ;# 33 "C:\Users\SA\Desktop\VR回饋TIMER\UART.c" 1
  33  0010              	fcall __DELAYY5 +5- (((212/2-( 9 + __PBP__ * 2))%0402h)%6) 
  33  0010              	ENDIF
  33  0010              ;# 33 "C:\Users\SA\Desktop\VR回饋TIMER\UART.c" 1
  33  0010              	IF (212/2 >= ( 040bh + __PBP__ * 2)) AND ((((212/2-( 9 + __PBP__ * 2))%0402h)/4+1)<=256)
  33  0010              ;# 33 "C:\Users\SA\Desktop\VR回饋TIMER\UART.c" 1
  33  0010              	MOV A,(212/2-( 9 + __PBP__ * 2))/0402h
  33  0010              ;# 33 "C:\Users\SA\Desktop\VR回饋TIMER\UART.c" 1
  33  0010              	MOV _builtin_holtek_delay_2,A
  33  0010              ;# 33 "C:\Users\SA\Desktop\VR回饋TIMER\UART.c" 1
  33  0010              	MOV A,((212/2-( 9 + __PBP__ * 2))%0402h)/4+1
  33  0010              ;# 33 "C:\Users\SA\Desktop\VR回饋TIMER\UART.c" 1
  33  0010              	fcall __DELAYY3 +3-(((212/2-( 9 + __PBP__ * 2))%0402h)%4) 
  33  0010              	ENDIF
  33  0010  0F08        	mov a,8
  33  0011  0080     E  	mov rb,a
  29  0012              #line 29 "C:\Users\SA\Desktop\VR回饋TIMER\UART.c"
  29  0012  1F00     E  	clr ra
"File: UART.c        Assembler  Version HGASM0202      Page 6

  29  0013              _L5:
  36  0013              #line 36 "C:\Users\SA\Desktop\VR回饋TIMER\UART.c"
  36  0013  340A        	clr c
  36  0014  1B80     E  	rrc ra
  37  0015              #line 37 "C:\Users\SA\Desktop\VR回饋TIMER\UART.c"
  37  0015  38A2        	snz [34].1
  37  0016  2800     R  	jmp _L3
  37  0017  3000     E  	set ra.7
  37  0018              _L3:
  38  0018              #line 38 "C:\Users\SA\Desktop\VR回饋TIMER\UART.c"
  38  0018              ;# 38 "C:\Users\SA\Desktop\VR回饋TIMER\UART.c" 1
  38  0018              	IF 212-15>263690
  38  0018              ;# 38 "C:\Users\SA\Desktop\VR回饋TIMER\UART.c" 1
  38  0018              	ERRMESSAGE 'the value 212-15of the argument exceeds the maxinum 263690'
  38  0018              	ENDIF
  38  0018              ;# 38 "C:\Users\SA\Desktop\VR回饋TIMER\UART.c" 1
  38  0018              	IF 212-15<0
  38  0018              ;# 38 "C:\Users\SA\Desktop\VR回饋TIMER\UART.c" 1
  38  0018              	ERRMESSAGE 'the value 212-15 of the argument exceeds the mininum 0'
  38  0018              	ENDIF
  38  0018              ;# 38 "C:\Users\SA\Desktop\VR回饋TIMER\UART.c" 1
  38  0018              	IF 212-15==0
  38  0018              ;# 38 "C:\Users\SA\Desktop\VR回饋TIMER\UART.c" 1
  38  0018              	JMP $
  38  0018              	ENDIF
  38  0018              ;# 38 "C:\Users\SA\Desktop\VR回饋TIMER\UART.c" 1
  38  0018              	IF (212-15>=1) AND (212-15<( 4 + __PBP__ * 2))
  38  0018              ;# 38 "C:\Users\SA\Desktop\VR回饋TIMER\UART.c" 1
  38  0018              	NOP
  38  0018              	ENDIF
  38  0018              ;# 38 "C:\Users\SA\Desktop\VR回饋TIMER\UART.c" 1
  38  0018              	IF (212-15>=2) AND (212-15<( 4 + __PBP__ * 2))
  38  0018              ;# 38 "C:\Users\SA\Desktop\VR回饋TIMER\UART.c" 1
  38  0018              	NOP
  38  0018              	ENDIF
  38  0018              ;# 38 "C:\Users\SA\Desktop\VR回饋TIMER\UART.c" 1
  38  0018              	IF (212-15>=3) AND (212-15<( 4 + __PBP__ * 2))
  38  0018              ;# 38 "C:\Users\SA\Desktop\VR回饋TIMER\UART.c" 1
  38  0018              	NOP
  38  0018              	ENDIF
  38  0018              ;# 38 "C:\Users\SA\Desktop\VR回饋TIMER\UART.c" 1
  38  0018              	IF (212-15>=4) AND (212-15<( 4 + __PBP__ * 2)) AND ( __PBP__ > 0 )
  38  0018              ;# 38 "C:\Users\SA\Desktop\VR回饋TIMER\UART.c" 1
  38  0018              	NOP
  38  0018              	ENDIF
  38  0018              ;# 38 "C:\Users\SA\Desktop\VR回饋TIMER\UART.c" 1
  38  0018              	IF (212-15>=5) AND (212-15<( 4 + __PBP__ * 2)) AND ( __PBP__ > 0 )
  38  0018              ;# 38 "C:\Users\SA\Desktop\VR回饋TIMER\UART.c" 1
  38  0018              	NOP
  38  0018              	ENDIF
  38  0018              ;# 38 "C:\Users\SA\Desktop\VR回饋TIMER\UART.c" 1
  38  0018              	IF (212-15>=6) AND (212-15<( 4 + __PBP__ * 2))  AND ( __PBP__ > 1 )
  38  0018              ;# 38 "C:\Users\SA\Desktop\VR回饋TIMER\UART.c" 1
  38  0018              	NOP
  38  0018              	ENDIF
  38  0018              ;# 38 "C:\Users\SA\Desktop\VR回饋TIMER\UART.c" 1
  38  0018              	IF (212-15>=7) AND (212-15<( 4 + __PBP__ * 2))  AND ( __PBP__ > 1 )
  38  0018              ;# 38 "C:\Users\SA\Desktop\VR回饋TIMER\UART.c" 1
  38  0018              	NOP
  38  0018              	ENDIF
"File: UART.c        Assembler  Version HGASM0202      Page 7

  38  0018              ;# 38 "C:\Users\SA\Desktop\VR回饋TIMER\UART.c" 1
  38  0018              	IF (212-15>=8) AND (212-15<( 4 + __PBP__ * 2))  AND ( __PBP__ > 2 )
  38  0018              ;# 38 "C:\Users\SA\Desktop\VR回饋TIMER\UART.c" 1
  38  0018              	NOP
  38  0018              	ENDIF
  38  0018              ;# 38 "C:\Users\SA\Desktop\VR回饋TIMER\UART.c" 1
  38  0018              	IF (212-15==9)  AND ( __PBP__ > 2 )
  38  0018              ;# 38 "C:\Users\SA\Desktop\VR回饋TIMER\UART.c" 1
  38  0018              	NOP
  38  0018              	ENDIF
  38  0018              ;# 38 "C:\Users\SA\Desktop\VR回饋TIMER\UART.c" 1
  38  0018              	IF (212-15< ( 8 + __PBP__ * 2)) AND (212-15>( 3 + __PBP__ * 2))
  38  0018              ;# 38 "C:\Users\SA\Desktop\VR回饋TIMER\UART.c" 1
  38  0018              	fcall __DELAY3 + ( 7 + __PBP__ * 2) -212-15
  38  0018              	ENDIF
  38  0018              ;# 38 "C:\Users\SA\Desktop\VR回饋TIMER\UART.c" 1
  38  0018              	IF (212-15< ( 0404h + __PBP__ * 2)) AND (212-15>( 7 + __PBP__ * 2))
  38  0018              ;# 38 "C:\Users\SA\Desktop\VR回饋TIMER\UART.c" 1
  38  0018  0F2F        	MOV A,(212-15-( 4 + __PBP__ * 2))/4
  38  0019              ;# 38 "C:\Users\SA\Desktop\VR回饋TIMER\UART.c" 1
  38  0019              	fcall __DELAYX3 + 3 -((212-15-( 4 + __PBP__ * 2)) MOD 4) 
  38  0020              	ENDIF
  38  0020              ;# 38 "C:\Users\SA\Desktop\VR回饋TIMER\UART.c" 1
  38  0020              	IF (212-15< ( 040bh + __PBP__ * 2)) AND (212-15> ( 0403h + __PBP__ * 2))
  38  0020              ;# 38 "C:\Users\SA\Desktop\VR回饋TIMER\UART.c" 1
  38  0020              	MOV A,0 
  38  0020              ;# 38 "C:\Users\SA\Desktop\VR回饋TIMER\UART.c" 1
  38  0020              	fcall __DELAYX6 + ( 040ah + __PBP__ * 2) -212-15
  38  0020              	ENDIF
  38  0020              ;# 38 "C:\Users\SA\Desktop\VR回饋TIMER\UART.c" 1
  38  0020              	IF (212-15 >= ( 040bh + __PBP__ * 2)) AND ((((212-15-( 9 + __PBP__ * 2))%0402h)/4+1)>256)
  38  0020              ;# 38 "C:\Users\SA\Desktop\VR回饋TIMER\UART.c" 1
  38  0020              	MOV A,(212-15-( 9 + __PBP__ * 2))/0402h
  38  0020              ;# 38 "C:\Users\SA\Desktop\VR回饋TIMER\UART.c" 1
  38  0020              	MOV _builtin_holtek_delay_2,A
  38  0020              ;# 38 "C:\Users\SA\Desktop\VR回饋TIMER\UART.c" 1
  38  0020              	MOV A,0
  38  0020              ;# 38 "C:\Users\SA\Desktop\VR回饋TIMER\UART.c" 1
  38  0020              	fcall __DELAYY5 +5- (((212-15-( 9 + __PBP__ * 2))%0402h)%6) 
  38  0020              	ENDIF
  38  0020              ;# 38 "C:\Users\SA\Desktop\VR回饋TIMER\UART.c" 1
  38  0020              	IF (212-15 >= ( 040bh + __PBP__ * 2)) AND ((((212-15-( 9 + __PBP__ * 2))%0402h)/4+1)<=256)
  38  0020              ;# 38 "C:\Users\SA\Desktop\VR回饋TIMER\UART.c" 1
  38  0020              	MOV A,(212-15-( 9 + __PBP__ * 2))/0402h
  38  0020              ;# 38 "C:\Users\SA\Desktop\VR回饋TIMER\UART.c" 1
  38  0020              	MOV _builtin_holtek_delay_2,A
  38  0020              ;# 38 "C:\Users\SA\Desktop\VR回饋TIMER\UART.c" 1
  38  0020              	MOV A,((212-15-( 9 + __PBP__ * 2))%0402h)/4+1
  38  0020              ;# 38 "C:\Users\SA\Desktop\VR回饋TIMER\UART.c" 1
  38  0020              	fcall __DELAYY3 +3-(((212-15-( 9 + __PBP__ * 2))%0402h)%4) 
  38  0020              	ENDIF
  38  0020  1780     E  	sdz rb
  38  0021  2800     R  	jmp _L5
  41  0022              #line 41 "C:\Users\SA\Desktop\VR回饋TIMER\UART.c"
  41  0022  0700     E  	mov a,ra
  41  0023  0003        	ret
  41  0024              _PC_RX endp
  41  0024              #line 41 "C:\Users\SA\Desktop\VR回饋TIMER\UART.c"
  41  0024              #pragma debug scope 1 1
  41  0024              public _rx_string
"File: UART.c        Assembler  Version HGASM0202      Page 8

  41  0024              #pragma debug scope 4 1
  43  0024              #line 43 "C:\Users\SA\Desktop\VR回饋TIMER\UART.c"
  43  0000              _rx_string .section 'code'
  43  0000              _rx_string proc
  43  0000  0002[           local _rx_string_2 db 2 dup(?)	; 0,2
            00
            ]
  43  0002              #pragma debug variable 7 4 _rx_string_2+1 "w"
  43  0000  0F0A        	mov a,10
  43  0001  0080     R  	mov _rx_string_2[0],a
  45  0002              #line 45 "C:\Users\SA\Desktop\VR回饋TIMER\UART.c"
  45  0002  1F00     R  	clr _rx_string_2[1]
  45  0003              _L12:
  47  0003              #line 47 "C:\Users\SA\Desktop\VR回饋TIMER\UART.c"
  47  0003              	fcall _PC_RX
  47  000A  0080     E  	mov ra,a
  47  000B  3400     E  	clr ra.7
  47  000C  0700     R  	mov a,_rx_string_2[1]
  47  000D  0080     E  	mov rb,a
  47  000E  1F00     E  	clr rc
  47  000F  3F85        	sz acc.7
  47  0010  1F80     E  	set rc
  47  0011  0F00     R  	mov a,low offset _output
  47  0012  0300     E  	add a,rb
  47  0013  0083        	mov mp,a
  47  0014  0F00     R  	mov a,high offset _output
  47  0015  1300     E  	adc a,rc
  47  0016  0084        	mov sbp,a
  47  0017  0700     E  	mov a,ra
  47  0018  0082        	mov ir,a
  48  0019              #line 48 "C:\Users\SA\Desktop\VR回饋TIMER\UART.c"
  48  0019  0700     E  	mov a,ra
  48  001A  0A0D        	sub a,13
  48  001B  3D0A        	sz z
  48  001C  2800     R  	jmp _L10
  45  001D              #line 45 "C:\Users\SA\Desktop\VR回饋TIMER\UART.c"
  45  001D  1480     R  	inc _rx_string_2[1]
  45  001E  1780     R  	sdz _rx_string_2[0]
  45  001F  2800     R  	jmp _L12
  45  0020              _L10:
  45  0020  0003        	ret
  45  0021              _rx_string endp
  45  0021              #line 45 "C:\Users\SA\Desktop\VR回饋TIMER\UART.c"
  45  0021              #pragma debug scope 1 1
  45  0021              public _PC_TX
  45  0021              #pragma debug scope 5 1
  52  0021              #line 52 "C:\Users\SA\Desktop\VR回饋TIMER\UART.c"
  52  0000              _PC_TX .section 'code'
  52  0000              _PC_TX proc
  52  0000  00              local _PC_TX_2 db 1 dup(?)	; 0,1
  52  0000  0080     R  	mov _PC_TX_2[0],a
  52  0001              #pragma debug variable 7 5 _PC_TX_2+0 "da"
  55  0001              #line 55 "C:\Users\SA\Desktop\VR回饋TIMER\UART.c"
  55  0001  3422        	clr [34].0
  55  0002              ;# 55 "C:\Users\SA\Desktop\VR回饋TIMER\UART.c" 1
  55  0002              	IF 212>263690
  55  0002              ;# 55 "C:\Users\SA\Desktop\VR回饋TIMER\UART.c" 1
  55  0002              	ERRMESSAGE 'the value 212of the argument exceeds the maxinum 263690'
  55  0002              	ENDIF
  55  0002              ;# 55 "C:\Users\SA\Desktop\VR回饋TIMER\UART.c" 1
"File: UART.c        Assembler  Version HGASM0202      Page 9

  55  0002              	IF 212<0
  55  0002              ;# 55 "C:\Users\SA\Desktop\VR回饋TIMER\UART.c" 1
  55  0002              	ERRMESSAGE 'the value 212 of the argument exceeds the mininum 0'
  55  0002              	ENDIF
  55  0002              ;# 55 "C:\Users\SA\Desktop\VR回饋TIMER\UART.c" 1
  55  0002              	IF 212==0
  55  0002              ;# 55 "C:\Users\SA\Desktop\VR回饋TIMER\UART.c" 1
  55  0002              	JMP $
  55  0002              	ENDIF
  55  0002              ;# 55 "C:\Users\SA\Desktop\VR回饋TIMER\UART.c" 1
  55  0002              	IF (212>=1) AND (212<( 4 + __PBP__ * 2))
  55  0002              ;# 55 "C:\Users\SA\Desktop\VR回饋TIMER\UART.c" 1
  55  0002              	NOP
  55  0002              	ENDIF
  55  0002              ;# 55 "C:\Users\SA\Desktop\VR回饋TIMER\UART.c" 1
  55  0002              	IF (212>=2) AND (212<( 4 + __PBP__ * 2))
  55  0002              ;# 55 "C:\Users\SA\Desktop\VR回饋TIMER\UART.c" 1
  55  0002              	NOP
  55  0002              	ENDIF
  55  0002              ;# 55 "C:\Users\SA\Desktop\VR回饋TIMER\UART.c" 1
  55  0002              	IF (212>=3) AND (212<( 4 + __PBP__ * 2))
  55  0002              ;# 55 "C:\Users\SA\Desktop\VR回饋TIMER\UART.c" 1
  55  0002              	NOP
  55  0002              	ENDIF
  55  0002              ;# 55 "C:\Users\SA\Desktop\VR回饋TIMER\UART.c" 1
  55  0002              	IF (212>=4) AND (212<( 4 + __PBP__ * 2)) AND ( __PBP__ > 0 )
  55  0002              ;# 55 "C:\Users\SA\Desktop\VR回饋TIMER\UART.c" 1
  55  0002              	NOP
  55  0002              	ENDIF
  55  0002              ;# 55 "C:\Users\SA\Desktop\VR回饋TIMER\UART.c" 1
  55  0002              	IF (212>=5) AND (212<( 4 + __PBP__ * 2)) AND ( __PBP__ > 0 )
  55  0002              ;# 55 "C:\Users\SA\Desktop\VR回饋TIMER\UART.c" 1
  55  0002              	NOP
  55  0002              	ENDIF
  55  0002              ;# 55 "C:\Users\SA\Desktop\VR回饋TIMER\UART.c" 1
  55  0002              	IF (212>=6) AND (212<( 4 + __PBP__ * 2))  AND ( __PBP__ > 1 )
  55  0002              ;# 55 "C:\Users\SA\Desktop\VR回饋TIMER\UART.c" 1
  55  0002              	NOP
  55  0002              	ENDIF
  55  0002              ;# 55 "C:\Users\SA\Desktop\VR回饋TIMER\UART.c" 1
  55  0002              	IF (212>=7) AND (212<( 4 + __PBP__ * 2))  AND ( __PBP__ > 1 )
  55  0002              ;# 55 "C:\Users\SA\Desktop\VR回饋TIMER\UART.c" 1
  55  0002              	NOP
  55  0002              	ENDIF
  55  0002              ;# 55 "C:\Users\SA\Desktop\VR回饋TIMER\UART.c" 1
  55  0002              	IF (212>=8) AND (212<( 4 + __PBP__ * 2))  AND ( __PBP__ > 2 )
  55  0002              ;# 55 "C:\Users\SA\Desktop\VR回饋TIMER\UART.c" 1
  55  0002              	NOP
  55  0002              	ENDIF
  55  0002              ;# 55 "C:\Users\SA\Desktop\VR回饋TIMER\UART.c" 1
  55  0002              	IF (212==9)  AND ( __PBP__ > 2 )
  55  0002              ;# 55 "C:\Users\SA\Desktop\VR回饋TIMER\UART.c" 1
  55  0002              	NOP
  55  0002              	ENDIF
  55  0002              ;# 55 "C:\Users\SA\Desktop\VR回饋TIMER\UART.c" 1
  55  0002              	IF (212< ( 8 + __PBP__ * 2)) AND (212>( 3 + __PBP__ * 2))
  55  0002              ;# 55 "C:\Users\SA\Desktop\VR回饋TIMER\UART.c" 1
  55  0002              	fcall __DELAY3 + ( 7 + __PBP__ * 2) -212
  55  0002              	ENDIF
  55  0002              ;# 55 "C:\Users\SA\Desktop\VR回饋TIMER\UART.c" 1
"File: UART.c        Assembler  Version HGASM0202      Page 10

  55  0002              	IF (212< ( 0404h + __PBP__ * 2)) AND (212>( 7 + __PBP__ * 2))
  55  0002              ;# 55 "C:\Users\SA\Desktop\VR回饋TIMER\UART.c" 1
  55  0002  0F33        	MOV A,(212-( 4 + __PBP__ * 2))/4
  55  0003              ;# 55 "C:\Users\SA\Desktop\VR回饋TIMER\UART.c" 1
  55  0003              	fcall __DELAYX3 + 3 -((212-( 4 + __PBP__ * 2)) MOD 4) 
  55  000A              	ENDIF
  55  000A              ;# 55 "C:\Users\SA\Desktop\VR回饋TIMER\UART.c" 1
  55  000A              	IF (212< ( 040bh + __PBP__ * 2)) AND (212> ( 0403h + __PBP__ * 2))
  55  000A              ;# 55 "C:\Users\SA\Desktop\VR回饋TIMER\UART.c" 1
  55  000A              	MOV A,0 
  55  000A              ;# 55 "C:\Users\SA\Desktop\VR回饋TIMER\UART.c" 1
  55  000A              	fcall __DELAYX6 + ( 040ah + __PBP__ * 2) -212
  55  000A              	ENDIF
  55  000A              ;# 55 "C:\Users\SA\Desktop\VR回饋TIMER\UART.c" 1
  55  000A              	IF (212 >= ( 040bh + __PBP__ * 2)) AND ((((212-( 9 + __PBP__ * 2))%0402h)/4+1)>256)
  55  000A              ;# 55 "C:\Users\SA\Desktop\VR回饋TIMER\UART.c" 1
  55  000A              	MOV A,(212-( 9 + __PBP__ * 2))/0402h
  55  000A              ;# 55 "C:\Users\SA\Desktop\VR回饋TIMER\UART.c" 1
  55  000A              	MOV _builtin_holtek_delay_2,A
  55  000A              ;# 55 "C:\Users\SA\Desktop\VR回饋TIMER\UART.c" 1
  55  000A              	MOV A,0
  55  000A              ;# 55 "C:\Users\SA\Desktop\VR回饋TIMER\UART.c" 1
  55  000A              	fcall __DELAYY5 +5- (((212-( 9 + __PBP__ * 2))%0402h)%6) 
  55  000A              	ENDIF
  55  000A              ;# 55 "C:\Users\SA\Desktop\VR回饋TIMER\UART.c" 1
  55  000A              	IF (212 >= ( 040bh + __PBP__ * 2)) AND ((((212-( 9 + __PBP__ * 2))%0402h)/4+1)<=256)
  55  000A              ;# 55 "C:\Users\SA\Desktop\VR回饋TIMER\UART.c" 1
  55  000A              	MOV A,(212-( 9 + __PBP__ * 2))/0402h
  55  000A              ;# 55 "C:\Users\SA\Desktop\VR回饋TIMER\UART.c" 1
  55  000A              	MOV _builtin_holtek_delay_2,A
  55  000A              ;# 55 "C:\Users\SA\Desktop\VR回饋TIMER\UART.c" 1
  55  000A              	MOV A,((212-( 9 + __PBP__ * 2))%0402h)/4+1
  55  000A              ;# 55 "C:\Users\SA\Desktop\VR回饋TIMER\UART.c" 1
  55  000A              	fcall __DELAYY3 +3-(((212-( 9 + __PBP__ * 2))%0402h)%4) 
  55  000A              	ENDIF
  55  000A  0F08        	mov a,8
  55  000B  0080     E  	mov ra,a
  55  000C              _L23:
  58  000C              #line 58 "C:\Users\SA\Desktop\VR回饋TIMER\UART.c"
  58  000C  3800     R  	snz _PC_TX_2[0].0
  58  000D  2800     R  	jmp _L20
  58  000E  3022        	set [34].0
  58  000F  2800     R  	jmp _L21
  58  0010              _L20:
  59  0010              #line 59 "C:\Users\SA\Desktop\VR回饋TIMER\UART.c"
  59  0010  3422        	clr [34].0
  59  0011              _L21:
  60  0011              #line 60 "C:\Users\SA\Desktop\VR回饋TIMER\UART.c"
  60  0011  1A00     R  	rlca _PC_TX_2[0]
  60  0012  1B80     R  	rrc _PC_TX_2[0]
  61  0013              #line 61 "C:\Users\SA\Desktop\VR回饋TIMER\UART.c"
  61  0013              ;# 61 "C:\Users\SA\Desktop\VR回饋TIMER\UART.c" 1
  61  0013              	IF 212-15>263690
  61  0013              ;# 61 "C:\Users\SA\Desktop\VR回饋TIMER\UART.c" 1
  61  0013              	ERRMESSAGE 'the value 212-15of the argument exceeds the maxinum 263690'
  61  0013              	ENDIF
  61  0013              ;# 61 "C:\Users\SA\Desktop\VR回饋TIMER\UART.c" 1
  61  0013              	IF 212-15<0
  61  0013              ;# 61 "C:\Users\SA\Desktop\VR回饋TIMER\UART.c" 1
  61  0013              	ERRMESSAGE 'the value 212-15 of the argument exceeds the mininum 0'
"File: UART.c        Assembler  Version HGASM0202      Page 11

  61  0013              	ENDIF
  61  0013              ;# 61 "C:\Users\SA\Desktop\VR回饋TIMER\UART.c" 1
  61  0013              	IF 212-15==0
  61  0013              ;# 61 "C:\Users\SA\Desktop\VR回饋TIMER\UART.c" 1
  61  0013              	JMP $
  61  0013              	ENDIF
  61  0013              ;# 61 "C:\Users\SA\Desktop\VR回饋TIMER\UART.c" 1
  61  0013              	IF (212-15>=1) AND (212-15<( 4 + __PBP__ * 2))
  61  0013              ;# 61 "C:\Users\SA\Desktop\VR回饋TIMER\UART.c" 1
  61  0013              	NOP
  61  0013              	ENDIF
  61  0013              ;# 61 "C:\Users\SA\Desktop\VR回饋TIMER\UART.c" 1
  61  0013              	IF (212-15>=2) AND (212-15<( 4 + __PBP__ * 2))
  61  0013              ;# 61 "C:\Users\SA\Desktop\VR回饋TIMER\UART.c" 1
  61  0013              	NOP
  61  0013              	ENDIF
  61  0013              ;# 61 "C:\Users\SA\Desktop\VR回饋TIMER\UART.c" 1
  61  0013              	IF (212-15>=3) AND (212-15<( 4 + __PBP__ * 2))
  61  0013              ;# 61 "C:\Users\SA\Desktop\VR回饋TIMER\UART.c" 1
  61  0013              	NOP
  61  0013              	ENDIF
  61  0013              ;# 61 "C:\Users\SA\Desktop\VR回饋TIMER\UART.c" 1
  61  0013              	IF (212-15>=4) AND (212-15<( 4 + __PBP__ * 2)) AND ( __PBP__ > 0 )
  61  0013              ;# 61 "C:\Users\SA\Desktop\VR回饋TIMER\UART.c" 1
  61  0013              	NOP
  61  0013              	ENDIF
  61  0013              ;# 61 "C:\Users\SA\Desktop\VR回饋TIMER\UART.c" 1
  61  0013              	IF (212-15>=5) AND (212-15<( 4 + __PBP__ * 2)) AND ( __PBP__ > 0 )
  61  0013              ;# 61 "C:\Users\SA\Desktop\VR回饋TIMER\UART.c" 1
  61  0013              	NOP
  61  0013              	ENDIF
  61  0013              ;# 61 "C:\Users\SA\Desktop\VR回饋TIMER\UART.c" 1
  61  0013              	IF (212-15>=6) AND (212-15<( 4 + __PBP__ * 2))  AND ( __PBP__ > 1 )
  61  0013              ;# 61 "C:\Users\SA\Desktop\VR回饋TIMER\UART.c" 1
  61  0013              	NOP
  61  0013              	ENDIF
  61  0013              ;# 61 "C:\Users\SA\Desktop\VR回饋TIMER\UART.c" 1
  61  0013              	IF (212-15>=7) AND (212-15<( 4 + __PBP__ * 2))  AND ( __PBP__ > 1 )
  61  0013              ;# 61 "C:\Users\SA\Desktop\VR回饋TIMER\UART.c" 1
  61  0013              	NOP
  61  0013              	ENDIF
  61  0013              ;# 61 "C:\Users\SA\Desktop\VR回饋TIMER\UART.c" 1
  61  0013              	IF (212-15>=8) AND (212-15<( 4 + __PBP__ * 2))  AND ( __PBP__ > 2 )
  61  0013              ;# 61 "C:\Users\SA\Desktop\VR回饋TIMER\UART.c" 1
  61  0013              	NOP
  61  0013              	ENDIF
  61  0013              ;# 61 "C:\Users\SA\Desktop\VR回饋TIMER\UART.c" 1
  61  0013              	IF (212-15==9)  AND ( __PBP__ > 2 )
  61  0013              ;# 61 "C:\Users\SA\Desktop\VR回饋TIMER\UART.c" 1
  61  0013              	NOP
  61  0013              	ENDIF
  61  0013              ;# 61 "C:\Users\SA\Desktop\VR回饋TIMER\UART.c" 1
  61  0013              	IF (212-15< ( 8 + __PBP__ * 2)) AND (212-15>( 3 + __PBP__ * 2))
  61  0013              ;# 61 "C:\Users\SA\Desktop\VR回饋TIMER\UART.c" 1
  61  0013              	fcall __DELAY3 + ( 7 + __PBP__ * 2) -212-15
  61  0013              	ENDIF
  61  0013              ;# 61 "C:\Users\SA\Desktop\VR回饋TIMER\UART.c" 1
  61  0013              	IF (212-15< ( 0404h + __PBP__ * 2)) AND (212-15>( 7 + __PBP__ * 2))
  61  0013              ;# 61 "C:\Users\SA\Desktop\VR回饋TIMER\UART.c" 1
  61  0013  0F2F        	MOV A,(212-15-( 4 + __PBP__ * 2))/4
"File: UART.c        Assembler  Version HGASM0202      Page 12

  61  0014              ;# 61 "C:\Users\SA\Desktop\VR回饋TIMER\UART.c" 1
  61  0014              	fcall __DELAYX3 + 3 -((212-15-( 4 + __PBP__ * 2)) MOD 4) 
  61  001B              	ENDIF
  61  001B              ;# 61 "C:\Users\SA\Desktop\VR回饋TIMER\UART.c" 1
  61  001B              	IF (212-15< ( 040bh + __PBP__ * 2)) AND (212-15> ( 0403h + __PBP__ * 2))
  61  001B              ;# 61 "C:\Users\SA\Desktop\VR回饋TIMER\UART.c" 1
  61  001B              	MOV A,0 
  61  001B              ;# 61 "C:\Users\SA\Desktop\VR回饋TIMER\UART.c" 1
  61  001B              	fcall __DELAYX6 + ( 040ah + __PBP__ * 2) -212-15
  61  001B              	ENDIF
  61  001B              ;# 61 "C:\Users\SA\Desktop\VR回饋TIMER\UART.c" 1
  61  001B              	IF (212-15 >= ( 040bh + __PBP__ * 2)) AND ((((212-15-( 9 + __PBP__ * 2))%0402h)/4+1)>256)
  61  001B              ;# 61 "C:\Users\SA\Desktop\VR回饋TIMER\UART.c" 1
  61  001B              	MOV A,(212-15-( 9 + __PBP__ * 2))/0402h
  61  001B              ;# 61 "C:\Users\SA\Desktop\VR回饋TIMER\UART.c" 1
  61  001B              	MOV _builtin_holtek_delay_2,A
  61  001B              ;# 61 "C:\Users\SA\Desktop\VR回饋TIMER\UART.c" 1
  61  001B              	MOV A,0
  61  001B              ;# 61 "C:\Users\SA\Desktop\VR回饋TIMER\UART.c" 1
  61  001B              	fcall __DELAYY5 +5- (((212-15-( 9 + __PBP__ * 2))%0402h)%6) 
  61  001B              	ENDIF
  61  001B              ;# 61 "C:\Users\SA\Desktop\VR回饋TIMER\UART.c" 1
  61  001B              	IF (212-15 >= ( 040bh + __PBP__ * 2)) AND ((((212-15-( 9 + __PBP__ * 2))%0402h)/4+1)<=256)
  61  001B              ;# 61 "C:\Users\SA\Desktop\VR回饋TIMER\UART.c" 1
  61  001B              	MOV A,(212-15-( 9 + __PBP__ * 2))/0402h
  61  001B              ;# 61 "C:\Users\SA\Desktop\VR回饋TIMER\UART.c" 1
  61  001B              	MOV _builtin_holtek_delay_2,A
  61  001B              ;# 61 "C:\Users\SA\Desktop\VR回饋TIMER\UART.c" 1
  61  001B              	MOV A,((212-15-( 9 + __PBP__ * 2))%0402h)/4+1
  61  001B              ;# 61 "C:\Users\SA\Desktop\VR回饋TIMER\UART.c" 1
  61  001B              	fcall __DELAYY3 +3-(((212-15-( 9 + __PBP__ * 2))%0402h)%4) 
  61  001B              	ENDIF
  61  001B  1780     E  	sdz ra
  61  001C  2800     R  	jmp _L23
  63  001D              #line 63 "C:\Users\SA\Desktop\VR回饋TIMER\UART.c"
  63  001D  3022        	set [34].0
  63  001E              ;# 63 "C:\Users\SA\Desktop\VR回饋TIMER\UART.c" 1
  63  001E              	IF 212>263690
  63  001E              ;# 63 "C:\Users\SA\Desktop\VR回饋TIMER\UART.c" 1
  63  001E              	ERRMESSAGE 'the value 212of the argument exceeds the maxinum 263690'
  63  001E              	ENDIF
  63  001E              ;# 63 "C:\Users\SA\Desktop\VR回饋TIMER\UART.c" 1
  63  001E              	IF 212<0
  63  001E              ;# 63 "C:\Users\SA\Desktop\VR回饋TIMER\UART.c" 1
  63  001E              	ERRMESSAGE 'the value 212 of the argument exceeds the mininum 0'
  63  001E              	ENDIF
  63  001E              ;# 63 "C:\Users\SA\Desktop\VR回饋TIMER\UART.c" 1
  63  001E              	IF 212==0
  63  001E              ;# 63 "C:\Users\SA\Desktop\VR回饋TIMER\UART.c" 1
  63  001E              	JMP $
  63  001E              	ENDIF
  63  001E              ;# 63 "C:\Users\SA\Desktop\VR回饋TIMER\UART.c" 1
  63  001E              	IF (212>=1) AND (212<( 4 + __PBP__ * 2))
  63  001E              ;# 63 "C:\Users\SA\Desktop\VR回饋TIMER\UART.c" 1
  63  001E              	NOP
  63  001E              	ENDIF
  63  001E              ;# 63 "C:\Users\SA\Desktop\VR回饋TIMER\UART.c" 1
  63  001E              	IF (212>=2) AND (212<( 4 + __PBP__ * 2))
  63  001E              ;# 63 "C:\Users\SA\Desktop\VR回饋TIMER\UART.c" 1
  63  001E              	NOP
"File: UART.c        Assembler  Version HGASM0202      Page 13

  63  001E              	ENDIF
  63  001E              ;# 63 "C:\Users\SA\Desktop\VR回饋TIMER\UART.c" 1
  63  001E              	IF (212>=3) AND (212<( 4 + __PBP__ * 2))
  63  001E              ;# 63 "C:\Users\SA\Desktop\VR回饋TIMER\UART.c" 1
  63  001E              	NOP
  63  001E              	ENDIF
  63  001E              ;# 63 "C:\Users\SA\Desktop\VR回饋TIMER\UART.c" 1
  63  001E              	IF (212>=4) AND (212<( 4 + __PBP__ * 2)) AND ( __PBP__ > 0 )
  63  001E              ;# 63 "C:\Users\SA\Desktop\VR回饋TIMER\UART.c" 1
  63  001E              	NOP
  63  001E              	ENDIF
  63  001E              ;# 63 "C:\Users\SA\Desktop\VR回饋TIMER\UART.c" 1
  63  001E              	IF (212>=5) AND (212<( 4 + __PBP__ * 2)) AND ( __PBP__ > 0 )
  63  001E              ;# 63 "C:\Users\SA\Desktop\VR回饋TIMER\UART.c" 1
  63  001E              	NOP
  63  001E              	ENDIF
  63  001E              ;# 63 "C:\Users\SA\Desktop\VR回饋TIMER\UART.c" 1
  63  001E              	IF (212>=6) AND (212<( 4 + __PBP__ * 2))  AND ( __PBP__ > 1 )
  63  001E              ;# 63 "C:\Users\SA\Desktop\VR回饋TIMER\UART.c" 1
  63  001E              	NOP
  63  001E              	ENDIF
  63  001E              ;# 63 "C:\Users\SA\Desktop\VR回饋TIMER\UART.c" 1
  63  001E              	IF (212>=7) AND (212<( 4 + __PBP__ * 2))  AND ( __PBP__ > 1 )
  63  001E              ;# 63 "C:\Users\SA\Desktop\VR回饋TIMER\UART.c" 1
  63  001E              	NOP
  63  001E              	ENDIF
  63  001E              ;# 63 "C:\Users\SA\Desktop\VR回饋TIMER\UART.c" 1
  63  001E              	IF (212>=8) AND (212<( 4 + __PBP__ * 2))  AND ( __PBP__ > 2 )
  63  001E              ;# 63 "C:\Users\SA\Desktop\VR回饋TIMER\UART.c" 1
  63  001E              	NOP
  63  001E              	ENDIF
  63  001E              ;# 63 "C:\Users\SA\Desktop\VR回饋TIMER\UART.c" 1
  63  001E              	IF (212==9)  AND ( __PBP__ > 2 )
  63  001E              ;# 63 "C:\Users\SA\Desktop\VR回饋TIMER\UART.c" 1
  63  001E              	NOP
  63  001E              	ENDIF
  63  001E              ;# 63 "C:\Users\SA\Desktop\VR回饋TIMER\UART.c" 1
  63  001E              	IF (212< ( 8 + __PBP__ * 2)) AND (212>( 3 + __PBP__ * 2))
  63  001E              ;# 63 "C:\Users\SA\Desktop\VR回饋TIMER\UART.c" 1
  63  001E              	fcall __DELAY3 + ( 7 + __PBP__ * 2) -212
  63  001E              	ENDIF
  63  001E              ;# 63 "C:\Users\SA\Desktop\VR回饋TIMER\UART.c" 1
  63  001E              	IF (212< ( 0404h + __PBP__ * 2)) AND (212>( 7 + __PBP__ * 2))
  63  001E              ;# 63 "C:\Users\SA\Desktop\VR回饋TIMER\UART.c" 1
  63  001E  0F33        	MOV A,(212-( 4 + __PBP__ * 2))/4
  63  001F              ;# 63 "C:\Users\SA\Desktop\VR回饋TIMER\UART.c" 1
  63  001F              	fcall __DELAYX3 + 3 -((212-( 4 + __PBP__ * 2)) MOD 4) 
  63  0026              	ENDIF
  63  0026              ;# 63 "C:\Users\SA\Desktop\VR回饋TIMER\UART.c" 1
  63  0026              	IF (212< ( 040bh + __PBP__ * 2)) AND (212> ( 0403h + __PBP__ * 2))
  63  0026              ;# 63 "C:\Users\SA\Desktop\VR回饋TIMER\UART.c" 1
  63  0026              	MOV A,0 
  63  0026              ;# 63 "C:\Users\SA\Desktop\VR回饋TIMER\UART.c" 1
  63  0026              	fcall __DELAYX6 + ( 040ah + __PBP__ * 2) -212
  63  0026              	ENDIF
  63  0026              ;# 63 "C:\Users\SA\Desktop\VR回饋TIMER\UART.c" 1
  63  0026              	IF (212 >= ( 040bh + __PBP__ * 2)) AND ((((212-( 9 + __PBP__ * 2))%0402h)/4+1)>256)
  63  0026              ;# 63 "C:\Users\SA\Desktop\VR回饋TIMER\UART.c" 1
  63  0026              	MOV A,(212-( 9 + __PBP__ * 2))/0402h
  63  0026              ;# 63 "C:\Users\SA\Desktop\VR回饋TIMER\UART.c" 1
"File: UART.c        Assembler  Version HGASM0202      Page 14

  63  0026              	MOV _builtin_holtek_delay_2,A
  63  0026              ;# 63 "C:\Users\SA\Desktop\VR回饋TIMER\UART.c" 1
  63  0026              	MOV A,0
  63  0026              ;# 63 "C:\Users\SA\Desktop\VR回饋TIMER\UART.c" 1
  63  0026              	fcall __DELAYY5 +5- (((212-( 9 + __PBP__ * 2))%0402h)%6) 
  63  0026              	ENDIF
  63  0026              ;# 63 "C:\Users\SA\Desktop\VR回饋TIMER\UART.c" 1
  63  0026              	IF (212 >= ( 040bh + __PBP__ * 2)) AND ((((212-( 9 + __PBP__ * 2))%0402h)/4+1)<=256)
  63  0026              ;# 63 "C:\Users\SA\Desktop\VR回饋TIMER\UART.c" 1
  63  0026              	MOV A,(212-( 9 + __PBP__ * 2))/0402h
  63  0026              ;# 63 "C:\Users\SA\Desktop\VR回饋TIMER\UART.c" 1
  63  0026              	MOV _builtin_holtek_delay_2,A
  63  0026              ;# 63 "C:\Users\SA\Desktop\VR回饋TIMER\UART.c" 1
  63  0026              	MOV A,((212-( 9 + __PBP__ * 2))%0402h)/4+1
  63  0026              ;# 63 "C:\Users\SA\Desktop\VR回饋TIMER\UART.c" 1
  63  0026              	fcall __DELAYY3 +3-(((212-( 9 + __PBP__ * 2))%0402h)%4) 
  63  0026              	ENDIF
  63  0026  0003        	ret
  63  0027              _PC_TX endp
  63  0027              #line 63 "C:\Users\SA\Desktop\VR回饋TIMER\UART.c"
  63  0027              #pragma debug scope 1 1
  63  0027              public _tx_string
  63  0027              #pragma debug scope 6 1
  67  0027              #line 67 "C:\Users\SA\Desktop\VR回饋TIMER\UART.c"
  67  0000              _tx_string .section 'code'
  67  0000              _tx_string proc
  67  0000              public _tx_string_2
  67  0000  0005[           local _tx_string_2 db 5 dup(?)	; 4,1
            00
            ]
  67  0005              #pragma debug pointer 42 7 6
  67  0005              #pragma debug pointer 42 7 6
  67  0005              #pragma debug variable 42 6 _tx_string_2+0 "data"
  67  0005              #pragma debug variable 11 6 _tx_string_2+2 "c"
  67  0005              #pragma debug variable 7 6 _tx_string_2+4 "test"
  69  0005              #line 69 "C:\Users\SA\Desktop\VR回饋TIMER\UART.c"
  69  0000  1F00     R  	clr _tx_string_2[4]
  69  0001  2800     R  	jmp _L25
  69  0002              _L26:
  71  0002              #line 71 "C:\Users\SA\Desktop\VR回饋TIMER\UART.c"
  71  0002  0700     E  	mov a,rb
  71  0003  0300     R  	add a,_tx_string_2[0]
  71  0004  0083        	mov mp,a
  71  0005  0700     E  	mov a,rc
  71  0006  1300     R  	adc a,_tx_string_2[1]
  71  0007  0084        	mov sbp,a
  71  0008              	fcall _Crom2Prom
  71  000F              	fcall _PC_TX
  69  0016              #line 69 "C:\Users\SA\Desktop\VR回饋TIMER\UART.c"
  69  0016  1480     R  	inc _tx_string_2[4]
  69  0017              _L25:
  69  0017  0700     R  	mov a,_tx_string_2[4]
  69  0018  0080     E  	mov rb,a
  69  0019  1F00     E  	clr rc
  69  001A  3F85        	sz acc.7
  69  001B  1F80     E  	set rc
  69  001C  0700     R  	mov a,_tx_string_2[2]
  69  001D  0200     E  	sub a,rb
  69  001E  0700     R  	mov a,_tx_string_2[3]
  69  001F  1200     E  	sbc a,rc
"File: UART.c        Assembler  Version HGASM0202      Page 15

  69  0020  3B8A        	snz sc
  69  0021  2800     R  	jmp _L26
  69  0022  0003        	ret
  69  0023              _tx_string endp
  69  0023              #line 69 "C:\Users\SA\Desktop\VR回饋TIMER\UART.c"
  69  0023              #pragma debug scope 1 1
  69  0023              public _PC_RX_115200
  69  0023              #pragma debug scope 7 1
  77  0023              #line 77 "C:\Users\SA\Desktop\VR回饋TIMER\UART.c"
  77  0000              _PC_RX_115200 .section 'code'
  77  0000              _PC_RX_115200 proc
  77  0000              _L29:
  79  0000              #line 79 "C:\Users\SA\Desktop\VR回饋TIMER\UART.c"
  79  0000  3CA2        	sz [34].1
  79  0001  2800     R  	jmp _L29
  80  0002              #line 80 "C:\Users\SA\Desktop\VR回饋TIMER\UART.c"
  80  0002              ;# 80 "C:\Users\SA\Desktop\VR回饋TIMER\UART.c" 1
  80  0002              	IF 23>263690
  80  0002              ;# 80 "C:\Users\SA\Desktop\VR回饋TIMER\UART.c" 1
  80  0002              	ERRMESSAGE 'the value 23of the argument exceeds the maxinum 263690'
  80  0002              	ENDIF
  80  0002              ;# 80 "C:\Users\SA\Desktop\VR回饋TIMER\UART.c" 1
  80  0002              	IF 23<0
  80  0002              ;# 80 "C:\Users\SA\Desktop\VR回饋TIMER\UART.c" 1
  80  0002              	ERRMESSAGE 'the value 23 of the argument exceeds the mininum 0'
  80  0002              	ENDIF
  80  0002              ;# 80 "C:\Users\SA\Desktop\VR回饋TIMER\UART.c" 1
  80  0002              	IF 23==0
  80  0002              ;# 80 "C:\Users\SA\Desktop\VR回饋TIMER\UART.c" 1
  80  0002              	JMP $
  80  0002              	ENDIF
  80  0002              ;# 80 "C:\Users\SA\Desktop\VR回饋TIMER\UART.c" 1
  80  0002              	IF (23>=1) AND (23<( 4 + __PBP__ * 2))
  80  0002              ;# 80 "C:\Users\SA\Desktop\VR回饋TIMER\UART.c" 1
  80  0002              	NOP
  80  0002              	ENDIF
  80  0002              ;# 80 "C:\Users\SA\Desktop\VR回饋TIMER\UART.c" 1
  80  0002              	IF (23>=2) AND (23<( 4 + __PBP__ * 2))
  80  0002              ;# 80 "C:\Users\SA\Desktop\VR回饋TIMER\UART.c" 1
  80  0002              	NOP
  80  0002              	ENDIF
  80  0002              ;# 80 "C:\Users\SA\Desktop\VR回饋TIMER\UART.c" 1
  80  0002              	IF (23>=3) AND (23<( 4 + __PBP__ * 2))
  80  0002              ;# 80 "C:\Users\SA\Desktop\VR回饋TIMER\UART.c" 1
  80  0002              	NOP
  80  0002              	ENDIF
  80  0002              ;# 80 "C:\Users\SA\Desktop\VR回饋TIMER\UART.c" 1
  80  0002              	IF (23>=4) AND (23<( 4 + __PBP__ * 2)) AND ( __PBP__ > 0 )
  80  0002              ;# 80 "C:\Users\SA\Desktop\VR回饋TIMER\UART.c" 1
  80  0002              	NOP
  80  0002              	ENDIF
  80  0002              ;# 80 "C:\Users\SA\Desktop\VR回饋TIMER\UART.c" 1
  80  0002              	IF (23>=5) AND (23<( 4 + __PBP__ * 2)) AND ( __PBP__ > 0 )
  80  0002              ;# 80 "C:\Users\SA\Desktop\VR回饋TIMER\UART.c" 1
  80  0002              	NOP
  80  0002              	ENDIF
  80  0002              ;# 80 "C:\Users\SA\Desktop\VR回饋TIMER\UART.c" 1
  80  0002              	IF (23>=6) AND (23<( 4 + __PBP__ * 2))  AND ( __PBP__ > 1 )
  80  0002              ;# 80 "C:\Users\SA\Desktop\VR回饋TIMER\UART.c" 1
  80  0002              	NOP
"File: UART.c        Assembler  Version HGASM0202      Page 16

  80  0002              	ENDIF
  80  0002              ;# 80 "C:\Users\SA\Desktop\VR回饋TIMER\UART.c" 1
  80  0002              	IF (23>=7) AND (23<( 4 + __PBP__ * 2))  AND ( __PBP__ > 1 )
  80  0002              ;# 80 "C:\Users\SA\Desktop\VR回饋TIMER\UART.c" 1
  80  0002              	NOP
  80  0002              	ENDIF
  80  0002              ;# 80 "C:\Users\SA\Desktop\VR回饋TIMER\UART.c" 1
  80  0002              	IF (23>=8) AND (23<( 4 + __PBP__ * 2))  AND ( __PBP__ > 2 )
  80  0002              ;# 80 "C:\Users\SA\Desktop\VR回饋TIMER\UART.c" 1
  80  0002              	NOP
  80  0002              	ENDIF
  80  0002              ;# 80 "C:\Users\SA\Desktop\VR回饋TIMER\UART.c" 1
  80  0002              	IF (23==9)  AND ( __PBP__ > 2 )
  80  0002              ;# 80 "C:\Users\SA\Desktop\VR回饋TIMER\UART.c" 1
  80  0002              	NOP
  80  0002              	ENDIF
  80  0002              ;# 80 "C:\Users\SA\Desktop\VR回饋TIMER\UART.c" 1
  80  0002              	IF (23< ( 8 + __PBP__ * 2)) AND (23>( 3 + __PBP__ * 2))
  80  0002              ;# 80 "C:\Users\SA\Desktop\VR回饋TIMER\UART.c" 1
  80  0002              	fcall __DELAY3 + ( 7 + __PBP__ * 2) -23
  80  0002              	ENDIF
  80  0002              ;# 80 "C:\Users\SA\Desktop\VR回饋TIMER\UART.c" 1
  80  0002              	IF (23< ( 0404h + __PBP__ * 2)) AND (23>( 7 + __PBP__ * 2))
  80  0002              ;# 80 "C:\Users\SA\Desktop\VR回饋TIMER\UART.c" 1
  80  0002  0F03        	MOV A,(23-( 4 + __PBP__ * 2))/4
  80  0003              ;# 80 "C:\Users\SA\Desktop\VR回饋TIMER\UART.c" 1
  80  0003              	fcall __DELAYX3 + 3 -((23-( 4 + __PBP__ * 2)) MOD 4) 
  80  000A              	ENDIF
  80  000A              ;# 80 "C:\Users\SA\Desktop\VR回饋TIMER\UART.c" 1
  80  000A              	IF (23< ( 040bh + __PBP__ * 2)) AND (23> ( 0403h + __PBP__ * 2))
  80  000A              ;# 80 "C:\Users\SA\Desktop\VR回饋TIMER\UART.c" 1
  80  000A              	MOV A,0 
  80  000A              ;# 80 "C:\Users\SA\Desktop\VR回饋TIMER\UART.c" 1
  80  000A              	fcall __DELAYX6 + ( 040ah + __PBP__ * 2) -23
  80  000A              	ENDIF
  80  000A              ;# 80 "C:\Users\SA\Desktop\VR回饋TIMER\UART.c" 1
  80  000A              	IF (23 >= ( 040bh + __PBP__ * 2)) AND ((((23-( 9 + __PBP__ * 2))%0402h)/4+1)>256)
  80  000A              ;# 80 "C:\Users\SA\Desktop\VR回饋TIMER\UART.c" 1
  80  000A              	MOV A,(23-( 9 + __PBP__ * 2))/0402h
  80  000A              ;# 80 "C:\Users\SA\Desktop\VR回饋TIMER\UART.c" 1
  80  000A              	MOV _builtin_holtek_delay_2,A
  80  000A              ;# 80 "C:\Users\SA\Desktop\VR回饋TIMER\UART.c" 1
  80  000A              	MOV A,0
  80  000A              ;# 80 "C:\Users\SA\Desktop\VR回饋TIMER\UART.c" 1
  80  000A              	fcall __DELAYY5 +5- (((23-( 9 + __PBP__ * 2))%0402h)%6) 
  80  000A              	ENDIF
  80  000A              ;# 80 "C:\Users\SA\Desktop\VR回饋TIMER\UART.c" 1
  80  000A              	IF (23 >= ( 040bh + __PBP__ * 2)) AND ((((23-( 9 + __PBP__ * 2))%0402h)/4+1)<=256)
  80  000A              ;# 80 "C:\Users\SA\Desktop\VR回饋TIMER\UART.c" 1
  80  000A              	MOV A,(23-( 9 + __PBP__ * 2))/0402h
  80  000A              ;# 80 "C:\Users\SA\Desktop\VR回饋TIMER\UART.c" 1
  80  000A              	MOV _builtin_holtek_delay_2,A
  80  000A              ;# 80 "C:\Users\SA\Desktop\VR回饋TIMER\UART.c" 1
  80  000A              	MOV A,((23-( 9 + __PBP__ * 2))%0402h)/4+1
  80  000A              ;# 80 "C:\Users\SA\Desktop\VR回饋TIMER\UART.c" 1
  80  000A              	fcall __DELAYY3 +3-(((23-( 9 + __PBP__ * 2))%0402h)%4) 
  80  000A              	ENDIF
  80  000A  0F08        	mov a,8
  80  000B  0080     E  	mov rb,a
  78  000C              #line 78 "C:\Users\SA\Desktop\VR回饋TIMER\UART.c"
"File: UART.c        Assembler  Version HGASM0202      Page 17

  78  000C  1F00     E  	clr ra
  78  000D              _L32:
  83  000D              #line 83 "C:\Users\SA\Desktop\VR回饋TIMER\UART.c"
  83  000D  340A        	clr c
  83  000E  1B80     E  	rrc ra
  84  000F              #line 84 "C:\Users\SA\Desktop\VR回饋TIMER\UART.c"
  84  000F  38A2        	snz [34].1
  84  0010  2800     R  	jmp _L30
  84  0011  3000     E  	set ra.7
  84  0012              _L30:
  85  0012              #line 85 "C:\Users\SA\Desktop\VR回饋TIMER\UART.c"
  85  0012              ;# 85 "C:\Users\SA\Desktop\VR回饋TIMER\UART.c" 1
  85  0012              	IF 9>263690
  85  0012              ;# 85 "C:\Users\SA\Desktop\VR回饋TIMER\UART.c" 1
  85  0012              	ERRMESSAGE 'the value 9of the argument exceeds the maxinum 263690'
  85  0012              	ENDIF
  85  0012              ;# 85 "C:\Users\SA\Desktop\VR回饋TIMER\UART.c" 1
  85  0012              	IF 9<0
  85  0012              ;# 85 "C:\Users\SA\Desktop\VR回饋TIMER\UART.c" 1
  85  0012              	ERRMESSAGE 'the value 9 of the argument exceeds the mininum 0'
  85  0012              	ENDIF
  85  0012              ;# 85 "C:\Users\SA\Desktop\VR回饋TIMER\UART.c" 1
  85  0012              	IF 9==0
  85  0012              ;# 85 "C:\Users\SA\Desktop\VR回饋TIMER\UART.c" 1
  85  0012              	JMP $
  85  0012              	ENDIF
  85  0012              ;# 85 "C:\Users\SA\Desktop\VR回饋TIMER\UART.c" 1
  85  0012              	IF (9>=1) AND (9<( 4 + __PBP__ * 2))
  85  0012              ;# 85 "C:\Users\SA\Desktop\VR回饋TIMER\UART.c" 1
  85  0012              	NOP
  85  0012              	ENDIF
  85  0012              ;# 85 "C:\Users\SA\Desktop\VR回饋TIMER\UART.c" 1
  85  0012              	IF (9>=2) AND (9<( 4 + __PBP__ * 2))
  85  0012              ;# 85 "C:\Users\SA\Desktop\VR回饋TIMER\UART.c" 1
  85  0012              	NOP
  85  0012              	ENDIF
  85  0012              ;# 85 "C:\Users\SA\Desktop\VR回饋TIMER\UART.c" 1
  85  0012              	IF (9>=3) AND (9<( 4 + __PBP__ * 2))
  85  0012              ;# 85 "C:\Users\SA\Desktop\VR回饋TIMER\UART.c" 1
  85  0012              	NOP
  85  0012              	ENDIF
  85  0012              ;# 85 "C:\Users\SA\Desktop\VR回饋TIMER\UART.c" 1
  85  0012              	IF (9>=4) AND (9<( 4 + __PBP__ * 2)) AND ( __PBP__ > 0 )
  85  0012              ;# 85 "C:\Users\SA\Desktop\VR回饋TIMER\UART.c" 1
  85  0012              	NOP
  85  0012              	ENDIF
  85  0012              ;# 85 "C:\Users\SA\Desktop\VR回饋TIMER\UART.c" 1
  85  0012              	IF (9>=5) AND (9<( 4 + __PBP__ * 2)) AND ( __PBP__ > 0 )
  85  0012              ;# 85 "C:\Users\SA\Desktop\VR回饋TIMER\UART.c" 1
  85  0012              	NOP
  85  0012              	ENDIF
  85  0012              ;# 85 "C:\Users\SA\Desktop\VR回饋TIMER\UART.c" 1
  85  0012              	IF (9>=6) AND (9<( 4 + __PBP__ * 2))  AND ( __PBP__ > 1 )
  85  0012              ;# 85 "C:\Users\SA\Desktop\VR回饋TIMER\UART.c" 1
  85  0012              	NOP
  85  0012              	ENDIF
  85  0012              ;# 85 "C:\Users\SA\Desktop\VR回饋TIMER\UART.c" 1
  85  0012              	IF (9>=7) AND (9<( 4 + __PBP__ * 2))  AND ( __PBP__ > 1 )
  85  0012              ;# 85 "C:\Users\SA\Desktop\VR回饋TIMER\UART.c" 1
  85  0012              	NOP
"File: UART.c        Assembler  Version HGASM0202      Page 18

  85  0012              	ENDIF
  85  0012              ;# 85 "C:\Users\SA\Desktop\VR回饋TIMER\UART.c" 1
  85  0012              	IF (9>=8) AND (9<( 4 + __PBP__ * 2))  AND ( __PBP__ > 2 )
  85  0012              ;# 85 "C:\Users\SA\Desktop\VR回饋TIMER\UART.c" 1
  85  0012              	NOP
  85  0012              	ENDIF
  85  0012              ;# 85 "C:\Users\SA\Desktop\VR回饋TIMER\UART.c" 1
  85  0012              	IF (9==9)  AND ( __PBP__ > 2 )
  85  0012              ;# 85 "C:\Users\SA\Desktop\VR回饋TIMER\UART.c" 1
  85  0012              	NOP
  85  0012              	ENDIF
  85  0012              ;# 85 "C:\Users\SA\Desktop\VR回饋TIMER\UART.c" 1
  85  0012              	IF (9< ( 8 + __PBP__ * 2)) AND (9>( 3 + __PBP__ * 2))
  85  0012              ;# 85 "C:\Users\SA\Desktop\VR回饋TIMER\UART.c" 1
  85  0012              	fcall __DELAY3 + ( 7 + __PBP__ * 2) -9
  85  0019              	ENDIF
  85  0019              ;# 85 "C:\Users\SA\Desktop\VR回饋TIMER\UART.c" 1
  85  0019              	IF (9< ( 0404h + __PBP__ * 2)) AND (9>( 7 + __PBP__ * 2))
  85  0019              ;# 85 "C:\Users\SA\Desktop\VR回饋TIMER\UART.c" 1
  85  0019              	MOV A,(9-( 4 + __PBP__ * 2))/4
  85  0019              ;# 85 "C:\Users\SA\Desktop\VR回饋TIMER\UART.c" 1
  85  0019              	fcall __DELAYX3 + 3 -((9-( 4 + __PBP__ * 2)) MOD 4) 
  85  0019              	ENDIF
  85  0019              ;# 85 "C:\Users\SA\Desktop\VR回饋TIMER\UART.c" 1
  85  0019              	IF (9< ( 040bh + __PBP__ * 2)) AND (9> ( 0403h + __PBP__ * 2))
  85  0019              ;# 85 "C:\Users\SA\Desktop\VR回饋TIMER\UART.c" 1
  85  0019              	MOV A,0 
  85  0019              ;# 85 "C:\Users\SA\Desktop\VR回饋TIMER\UART.c" 1
  85  0019              	fcall __DELAYX6 + ( 040ah + __PBP__ * 2) -9
  85  0019              	ENDIF
  85  0019              ;# 85 "C:\Users\SA\Desktop\VR回饋TIMER\UART.c" 1
  85  0019              	IF (9 >= ( 040bh + __PBP__ * 2)) AND ((((9-( 9 + __PBP__ * 2))%0402h)/4+1)>256)
  85  0019              ;# 85 "C:\Users\SA\Desktop\VR回饋TIMER\UART.c" 1
  85  0019              	MOV A,(9-( 9 + __PBP__ * 2))/0402h
  85  0019              ;# 85 "C:\Users\SA\Desktop\VR回饋TIMER\UART.c" 1
  85  0019              	MOV _builtin_holtek_delay_2,A
  85  0019              ;# 85 "C:\Users\SA\Desktop\VR回饋TIMER\UART.c" 1
  85  0019              	MOV A,0
  85  0019              ;# 85 "C:\Users\SA\Desktop\VR回饋TIMER\UART.c" 1
  85  0019              	fcall __DELAYY5 +5- (((9-( 9 + __PBP__ * 2))%0402h)%6) 
  85  0019              	ENDIF
  85  0019              ;# 85 "C:\Users\SA\Desktop\VR回饋TIMER\UART.c" 1
  85  0019              	IF (9 >= ( 040bh + __PBP__ * 2)) AND ((((9-( 9 + __PBP__ * 2))%0402h)/4+1)<=256)
  85  0019              ;# 85 "C:\Users\SA\Desktop\VR回饋TIMER\UART.c" 1
  85  0019              	MOV A,(9-( 9 + __PBP__ * 2))/0402h
  85  0019              ;# 85 "C:\Users\SA\Desktop\VR回饋TIMER\UART.c" 1
  85  0019              	MOV _builtin_holtek_delay_2,A
  85  0019              ;# 85 "C:\Users\SA\Desktop\VR回饋TIMER\UART.c" 1
  85  0019              	MOV A,((9-( 9 + __PBP__ * 2))%0402h)/4+1
  85  0019              ;# 85 "C:\Users\SA\Desktop\VR回饋TIMER\UART.c" 1
  85  0019              	fcall __DELAYY3 +3-(((9-( 9 + __PBP__ * 2))%0402h)%4) 
  85  0019              	ENDIF
  85  0019  1780     E  	sdz rb
  85  001A  2800     R  	jmp _L32
  88  001B              #line 88 "C:\Users\SA\Desktop\VR回饋TIMER\UART.c"
  88  001B  0700     E  	mov a,ra
  88  001C  0003        	ret
  88  001D              _PC_RX_115200 endp
  88  001D              #line 88 "C:\Users\SA\Desktop\VR回饋TIMER\UART.c"
  88  001D              #pragma debug scope 1 1
"File: UART.c        Assembler  Version HGASM0202      Page 19

  88  001D              public _rx_string_115200
  88  001D              #pragma debug scope 8 1
  90  001D              #line 90 "C:\Users\SA\Desktop\VR回饋TIMER\UART.c"
  90  0000              _rx_string_115200 .section 'code'
  90  0000              _rx_string_115200 proc
  90  0000  0002[           local _rx_string_115200_2 db 2 dup(?)	; 0,2
            00
            ]
  90  0002              #pragma debug variable 7 8 _rx_string_115200_2+1 "w"
  90  0000  0F0A        	mov a,10
  90  0001  0080     R  	mov _rx_string_115200_2[0],a
  92  0002              #line 92 "C:\Users\SA\Desktop\VR回饋TIMER\UART.c"
  92  0002  1F00     R  	clr _rx_string_115200_2[1]
  92  0003              _L38:
  94  0003              #line 94 "C:\Users\SA\Desktop\VR回饋TIMER\UART.c"
  94  0003              	fcall _PC_RX_115200
  94  000A  0080     E  	mov ra,a
  94  000B  3400     E  	clr ra.7
  94  000C  0700     R  	mov a,_rx_string_115200_2[1]
  94  000D  0080     E  	mov rb,a
  94  000E  1F00     E  	clr rc
  94  000F  3F85        	sz acc.7
  94  0010  1F80     E  	set rc
  94  0011  0F00     R  	mov a,low offset _output
  94  0012  0300     E  	add a,rb
  94  0013  0083        	mov mp,a
  94  0014  0F00     R  	mov a,high offset _output
  94  0015  1300     E  	adc a,rc
  94  0016  0084        	mov sbp,a
  94  0017  0700     E  	mov a,ra
  94  0018  0082        	mov ir,a
  95  0019              #line 95 "C:\Users\SA\Desktop\VR回饋TIMER\UART.c"
  95  0019  0700     E  	mov a,ra
  95  001A  0A0D        	sub a,13
  95  001B  3D0A        	sz z
  95  001C  2800     R  	jmp _L36
  92  001D              #line 92 "C:\Users\SA\Desktop\VR回饋TIMER\UART.c"
  92  001D  1480     R  	inc _rx_string_115200_2[1]
  92  001E  1780     R  	sdz _rx_string_115200_2[0]
  92  001F  2800     R  	jmp _L38
  92  0020              _L36:
  92  0020  0003        	ret
  92  0021              _rx_string_115200 endp
  92  0021              #line 92 "C:\Users\SA\Desktop\VR回饋TIMER\UART.c"
  92  0021              #pragma debug scope 1 1
  92  0021              public _PC_TX_115200
  92  0021              #pragma debug scope 9 1
  99  0021              #line 99 "C:\Users\SA\Desktop\VR回饋TIMER\UART.c"
  99  0000              _PC_TX_115200 .section 'code'
  99  0000              _PC_TX_115200 proc
  99  0000  00              local _PC_TX_115200_2 db 1 dup(?)	; 0,1
  99  0000  0080     R  	mov _PC_TX_115200_2[0],a
  99  0001              #pragma debug variable 7 9 _PC_TX_115200_2+0 "da"
 102  0001              #line 102 "C:\Users\SA\Desktop\VR回饋TIMER\UART.c"
 102  0001  3422        	clr [34].0
 102  0002              ;# 102 "C:\Users\SA\Desktop\VR回饋TIMER\UART.c" 1
 102  0002              	IF 20>263690
 102  0002              ;# 102 "C:\Users\SA\Desktop\VR回饋TIMER\UART.c" 1
 102  0002              	ERRMESSAGE 'the value 20of the argument exceeds the maxinum 263690'
 102  0002              	ENDIF
"File: UART.c        Assembler  Version HGASM0202      Page 20

 102  0002              ;# 102 "C:\Users\SA\Desktop\VR回饋TIMER\UART.c" 1
 102  0002              	IF 20<0
 102  0002              ;# 102 "C:\Users\SA\Desktop\VR回饋TIMER\UART.c" 1
 102  0002              	ERRMESSAGE 'the value 20 of the argument exceeds the mininum 0'
 102  0002              	ENDIF
 102  0002              ;# 102 "C:\Users\SA\Desktop\VR回饋TIMER\UART.c" 1
 102  0002              	IF 20==0
 102  0002              ;# 102 "C:\Users\SA\Desktop\VR回饋TIMER\UART.c" 1
 102  0002              	JMP $
 102  0002              	ENDIF
 102  0002              ;# 102 "C:\Users\SA\Desktop\VR回饋TIMER\UART.c" 1
 102  0002              	IF (20>=1) AND (20<( 4 + __PBP__ * 2))
 102  0002              ;# 102 "C:\Users\SA\Desktop\VR回饋TIMER\UART.c" 1
 102  0002              	NOP
 102  0002              	ENDIF
 102  0002              ;# 102 "C:\Users\SA\Desktop\VR回饋TIMER\UART.c" 1
 102  0002              	IF (20>=2) AND (20<( 4 + __PBP__ * 2))
 102  0002              ;# 102 "C:\Users\SA\Desktop\VR回饋TIMER\UART.c" 1
 102  0002              	NOP
 102  0002              	ENDIF
 102  0002              ;# 102 "C:\Users\SA\Desktop\VR回饋TIMER\UART.c" 1
 102  0002              	IF (20>=3) AND (20<( 4 + __PBP__ * 2))
 102  0002              ;# 102 "C:\Users\SA\Desktop\VR回饋TIMER\UART.c" 1
 102  0002              	NOP
 102  0002              	ENDIF
 102  0002              ;# 102 "C:\Users\SA\Desktop\VR回饋TIMER\UART.c" 1
 102  0002              	IF (20>=4) AND (20<( 4 + __PBP__ * 2)) AND ( __PBP__ > 0 )
 102  0002              ;# 102 "C:\Users\SA\Desktop\VR回饋TIMER\UART.c" 1
 102  0002              	NOP
 102  0002              	ENDIF
 102  0002              ;# 102 "C:\Users\SA\Desktop\VR回饋TIMER\UART.c" 1
 102  0002              	IF (20>=5) AND (20<( 4 + __PBP__ * 2)) AND ( __PBP__ > 0 )
 102  0002              ;# 102 "C:\Users\SA\Desktop\VR回饋TIMER\UART.c" 1
 102  0002              	NOP
 102  0002              	ENDIF
 102  0002              ;# 102 "C:\Users\SA\Desktop\VR回饋TIMER\UART.c" 1
 102  0002              	IF (20>=6) AND (20<( 4 + __PBP__ * 2))  AND ( __PBP__ > 1 )
 102  0002              ;# 102 "C:\Users\SA\Desktop\VR回饋TIMER\UART.c" 1
 102  0002              	NOP
 102  0002              	ENDIF
 102  0002              ;# 102 "C:\Users\SA\Desktop\VR回饋TIMER\UART.c" 1
 102  0002              	IF (20>=7) AND (20<( 4 + __PBP__ * 2))  AND ( __PBP__ > 1 )
 102  0002              ;# 102 "C:\Users\SA\Desktop\VR回饋TIMER\UART.c" 1
 102  0002              	NOP
 102  0002              	ENDIF
 102  0002              ;# 102 "C:\Users\SA\Desktop\VR回饋TIMER\UART.c" 1
 102  0002              	IF (20>=8) AND (20<( 4 + __PBP__ * 2))  AND ( __PBP__ > 2 )
 102  0002              ;# 102 "C:\Users\SA\Desktop\VR回饋TIMER\UART.c" 1
 102  0002              	NOP
 102  0002              	ENDIF
 102  0002              ;# 102 "C:\Users\SA\Desktop\VR回饋TIMER\UART.c" 1
 102  0002              	IF (20==9)  AND ( __PBP__ > 2 )
 102  0002              ;# 102 "C:\Users\SA\Desktop\VR回饋TIMER\UART.c" 1
 102  0002              	NOP
 102  0002              	ENDIF
 102  0002              ;# 102 "C:\Users\SA\Desktop\VR回饋TIMER\UART.c" 1
 102  0002              	IF (20< ( 8 + __PBP__ * 2)) AND (20>( 3 + __PBP__ * 2))
 102  0002              ;# 102 "C:\Users\SA\Desktop\VR回饋TIMER\UART.c" 1
 102  0002              	fcall __DELAY3 + ( 7 + __PBP__ * 2) -20
 102  0002              	ENDIF
"File: UART.c        Assembler  Version HGASM0202      Page 21

 102  0002              ;# 102 "C:\Users\SA\Desktop\VR回饋TIMER\UART.c" 1
 102  0002              	IF (20< ( 0404h + __PBP__ * 2)) AND (20>( 7 + __PBP__ * 2))
 102  0002              ;# 102 "C:\Users\SA\Desktop\VR回饋TIMER\UART.c" 1
 102  0002  0F03        	MOV A,(20-( 4 + __PBP__ * 2))/4
 102  0003              ;# 102 "C:\Users\SA\Desktop\VR回饋TIMER\UART.c" 1
 102  0003              	fcall __DELAYX3 + 3 -((20-( 4 + __PBP__ * 2)) MOD 4) 
 102  000A              	ENDIF
 102  000A              ;# 102 "C:\Users\SA\Desktop\VR回饋TIMER\UART.c" 1
 102  000A              	IF (20< ( 040bh + __PBP__ * 2)) AND (20> ( 0403h + __PBP__ * 2))
 102  000A              ;# 102 "C:\Users\SA\Desktop\VR回饋TIMER\UART.c" 1
 102  000A              	MOV A,0 
 102  000A              ;# 102 "C:\Users\SA\Desktop\VR回饋TIMER\UART.c" 1
 102  000A              	fcall __DELAYX6 + ( 040ah + __PBP__ * 2) -20
 102  000A              	ENDIF
 102  000A              ;# 102 "C:\Users\SA\Desktop\VR回饋TIMER\UART.c" 1
 102  000A              	IF (20 >= ( 040bh + __PBP__ * 2)) AND ((((20-( 9 + __PBP__ * 2))%0402h)/4+1)>256)
 102  000A              ;# 102 "C:\Users\SA\Desktop\VR回饋TIMER\UART.c" 1
 102  000A              	MOV A,(20-( 9 + __PBP__ * 2))/0402h
 102  000A              ;# 102 "C:\Users\SA\Desktop\VR回饋TIMER\UART.c" 1
 102  000A              	MOV _builtin_holtek_delay_2,A
 102  000A              ;# 102 "C:\Users\SA\Desktop\VR回饋TIMER\UART.c" 1
 102  000A              	MOV A,0
 102  000A              ;# 102 "C:\Users\SA\Desktop\VR回饋TIMER\UART.c" 1
 102  000A              	fcall __DELAYY5 +5- (((20-( 9 + __PBP__ * 2))%0402h)%6) 
 102  000A              	ENDIF
 102  000A              ;# 102 "C:\Users\SA\Desktop\VR回饋TIMER\UART.c" 1
 102  000A              	IF (20 >= ( 040bh + __PBP__ * 2)) AND ((((20-( 9 + __PBP__ * 2))%0402h)/4+1)<=256)
 102  000A              ;# 102 "C:\Users\SA\Desktop\VR回饋TIMER\UART.c" 1
 102  000A              	MOV A,(20-( 9 + __PBP__ * 2))/0402h
 102  000A              ;# 102 "C:\Users\SA\Desktop\VR回饋TIMER\UART.c" 1
 102  000A              	MOV _builtin_holtek_delay_2,A
 102  000A              ;# 102 "C:\Users\SA\Desktop\VR回饋TIMER\UART.c" 1
 102  000A              	MOV A,((20-( 9 + __PBP__ * 2))%0402h)/4+1
 102  000A              ;# 102 "C:\Users\SA\Desktop\VR回饋TIMER\UART.c" 1
 102  000A              	fcall __DELAYY3 +3-(((20-( 9 + __PBP__ * 2))%0402h)%4) 
 102  000A              	ENDIF
 102  000A  0F08        	mov a,8
 102  000B  0080     E  	mov ra,a
 102  000C              _L49:
 105  000C              #line 105 "C:\Users\SA\Desktop\VR回饋TIMER\UART.c"
 105  000C  3800     R  	snz _PC_TX_115200_2[0].0
 105  000D  2800     R  	jmp _L46
 105  000E  3022        	set [34].0
 105  000F  2800     R  	jmp _L47
 105  0010              _L46:
 106  0010              #line 106 "C:\Users\SA\Desktop\VR回饋TIMER\UART.c"
 106  0010  3422        	clr [34].0
 106  0011              _L47:
 107  0011              #line 107 "C:\Users\SA\Desktop\VR回饋TIMER\UART.c"
 107  0011  1A00     R  	rlca _PC_TX_115200_2[0]
 107  0012  1B80     R  	rrc _PC_TX_115200_2[0]
 108  0013              #line 108 "C:\Users\SA\Desktop\VR回饋TIMER\UART.c"
 108  0013              ;# 108 "C:\Users\SA\Desktop\VR回饋TIMER\UART.c" 1
 108  0013              	IF 7>263690
 108  0013              ;# 108 "C:\Users\SA\Desktop\VR回饋TIMER\UART.c" 1
 108  0013              	ERRMESSAGE 'the value 7of the argument exceeds the maxinum 263690'
 108  0013              	ENDIF
 108  0013              ;# 108 "C:\Users\SA\Desktop\VR回饋TIMER\UART.c" 1
 108  0013              	IF 7<0
 108  0013              ;# 108 "C:\Users\SA\Desktop\VR回饋TIMER\UART.c" 1
"File: UART.c        Assembler  Version HGASM0202      Page 22

 108  0013              	ERRMESSAGE 'the value 7 of the argument exceeds the mininum 0'
 108  0013              	ENDIF
 108  0013              ;# 108 "C:\Users\SA\Desktop\VR回饋TIMER\UART.c" 1
 108  0013              	IF 7==0
 108  0013              ;# 108 "C:\Users\SA\Desktop\VR回饋TIMER\UART.c" 1
 108  0013              	JMP $
 108  0013              	ENDIF
 108  0013              ;# 108 "C:\Users\SA\Desktop\VR回饋TIMER\UART.c" 1
 108  0013              	IF (7>=1) AND (7<( 4 + __PBP__ * 2))
 108  0013              ;# 108 "C:\Users\SA\Desktop\VR回饋TIMER\UART.c" 1
 108  0013  0000        	NOP
 108  0014              	ENDIF
 108  0014              ;# 108 "C:\Users\SA\Desktop\VR回饋TIMER\UART.c" 1
 108  0014              	IF (7>=2) AND (7<( 4 + __PBP__ * 2))
 108  0014              ;# 108 "C:\Users\SA\Desktop\VR回饋TIMER\UART.c" 1
 108  0014  0000        	NOP
 108  0015              	ENDIF
 108  0015              ;# 108 "C:\Users\SA\Desktop\VR回饋TIMER\UART.c" 1
 108  0015              	IF (7>=3) AND (7<( 4 + __PBP__ * 2))
 108  0015              ;# 108 "C:\Users\SA\Desktop\VR回饋TIMER\UART.c" 1
 108  0015  0000        	NOP
 108  0016              	ENDIF
 108  0016              ;# 108 "C:\Users\SA\Desktop\VR回饋TIMER\UART.c" 1
 108  0016              	IF (7>=4) AND (7<( 4 + __PBP__ * 2)) AND ( __PBP__ > 0 )
 108  0016              ;# 108 "C:\Users\SA\Desktop\VR回饋TIMER\UART.c" 1
 108  0016  0000        	NOP
 108  0017              	ENDIF
 108  0017              ;# 108 "C:\Users\SA\Desktop\VR回饋TIMER\UART.c" 1
 108  0017              	IF (7>=5) AND (7<( 4 + __PBP__ * 2)) AND ( __PBP__ > 0 )
 108  0017              ;# 108 "C:\Users\SA\Desktop\VR回饋TIMER\UART.c" 1
 108  0017  0000        	NOP
 108  0018              	ENDIF
 108  0018              ;# 108 "C:\Users\SA\Desktop\VR回饋TIMER\UART.c" 1
 108  0018              	IF (7>=6) AND (7<( 4 + __PBP__ * 2))  AND ( __PBP__ > 1 )
 108  0018              ;# 108 "C:\Users\SA\Desktop\VR回饋TIMER\UART.c" 1
 108  0018  0000        	NOP
 108  0019              	ENDIF
 108  0019              ;# 108 "C:\Users\SA\Desktop\VR回饋TIMER\UART.c" 1
 108  0019              	IF (7>=7) AND (7<( 4 + __PBP__ * 2))  AND ( __PBP__ > 1 )
 108  0019              ;# 108 "C:\Users\SA\Desktop\VR回饋TIMER\UART.c" 1
 108  0019  0000        	NOP
 108  001A              	ENDIF
 108  001A              ;# 108 "C:\Users\SA\Desktop\VR回饋TIMER\UART.c" 1
 108  001A              	IF (7>=8) AND (7<( 4 + __PBP__ * 2))  AND ( __PBP__ > 2 )
 108  001A              ;# 108 "C:\Users\SA\Desktop\VR回饋TIMER\UART.c" 1
 108  001A              	NOP
 108  001A              	ENDIF
 108  001A              ;# 108 "C:\Users\SA\Desktop\VR回饋TIMER\UART.c" 1
 108  001A              	IF (7==9)  AND ( __PBP__ > 2 )
 108  001A              ;# 108 "C:\Users\SA\Desktop\VR回饋TIMER\UART.c" 1
 108  001A              	NOP
 108  001A              	ENDIF
 108  001A              ;# 108 "C:\Users\SA\Desktop\VR回饋TIMER\UART.c" 1
 108  001A              	IF (7< ( 8 + __PBP__ * 2)) AND (7>( 3 + __PBP__ * 2))
 108  001A              ;# 108 "C:\Users\SA\Desktop\VR回饋TIMER\UART.c" 1
 108  001A              	fcall __DELAY3 + ( 7 + __PBP__ * 2) -7
 108  001A              	ENDIF
 108  001A              ;# 108 "C:\Users\SA\Desktop\VR回饋TIMER\UART.c" 1
 108  001A              	IF (7< ( 0404h + __PBP__ * 2)) AND (7>( 7 + __PBP__ * 2))
 108  001A              ;# 108 "C:\Users\SA\Desktop\VR回饋TIMER\UART.c" 1
"File: UART.c        Assembler  Version HGASM0202      Page 23

 108  001A              	MOV A,(7-( 4 + __PBP__ * 2))/4
 108  001A              ;# 108 "C:\Users\SA\Desktop\VR回饋TIMER\UART.c" 1
 108  001A              	fcall __DELAYX3 + 3 -((7-( 4 + __PBP__ * 2)) MOD 4) 
 108  001A              	ENDIF
 108  001A              ;# 108 "C:\Users\SA\Desktop\VR回饋TIMER\UART.c" 1
 108  001A              	IF (7< ( 040bh + __PBP__ * 2)) AND (7> ( 0403h + __PBP__ * 2))
 108  001A              ;# 108 "C:\Users\SA\Desktop\VR回饋TIMER\UART.c" 1
 108  001A              	MOV A,0 
 108  001A              ;# 108 "C:\Users\SA\Desktop\VR回饋TIMER\UART.c" 1
 108  001A              	fcall __DELAYX6 + ( 040ah + __PBP__ * 2) -7
 108  001A              	ENDIF
 108  001A              ;# 108 "C:\Users\SA\Desktop\VR回饋TIMER\UART.c" 1
 108  001A              	IF (7 >= ( 040bh + __PBP__ * 2)) AND ((((7-( 9 + __PBP__ * 2))%0402h)/4+1)>256)
 108  001A              ;# 108 "C:\Users\SA\Desktop\VR回饋TIMER\UART.c" 1
 108  001A              	MOV A,(7-( 9 + __PBP__ * 2))/0402h
 108  001A              ;# 108 "C:\Users\SA\Desktop\VR回饋TIMER\UART.c" 1
 108  001A              	MOV _builtin_holtek_delay_2,A
 108  001A              ;# 108 "C:\Users\SA\Desktop\VR回饋TIMER\UART.c" 1
 108  001A              	MOV A,0
 108  001A              ;# 108 "C:\Users\SA\Desktop\VR回饋TIMER\UART.c" 1
 108  001A              	fcall __DELAYY5 +5- (((7-( 9 + __PBP__ * 2))%0402h)%6) 
 108  001A              	ENDIF
 108  001A              ;# 108 "C:\Users\SA\Desktop\VR回饋TIMER\UART.c" 1
 108  001A              	IF (7 >= ( 040bh + __PBP__ * 2)) AND ((((7-( 9 + __PBP__ * 2))%0402h)/4+1)<=256)
 108  001A              ;# 108 "C:\Users\SA\Desktop\VR回饋TIMER\UART.c" 1
 108  001A              	MOV A,(7-( 9 + __PBP__ * 2))/0402h
 108  001A              ;# 108 "C:\Users\SA\Desktop\VR回饋TIMER\UART.c" 1
 108  001A              	MOV _builtin_holtek_delay_2,A
 108  001A              ;# 108 "C:\Users\SA\Desktop\VR回饋TIMER\UART.c" 1
 108  001A              	MOV A,((7-( 9 + __PBP__ * 2))%0402h)/4+1
 108  001A              ;# 108 "C:\Users\SA\Desktop\VR回饋TIMER\UART.c" 1
 108  001A              	fcall __DELAYY3 +3-(((7-( 9 + __PBP__ * 2))%0402h)%4) 
 108  001A              	ENDIF
 108  001A  1780     E  	sdz ra
 108  001B  2800     R  	jmp _L49
 110  001C              #line 110 "C:\Users\SA\Desktop\VR回饋TIMER\UART.c"
 110  001C  3022        	set [34].0
 110  001D              ;# 110 "C:\Users\SA\Desktop\VR回饋TIMER\UART.c" 1
 110  001D              	IF 20>263690
 110  001D              ;# 110 "C:\Users\SA\Desktop\VR回饋TIMER\UART.c" 1
 110  001D              	ERRMESSAGE 'the value 20of the argument exceeds the maxinum 263690'
 110  001D              	ENDIF
 110  001D              ;# 110 "C:\Users\SA\Desktop\VR回饋TIMER\UART.c" 1
 110  001D              	IF 20<0
 110  001D              ;# 110 "C:\Users\SA\Desktop\VR回饋TIMER\UART.c" 1
 110  001D              	ERRMESSAGE 'the value 20 of the argument exceeds the mininum 0'
 110  001D              	ENDIF
 110  001D              ;# 110 "C:\Users\SA\Desktop\VR回饋TIMER\UART.c" 1
 110  001D              	IF 20==0
 110  001D              ;# 110 "C:\Users\SA\Desktop\VR回饋TIMER\UART.c" 1
 110  001D              	JMP $
 110  001D              	ENDIF
 110  001D              ;# 110 "C:\Users\SA\Desktop\VR回饋TIMER\UART.c" 1
 110  001D              	IF (20>=1) AND (20<( 4 + __PBP__ * 2))
 110  001D              ;# 110 "C:\Users\SA\Desktop\VR回饋TIMER\UART.c" 1
 110  001D              	NOP
 110  001D              	ENDIF
 110  001D              ;# 110 "C:\Users\SA\Desktop\VR回饋TIMER\UART.c" 1
 110  001D              	IF (20>=2) AND (20<( 4 + __PBP__ * 2))
 110  001D              ;# 110 "C:\Users\SA\Desktop\VR回饋TIMER\UART.c" 1
"File: UART.c        Assembler  Version HGASM0202      Page 24

 110  001D              	NOP
 110  001D              	ENDIF
 110  001D              ;# 110 "C:\Users\SA\Desktop\VR回饋TIMER\UART.c" 1
 110  001D              	IF (20>=3) AND (20<( 4 + __PBP__ * 2))
 110  001D              ;# 110 "C:\Users\SA\Desktop\VR回饋TIMER\UART.c" 1
 110  001D              	NOP
 110  001D              	ENDIF
 110  001D              ;# 110 "C:\Users\SA\Desktop\VR回饋TIMER\UART.c" 1
 110  001D              	IF (20>=4) AND (20<( 4 + __PBP__ * 2)) AND ( __PBP__ > 0 )
 110  001D              ;# 110 "C:\Users\SA\Desktop\VR回饋TIMER\UART.c" 1
 110  001D              	NOP
 110  001D              	ENDIF
 110  001D              ;# 110 "C:\Users\SA\Desktop\VR回饋TIMER\UART.c" 1
 110  001D              	IF (20>=5) AND (20<( 4 + __PBP__ * 2)) AND ( __PBP__ > 0 )
 110  001D              ;# 110 "C:\Users\SA\Desktop\VR回饋TIMER\UART.c" 1
 110  001D              	NOP
 110  001D              	ENDIF
 110  001D              ;# 110 "C:\Users\SA\Desktop\VR回饋TIMER\UART.c" 1
 110  001D              	IF (20>=6) AND (20<( 4 + __PBP__ * 2))  AND ( __PBP__ > 1 )
 110  001D              ;# 110 "C:\Users\SA\Desktop\VR回饋TIMER\UART.c" 1
 110  001D              	NOP
 110  001D              	ENDIF
 110  001D              ;# 110 "C:\Users\SA\Desktop\VR回饋TIMER\UART.c" 1
 110  001D              	IF (20>=7) AND (20<( 4 + __PBP__ * 2))  AND ( __PBP__ > 1 )
 110  001D              ;# 110 "C:\Users\SA\Desktop\VR回饋TIMER\UART.c" 1
 110  001D              	NOP
 110  001D              	ENDIF
 110  001D              ;# 110 "C:\Users\SA\Desktop\VR回饋TIMER\UART.c" 1
 110  001D              	IF (20>=8) AND (20<( 4 + __PBP__ * 2))  AND ( __PBP__ > 2 )
 110  001D              ;# 110 "C:\Users\SA\Desktop\VR回饋TIMER\UART.c" 1
 110  001D              	NOP
 110  001D              	ENDIF
 110  001D              ;# 110 "C:\Users\SA\Desktop\VR回饋TIMER\UART.c" 1
 110  001D              	IF (20==9)  AND ( __PBP__ > 2 )
 110  001D              ;# 110 "C:\Users\SA\Desktop\VR回饋TIMER\UART.c" 1
 110  001D              	NOP
 110  001D              	ENDIF
 110  001D              ;# 110 "C:\Users\SA\Desktop\VR回饋TIMER\UART.c" 1
 110  001D              	IF (20< ( 8 + __PBP__ * 2)) AND (20>( 3 + __PBP__ * 2))
 110  001D              ;# 110 "C:\Users\SA\Desktop\VR回饋TIMER\UART.c" 1
 110  001D              	fcall __DELAY3 + ( 7 + __PBP__ * 2) -20
 110  001D              	ENDIF
 110  001D              ;# 110 "C:\Users\SA\Desktop\VR回饋TIMER\UART.c" 1
 110  001D              	IF (20< ( 0404h + __PBP__ * 2)) AND (20>( 7 + __PBP__ * 2))
 110  001D              ;# 110 "C:\Users\SA\Desktop\VR回饋TIMER\UART.c" 1
 110  001D  0F03        	MOV A,(20-( 4 + __PBP__ * 2))/4
 110  001E              ;# 110 "C:\Users\SA\Desktop\VR回饋TIMER\UART.c" 1
 110  001E              	fcall __DELAYX3 + 3 -((20-( 4 + __PBP__ * 2)) MOD 4) 
 110  0025              	ENDIF
 110  0025              ;# 110 "C:\Users\SA\Desktop\VR回饋TIMER\UART.c" 1
 110  0025              	IF (20< ( 040bh + __PBP__ * 2)) AND (20> ( 0403h + __PBP__ * 2))
 110  0025              ;# 110 "C:\Users\SA\Desktop\VR回饋TIMER\UART.c" 1
 110  0025              	MOV A,0 
 110  0025              ;# 110 "C:\Users\SA\Desktop\VR回饋TIMER\UART.c" 1
 110  0025              	fcall __DELAYX6 + ( 040ah + __PBP__ * 2) -20
 110  0025              	ENDIF
 110  0025              ;# 110 "C:\Users\SA\Desktop\VR回饋TIMER\UART.c" 1
 110  0025              	IF (20 >= ( 040bh + __PBP__ * 2)) AND ((((20-( 9 + __PBP__ * 2))%0402h)/4+1)>256)
 110  0025              ;# 110 "C:\Users\SA\Desktop\VR回饋TIMER\UART.c" 1
 110  0025              	MOV A,(20-( 9 + __PBP__ * 2))/0402h
"File: UART.c        Assembler  Version HGASM0202      Page 25

 110  0025              ;# 110 "C:\Users\SA\Desktop\VR回饋TIMER\UART.c" 1
 110  0025              	MOV _builtin_holtek_delay_2,A
 110  0025              ;# 110 "C:\Users\SA\Desktop\VR回饋TIMER\UART.c" 1
 110  0025              	MOV A,0
 110  0025              ;# 110 "C:\Users\SA\Desktop\VR回饋TIMER\UART.c" 1
 110  0025              	fcall __DELAYY5 +5- (((20-( 9 + __PBP__ * 2))%0402h)%6) 
 110  0025              	ENDIF
 110  0025              ;# 110 "C:\Users\SA\Desktop\VR回饋TIMER\UART.c" 1
 110  0025              	IF (20 >= ( 040bh + __PBP__ * 2)) AND ((((20-( 9 + __PBP__ * 2))%0402h)/4+1)<=256)
 110  0025              ;# 110 "C:\Users\SA\Desktop\VR回饋TIMER\UART.c" 1
 110  0025              	MOV A,(20-( 9 + __PBP__ * 2))/0402h
 110  0025              ;# 110 "C:\Users\SA\Desktop\VR回饋TIMER\UART.c" 1
 110  0025              	MOV _builtin_holtek_delay_2,A
 110  0025              ;# 110 "C:\Users\SA\Desktop\VR回饋TIMER\UART.c" 1
 110  0025              	MOV A,((20-( 9 + __PBP__ * 2))%0402h)/4+1
 110  0025              ;# 110 "C:\Users\SA\Desktop\VR回饋TIMER\UART.c" 1
 110  0025              	fcall __DELAYY3 +3-(((20-( 9 + __PBP__ * 2))%0402h)%4) 
 110  0025              	ENDIF
 110  0025  0003        	ret
 110  0026              _PC_TX_115200 endp
 110  0026              #line 110 "C:\Users\SA\Desktop\VR回饋TIMER\UART.c"
 110  0026              #pragma debug scope 1 1
 110  0026              public _tx_string_115200
 110  0026              #pragma debug scope 10 1
 114  0026              #line 114 "C:\Users\SA\Desktop\VR回饋TIMER\UART.c"
 114  0000              _tx_string_115200 .section 'code'
 114  0000              _tx_string_115200 proc
 114  0000              public _tx_string_115200_2
 114  0000  0005[           local _tx_string_115200_2 db 5 dup(?)	; 4,1
            00
            ]
 114  0005              #pragma debug pointer 43 7 10
 114  0005              #pragma debug pointer 43 7 10
 114  0005              #pragma debug variable 43 10 _tx_string_115200_2+0 "data"
 114  0005              #pragma debug variable 11 10 _tx_string_115200_2+2 "c"
 114  0005              #pragma debug variable 7 10 _tx_string_115200_2+4 "test"
 116  0005              #line 116 "C:\Users\SA\Desktop\VR回饋TIMER\UART.c"
 116  0000  1F00     R  	clr _tx_string_115200_2[4]
 116  0001  2800     R  	jmp _L51
 116  0002              _L52:
 118  0002              #line 118 "C:\Users\SA\Desktop\VR回饋TIMER\UART.c"
 118  0002  0700     E  	mov a,rb
 118  0003  0300     R  	add a,_tx_string_115200_2[0]
 118  0004  0083        	mov mp,a
 118  0005  0700     E  	mov a,rc
 118  0006  1300     R  	adc a,_tx_string_115200_2[1]
 118  0007  0084        	mov sbp,a
 118  0008              	fcall _Crom2Prom
 118  000F              	fcall _PC_TX_115200
 116  0016              #line 116 "C:\Users\SA\Desktop\VR回饋TIMER\UART.c"
 116  0016  1480     R  	inc _tx_string_115200_2[4]
 116  0017              _L51:
 116  0017  0700     R  	mov a,_tx_string_115200_2[4]
 116  0018  0080     E  	mov rb,a
 116  0019  1F00     E  	clr rc
 116  001A  3F85        	sz acc.7
 116  001B  1F80     E  	set rc
 116  001C  0700     R  	mov a,_tx_string_115200_2[2]
 116  001D  0200     E  	sub a,rb
 116  001E  0700     R  	mov a,_tx_string_115200_2[3]
"File: UART.c        Assembler  Version HGASM0202      Page 26

 116  001F  1200     E  	sbc a,rc
 116  0020  3B8A        	snz sc
 116  0021  2800     R  	jmp _L52
 116  0022  0003        	ret
 116  0023              _tx_string_115200 endp
 116  0023              #line 116 "C:\Users\SA\Desktop\VR回饋TIMER\UART.c"
 116  0023              #pragma debug scope 1 1
   9  0023              #line 9 "C:\Users\SA\Desktop\VR回饋TIMER\UART.c"
   9  0023              public _output
   9  0000              @HCCINIT0_output .section 'data'
   9  0000  0032[       _output	db 50 dup(0)
            00
            ]
   9  0032              #pragma debug array 44 7 50 1
   9  0032              #pragma debug array 44 7 50 1
   9  0032              #pragma debug variable 44 1 _output "output"
   9  0032              
   9  0000              @HCCINIT .section 'data'
   9  0000              #pragma debug struct_end
   9  0000              #pragma debug struct_end
   9  0000              #pragma debug union_end
   9  0000              #pragma debug union_end
   9  0000              #pragma debug variable 46 1 ___pe "__pe" 1
   9  0000              #pragma debug struct_end
   9  0000              #pragma debug struct_end
   9  0000              #pragma debug union_end
   9  0000              #pragma debug union_end
   9  0000              #pragma debug variable 48 1 ___pec "__pec" 1
   9  0000              
   9  0000              ; 
   9  0000              ; Generated by holtek-gcc v3.17, Thu Oct 12 13:32:22 2017
   9  0000              ; Rebuild 307
   9  0000              ; end of file


        0 Errors, 0