"File: HT66F70A.c    Assembler  Version HGASM0202      Page 1


   1  0000              ; Generated by holtek-gcc v3.17, Thu Oct 12 12:55:51 2017
   2  0000              ; 
   3  0000              ; Configuration:
   4  0000              ;       with long instruction
   5  0000              ;       Multi-ROM, Multi-RAM
   6  0000              ;       bits_per_rom_unit:16
   7  0000              ;       with mp1
   8  0000              ;       with tbhp, address(0x9)
   9  0000              ;          Use tabrd-const
  10  0000              ;       
  11  0000              ; SFR address of long-instruction arch:
  12  0000              ;    mp0 = -1,1,0
  13  0000              ;    mp1 = 4,3,2
  14  0000              ;    mp2 = 14,13,12
  15  0000              ;    tbp = 9,7,8
  16  0000              ;    acc = 5
  17  0000              ;    pcl = 6
  18  0000              ;    status = 10
  19  0000              ;    bp = 11
  20  0000              ;    intc = 48
  21  0000              ;       
  22  0000              ;       
  23  0000              ; use 'tabrdc' instead of 'tabrd'
  24  0000              ;       
  25  0000              
  26  0000              #pragma translator "holtek-gcc 4.6.4" "3.17" "build 20130711"
  27  0000              ; Rebuild 307
  28  0000              
  29  0000              ir equ [2]
  30  0000              mp equ [3]
  31  0000              sbp equ [4]
  32  0000              acc equ [5]
  33  0000              bp equ [11]
  34  0000              tblp equ [7]
  35  0000              tbhp equ [9]
  36  0000              status equ [10]
  37  0000              c equ [10].0
  38  0000              ac equ [10].1
  39  0000              z equ [10].2
  40  0000              ov equ [10].3
  41  0000              cz equ [10].6
  42  0000              sc equ [10].7
  43  0000              intc equ [48]
  44  0000              
  45  0000              extern ra:byte
  46  0000              extern rb:byte
  47  0000              extern rc:byte
  48  0000              extern rd:byte
  49  0000              extern re:byte
  50  0000              extern rf:byte
  51  0000              extern rg:byte
  52  0000              extern rh:byte
  53  0000              extern _Crom2Prom:near
  54  0000              extern _Crom2PromNext:near
  55  0000              
  56  0000              RAMBANK 0 @BITDATASEC, @BITDATASEC1
  57  0000              @HCCINIT	.section 'data'
  58  0000              @HCCINIT0	.section 'data'
  59  0000              @BITDATASEC	 .section 'data'
"File: HT66F70A.ASM  Assembler  Version HGASM0202      Page 2

  60  0000              @BITDATASEC1	 .section 'data'
  61  0000              
  62  0000              #pragma debug scope 1 1
  63  0000              	extern __DELAY3:near
  64  0000              	extern __DELAYX3:near
  65  0000              	extern __DELAYX6:near
  66  0000              	extern __DELAYY5:near
  67  0000              	extern __DELAYY3:near
  68  0000              	extern _builtin_holtek_delay_2:byte
  69  0000              public _LED_Delay
  70  0000              #pragma debug scope 2 1

  20  0000              #line 20 "C:\Users\SA\Desktop\微電腦code\VR vcom\HT66F70A.c"
  20  0000              _LED_Delay .section 'code'
  20  0000              _LED_Delay proc
  20  0000              public _LED_Delay_2
  20  0000  0002[           local _LED_Delay_2 db 2 dup(?)	; 2,0
            00
            ]
  20  0002              #pragma debug variable 10 2 _LED_Delay_2+0 "del"
  22  0002              #line 22 "C:\Users\SA\Desktop\微電腦code\VR vcom\HT66F70A.c"
  22  0000  1F00     E  	clr rb
  22  0001  1F00     E  	clr rc
  22  0002  2800     R  	jmp _L2
  22  0003              _L3:
  22  0003              #line 22 "C:\Users\SA\Desktop\微電腦code\VR vcom\HT66F70A.c"
  22  0003              ;# 22 "C:\Users\SA\Desktop\微電腦code\VR vcom\HT66F70A.c" 1
  22  0003              	IF 200>263690
  22  0003              ;# 22 "C:\Users\SA\Desktop\微電腦code\VR vcom\HT66F70A.c" 1
  22  0003              	ERRMESSAGE 'the value 200of the argument exceeds the maxinum 263690'
  22  0003              	ENDIF
  22  0003              ;# 22 "C:\Users\SA\Desktop\微電腦code\VR vcom\HT66F70A.c" 1
  22  0003              	IF 200<0
  22  0003              ;# 22 "C:\Users\SA\Desktop\微電腦code\VR vcom\HT66F70A.c" 1
  22  0003              	ERRMESSAGE 'the value 200 of the argument exceeds the mininum 0'
  22  0003              	ENDIF
  22  0003              ;# 22 "C:\Users\SA\Desktop\微電腦code\VR vcom\HT66F70A.c" 1
  22  0003              	IF 200==0
  22  0003              ;# 22 "C:\Users\SA\Desktop\微電腦code\VR vcom\HT66F70A.c" 1
  22  0003              	JMP $
  22  0003              	ENDIF
  22  0003              ;# 22 "C:\Users\SA\Desktop\微電腦code\VR vcom\HT66F70A.c" 1
  22  0003              	IF (200>=1) AND (200<( 4 + __PBP__ * 2))
  22  0003              ;# 22 "C:\Users\SA\Desktop\微電腦code\VR vcom\HT66F70A.c" 1
  22  0003              	NOP
  22  0003              	ENDIF
  22  0003              ;# 22 "C:\Users\SA\Desktop\微電腦code\VR vcom\HT66F70A.c" 1
  22  0003              	IF (200>=2) AND (200<( 4 + __PBP__ * 2))
  22  0003              ;# 22 "C:\Users\SA\Desktop\微電腦code\VR vcom\HT66F70A.c" 1
  22  0003              	NOP
  22  0003              	ENDIF
  22  0003              ;# 22 "C:\Users\SA\Desktop\微電腦code\VR vcom\HT66F70A.c" 1
  22  0003              	IF (200>=3) AND (200<( 4 + __PBP__ * 2))
  22  0003              ;# 22 "C:\Users\SA\Desktop\微電腦code\VR vcom\HT66F70A.c" 1
  22  0003              	NOP
  22  0003              	ENDIF
  22  0003              ;# 22 "C:\Users\SA\Desktop\微電腦code\VR vcom\HT66F70A.c" 1
  22  0003              	IF (200>=4) AND (200<( 4 + __PBP__ * 2)) AND ( __PBP__ > 0 )
  22  0003              ;# 22 "C:\Users\SA\Desktop\微電腦code\VR vcom\HT66F70A.c" 1
  22  0003              	NOP
"File: HT66F70A.c    Assembler  Version HGASM0202      Page 3

  22  0003              	ENDIF
  22  0003              ;# 22 "C:\Users\SA\Desktop\微電腦code\VR vcom\HT66F70A.c" 1
  22  0003              	IF (200>=5) AND (200<( 4 + __PBP__ * 2)) AND ( __PBP__ > 0 )
  22  0003              ;# 22 "C:\Users\SA\Desktop\微電腦code\VR vcom\HT66F70A.c" 1
  22  0003              	NOP
  22  0003              	ENDIF
  22  0003              ;# 22 "C:\Users\SA\Desktop\微電腦code\VR vcom\HT66F70A.c" 1
  22  0003              	IF (200>=6) AND (200<( 4 + __PBP__ * 2))  AND ( __PBP__ > 1 )
  22  0003              ;# 22 "C:\Users\SA\Desktop\微電腦code\VR vcom\HT66F70A.c" 1
  22  0003              	NOP
  22  0003              	ENDIF
  22  0003              ;# 22 "C:\Users\SA\Desktop\微電腦code\VR vcom\HT66F70A.c" 1
  22  0003              	IF (200>=7) AND (200<( 4 + __PBP__ * 2))  AND ( __PBP__ > 1 )
  22  0003              ;# 22 "C:\Users\SA\Desktop\微電腦code\VR vcom\HT66F70A.c" 1
  22  0003              	NOP
  22  0003              	ENDIF
  22  0003              ;# 22 "C:\Users\SA\Desktop\微電腦code\VR vcom\HT66F70A.c" 1
  22  0003              	IF (200>=8) AND (200<( 4 + __PBP__ * 2))  AND ( __PBP__ > 2 )
  22  0003              ;# 22 "C:\Users\SA\Desktop\微電腦code\VR vcom\HT66F70A.c" 1
  22  0003              	NOP
  22  0003              	ENDIF
  22  0003              ;# 22 "C:\Users\SA\Desktop\微電腦code\VR vcom\HT66F70A.c" 1
  22  0003              	IF (200==9)  AND ( __PBP__ > 2 )
  22  0003              ;# 22 "C:\Users\SA\Desktop\微電腦code\VR vcom\HT66F70A.c" 1
  22  0003              	NOP
  22  0003              	ENDIF
  22  0003              ;# 22 "C:\Users\SA\Desktop\微電腦code\VR vcom\HT66F70A.c" 1
  22  0003              	IF (200< ( 8 + __PBP__ * 2)) AND (200>( 3 + __PBP__ * 2))
  22  0003              ;# 22 "C:\Users\SA\Desktop\微電腦code\VR vcom\HT66F70A.c" 1
  22  0003              	fcall __DELAY3 + ( 7 + __PBP__ * 2) -200
  22  0003              	ENDIF
  22  0003              ;# 22 "C:\Users\SA\Desktop\微電腦code\VR vcom\HT66F70A.c" 1
  22  0003              	IF (200< ( 0404h + __PBP__ * 2)) AND (200>( 7 + __PBP__ * 2))
  22  0003              ;# 22 "C:\Users\SA\Desktop\微電腦code\VR vcom\HT66F70A.c" 1
  22  0003  0F30        	MOV A,(200-( 4 + __PBP__ * 2))/4
  22  0004              ;# 22 "C:\Users\SA\Desktop\微電腦code\VR vcom\HT66F70A.c" 1
  22  0004              	fcall __DELAYX3 + 3 -((200-( 4 + __PBP__ * 2)) MOD 4) 
  22  000B              	ENDIF
  22  000B              ;# 22 "C:\Users\SA\Desktop\微電腦code\VR vcom\HT66F70A.c" 1
  22  000B              	IF (200< ( 040bh + __PBP__ * 2)) AND (200> ( 0403h + __PBP__ * 2))
  22  000B              ;# 22 "C:\Users\SA\Desktop\微電腦code\VR vcom\HT66F70A.c" 1
  22  000B              	MOV A,0 
  22  000B              ;# 22 "C:\Users\SA\Desktop\微電腦code\VR vcom\HT66F70A.c" 1
  22  000B              	fcall __DELAYX6 + ( 040ah + __PBP__ * 2) -200
  22  000B              	ENDIF
  22  000B              ;# 22 "C:\Users\SA\Desktop\微電腦code\VR vcom\HT66F70A.c" 1
  22  000B              	IF (200 >= ( 040bh + __PBP__ * 2)) AND ((((200-( 9 + __PBP__ * 2))%0402h)/4+1)>256)
  22  000B              ;# 22 "C:\Users\SA\Desktop\微電腦code\VR vcom\HT66F70A.c" 1
  22  000B              	MOV A,(200-( 9 + __PBP__ * 2))/0402h
  22  000B              ;# 22 "C:\Users\SA\Desktop\微電腦code\VR vcom\HT66F70A.c" 1
  22  000B              	MOV _builtin_holtek_delay_2,A
  22  000B              ;# 22 "C:\Users\SA\Desktop\微電腦code\VR vcom\HT66F70A.c" 1
  22  000B              	MOV A,0
  22  000B              ;# 22 "C:\Users\SA\Desktop\微電腦code\VR vcom\HT66F70A.c" 1
  22  000B              	fcall __DELAYY5 +5- (((200-( 9 + __PBP__ * 2))%0402h)%6) 
  22  000B              	ENDIF
  22  000B              ;# 22 "C:\Users\SA\Desktop\微電腦code\VR vcom\HT66F70A.c" 1
  22  000B              	IF (200 >= ( 040bh + __PBP__ * 2)) AND ((((200-( 9 + __PBP__ * 2))%0402h)/4+1)<=256)
  22  000B              ;# 22 "C:\Users\SA\Desktop\微電腦code\VR vcom\HT66F70A.c" 1
  22  000B              	MOV A,(200-( 9 + __PBP__ * 2))/0402h
"File: HT66F70A.c    Assembler  Version HGASM0202      Page 4

  22  000B              ;# 22 "C:\Users\SA\Desktop\微電腦code\VR vcom\HT66F70A.c" 1
  22  000B              	MOV _builtin_holtek_delay_2,A
  22  000B              ;# 22 "C:\Users\SA\Desktop\微電腦code\VR vcom\HT66F70A.c" 1
  22  000B              	MOV A,((200-( 9 + __PBP__ * 2))%0402h)/4+1
  22  000B              ;# 22 "C:\Users\SA\Desktop\微電腦code\VR vcom\HT66F70A.c" 1
  22  000B              	fcall __DELAYY3 +3-(((200-( 9 + __PBP__ * 2))%0402h)%4) 
  22  000B              	ENDIF
  22  000B  1480     E  	inc rb
  22  000C  3D0A        	sz z
  22  000D  1480     E  	inc rc
  22  000E              _L2:
  22  000E  0700     E  	mov a,rb
  22  000F  0200     R  	sub a,_LED_Delay_2[0]
  22  0010  0700     E  	mov a,rc
  22  0011  1200     R  	sbc a,_LED_Delay_2[1]
  22  0012  3B0A        	snz cz
  22  0013  2800     R  	jmp _L3
  22  0014  0003        	ret
  22  0015              _LED_Delay endp
  22  0015              #line 22 "C:\Users\SA\Desktop\微電腦code\VR vcom\HT66F70A.c"
  22  0015              #pragma debug scope 1 1
  22  0015              public _Delayms
  22  0015              #pragma debug scope 3 1
  26  0015              #line 26 "C:\Users\SA\Desktop\微電腦code\VR vcom\HT66F70A.c"
  26  0000              _Delayms .section 'code'
  26  0000              _Delayms proc
  26  0000              public _Delayms_2
  26  0000  0002[           local _Delayms_2 db 2 dup(?)	; 2,0
            00
            ]
  26  0002              #pragma debug variable 10 3 _Delayms_2+0 "del"
  28  0002              #line 28 "C:\Users\SA\Desktop\微電腦code\VR vcom\HT66F70A.c"
  28  0000  1F00     E  	clr rb
  28  0001  1F00     E  	clr rc
  28  0002  2800     R  	jmp _L6
  28  0003              _L7:
  28  0003              #line 28 "C:\Users\SA\Desktop\微電腦code\VR vcom\HT66F70A.c"
  28  0003              ;# 28 "C:\Users\SA\Desktop\微電腦code\VR vcom\HT66F70A.c" 1
  28  0003              	IF 2000>263690
  28  0003              ;# 28 "C:\Users\SA\Desktop\微電腦code\VR vcom\HT66F70A.c" 1
  28  0003              	ERRMESSAGE 'the value 2000of the argument exceeds the maxinum 263690'
  28  0003              	ENDIF
  28  0003              ;# 28 "C:\Users\SA\Desktop\微電腦code\VR vcom\HT66F70A.c" 1
  28  0003              	IF 2000<0
  28  0003              ;# 28 "C:\Users\SA\Desktop\微電腦code\VR vcom\HT66F70A.c" 1
  28  0003              	ERRMESSAGE 'the value 2000 of the argument exceeds the mininum 0'
  28  0003              	ENDIF
  28  0003              ;# 28 "C:\Users\SA\Desktop\微電腦code\VR vcom\HT66F70A.c" 1
  28  0003              	IF 2000==0
  28  0003              ;# 28 "C:\Users\SA\Desktop\微電腦code\VR vcom\HT66F70A.c" 1
  28  0003              	JMP $
  28  0003              	ENDIF
  28  0003              ;# 28 "C:\Users\SA\Desktop\微電腦code\VR vcom\HT66F70A.c" 1
  28  0003              	IF (2000>=1) AND (2000<( 4 + __PBP__ * 2))
  28  0003              ;# 28 "C:\Users\SA\Desktop\微電腦code\VR vcom\HT66F70A.c" 1
  28  0003              	NOP
  28  0003              	ENDIF
  28  0003              ;# 28 "C:\Users\SA\Desktop\微電腦code\VR vcom\HT66F70A.c" 1
  28  0003              	IF (2000>=2) AND (2000<( 4 + __PBP__ * 2))
  28  0003              ;# 28 "C:\Users\SA\Desktop\微電腦code\VR vcom\HT66F70A.c" 1
"File: HT66F70A.c    Assembler  Version HGASM0202      Page 5

  28  0003              	NOP
  28  0003              	ENDIF
  28  0003              ;# 28 "C:\Users\SA\Desktop\微電腦code\VR vcom\HT66F70A.c" 1
  28  0003              	IF (2000>=3) AND (2000<( 4 + __PBP__ * 2))
  28  0003              ;# 28 "C:\Users\SA\Desktop\微電腦code\VR vcom\HT66F70A.c" 1
  28  0003              	NOP
  28  0003              	ENDIF
  28  0003              ;# 28 "C:\Users\SA\Desktop\微電腦code\VR vcom\HT66F70A.c" 1
  28  0003              	IF (2000>=4) AND (2000<( 4 + __PBP__ * 2)) AND ( __PBP__ > 0 )
  28  0003              ;# 28 "C:\Users\SA\Desktop\微電腦code\VR vcom\HT66F70A.c" 1
  28  0003              	NOP
  28  0003              	ENDIF
  28  0003              ;# 28 "C:\Users\SA\Desktop\微電腦code\VR vcom\HT66F70A.c" 1
  28  0003              	IF (2000>=5) AND (2000<( 4 + __PBP__ * 2)) AND ( __PBP__ > 0 )
  28  0003              ;# 28 "C:\Users\SA\Desktop\微電腦code\VR vcom\HT66F70A.c" 1
  28  0003              	NOP
  28  0003              	ENDIF
  28  0003              ;# 28 "C:\Users\SA\Desktop\微電腦code\VR vcom\HT66F70A.c" 1
  28  0003              	IF (2000>=6) AND (2000<( 4 + __PBP__ * 2))  AND ( __PBP__ > 1 )
  28  0003              ;# 28 "C:\Users\SA\Desktop\微電腦code\VR vcom\HT66F70A.c" 1
  28  0003              	NOP
  28  0003              	ENDIF
  28  0003              ;# 28 "C:\Users\SA\Desktop\微電腦code\VR vcom\HT66F70A.c" 1
  28  0003              	IF (2000>=7) AND (2000<( 4 + __PBP__ * 2))  AND ( __PBP__ > 1 )
  28  0003              ;# 28 "C:\Users\SA\Desktop\微電腦code\VR vcom\HT66F70A.c" 1
  28  0003              	NOP
  28  0003              	ENDIF
  28  0003              ;# 28 "C:\Users\SA\Desktop\微電腦code\VR vcom\HT66F70A.c" 1
  28  0003              	IF (2000>=8) AND (2000<( 4 + __PBP__ * 2))  AND ( __PBP__ > 2 )
  28  0003              ;# 28 "C:\Users\SA\Desktop\微電腦code\VR vcom\HT66F70A.c" 1
  28  0003              	NOP
  28  0003              	ENDIF
  28  0003              ;# 28 "C:\Users\SA\Desktop\微電腦code\VR vcom\HT66F70A.c" 1
  28  0003              	IF (2000==9)  AND ( __PBP__ > 2 )
  28  0003              ;# 28 "C:\Users\SA\Desktop\微電腦code\VR vcom\HT66F70A.c" 1
  28  0003              	NOP
  28  0003              	ENDIF
  28  0003              ;# 28 "C:\Users\SA\Desktop\微電腦code\VR vcom\HT66F70A.c" 1
  28  0003              	IF (2000< ( 8 + __PBP__ * 2)) AND (2000>( 3 + __PBP__ * 2))
  28  0003              ;# 28 "C:\Users\SA\Desktop\微電腦code\VR vcom\HT66F70A.c" 1
  28  0003              	fcall __DELAY3 + ( 7 + __PBP__ * 2) -2000
  28  0003              	ENDIF
  28  0003              ;# 28 "C:\Users\SA\Desktop\微電腦code\VR vcom\HT66F70A.c" 1
  28  0003              	IF (2000< ( 0404h + __PBP__ * 2)) AND (2000>( 7 + __PBP__ * 2))
  28  0003              ;# 28 "C:\Users\SA\Desktop\微電腦code\VR vcom\HT66F70A.c" 1
  28  0003              	MOV A,(2000-( 4 + __PBP__ * 2))/4
  28  0003              ;# 28 "C:\Users\SA\Desktop\微電腦code\VR vcom\HT66F70A.c" 1
  28  0003              	fcall __DELAYX3 + 3 -((2000-( 4 + __PBP__ * 2)) MOD 4) 
  28  0003              	ENDIF
  28  0003              ;# 28 "C:\Users\SA\Desktop\微電腦code\VR vcom\HT66F70A.c" 1
  28  0003              	IF (2000< ( 040bh + __PBP__ * 2)) AND (2000> ( 0403h + __PBP__ * 2))
  28  0003              ;# 28 "C:\Users\SA\Desktop\微電腦code\VR vcom\HT66F70A.c" 1
  28  0003              	MOV A,0 
  28  0003              ;# 28 "C:\Users\SA\Desktop\微電腦code\VR vcom\HT66F70A.c" 1
  28  0003              	fcall __DELAYX6 + ( 040ah + __PBP__ * 2) -2000
  28  0003              	ENDIF
  28  0003              ;# 28 "C:\Users\SA\Desktop\微電腦code\VR vcom\HT66F70A.c" 1
  28  0003              	IF (2000 >= ( 040bh + __PBP__ * 2)) AND ((((2000-( 9 + __PBP__ * 2))%0402h)/4+1)>256)
  28  0003              ;# 28 "C:\Users\SA\Desktop\微電腦code\VR vcom\HT66F70A.c" 1
  28  0003              	MOV A,(2000-( 9 + __PBP__ * 2))/0402h
"File: HT66F70A.c    Assembler  Version HGASM0202      Page 6

  28  0003              ;# 28 "C:\Users\SA\Desktop\微電腦code\VR vcom\HT66F70A.c" 1
  28  0003              	MOV _builtin_holtek_delay_2,A
  28  0003              ;# 28 "C:\Users\SA\Desktop\微電腦code\VR vcom\HT66F70A.c" 1
  28  0003              	MOV A,0
  28  0003              ;# 28 "C:\Users\SA\Desktop\微電腦code\VR vcom\HT66F70A.c" 1
  28  0003              	fcall __DELAYY5 +5- (((2000-( 9 + __PBP__ * 2))%0402h)%6) 
  28  0003              	ENDIF
  28  0003              ;# 28 "C:\Users\SA\Desktop\微電腦code\VR vcom\HT66F70A.c" 1
  28  0003              	IF (2000 >= ( 040bh + __PBP__ * 2)) AND ((((2000-( 9 + __PBP__ * 2))%0402h)/4+1)<=256)
  28  0003              ;# 28 "C:\Users\SA\Desktop\微電腦code\VR vcom\HT66F70A.c" 1
  28  0003  0F01        	MOV A,(2000-( 9 + __PBP__ * 2))/0402h
  28  0004              ;# 28 "C:\Users\SA\Desktop\微電腦code\VR vcom\HT66F70A.c" 1
  28  0004  0080     E  	MOV _builtin_holtek_delay_2,A
  28  0005              ;# 28 "C:\Users\SA\Desktop\微電腦code\VR vcom\HT66F70A.c" 1
  28  0005  0FF1        	MOV A,((2000-( 9 + __PBP__ * 2))%0402h)/4+1
  28  0006              ;# 28 "C:\Users\SA\Desktop\微電腦code\VR vcom\HT66F70A.c" 1
  28  0006              	fcall __DELAYY3 +3-(((2000-( 9 + __PBP__ * 2))%0402h)%4) 
  28  000D              	ENDIF
  28  000D  1480     E  	inc rb
  28  000E  3D0A        	sz z
  28  000F  1480     E  	inc rc
  28  0010              _L6:
  28  0010  0700     E  	mov a,rb
  28  0011  0200     R  	sub a,_Delayms_2[0]
  28  0012  0700     E  	mov a,rc
  28  0013  1200     R  	sbc a,_Delayms_2[1]
  28  0014  3B0A        	snz cz
  28  0015  2800     R  	jmp _L7
  28  0016  0003        	ret
  28  0017              _Delayms endp
  28  0017              #line 28 "C:\Users\SA\Desktop\微電腦code\VR vcom\HT66F70A.c"
  28  0017              #pragma debug scope 1 1
  28  0017              ___pd equ [30]
  28  0017              public _LED
  28  0017              #pragma debug scope 4 1
  32  0017              #line 32 "C:\Users\SA\Desktop\微電腦code\VR vcom\HT66F70A.c"
  32  0000              _LED .section 'code'
  32  0000              _LED proc
  32  0000  0005[           local _LED_2 db 5 dup(?)	; 0,5
            00
            ]
  32  0000              _L16:
  39  0000              #line 39 "C:\Users\SA\Desktop\微電腦code\VR vcom\HT66F70A.c"
  39  0000  0FE8        	mov a,-24
  39  0001  0080     R  	mov _LED_Delay_2[0],a
  39  0002  0F03        	mov a,3
  39  0003  0080     R  	mov _LED_Delay_2[1],a
  39  0004              	fcall _LED_Delay
  39  000B  1F00     R  	clr _LED_2[4]
  38  000C              #line 38 "C:\Users\SA\Desktop\微電腦code\VR vcom\HT66F70A.c"
  38  000C  0F64        	mov a,100
  38  000D  0080     R  	mov _LED_2[2],a
  38  000E  1F00     R  	clr _LED_2[3]
  37  000F              #line 37 "C:\Users\SA\Desktop\微電腦code\VR vcom\HT66F70A.c"
  37  000F  1F00     R  	clr _LED_2[0]
  37  0010  1F00     R  	clr _LED_2[1]
  37  0011              _L12:
  42  0011              #line 42 "C:\Users\SA\Desktop\微電腦code\VR vcom\HT66F70A.c"
  42  0011  0F64        	mov a,100
  42  0012  0200     R  	sub a,_LED_2[0]
"File: HT66F70A.c    Assembler  Version HGASM0202      Page 7

  42  0013  0F00        	mov a,0
  42  0014  1200     R  	sbc a,_LED_2[1]
  42  0015  3C0A        	sz c
  42  0016  2800     R  	jmp _L9
  44  0017              #line 44 "C:\Users\SA\Desktop\微電腦code\VR vcom\HT66F70A.c"
  44  0017  341E        	clr [30].0
  44  0018  349E        	clr [30].1
  44  0019  351E        	clr [30].2
  44  001A  359E        	clr [30].3
  44  001B  379E        	clr [30].7
  44  001C  2800     R  	jmp _L10
  44  001D              _L9:
  48  001D              #line 48 "C:\Users\SA\Desktop\微電腦code\VR vcom\HT66F70A.c"
  48  001D  301E        	set [30].0
  48  001E  309E        	set [30].1
  48  001F  311E        	set [30].2
  48  0020  319E        	set [30].3
  48  0021  339E        	set [30].7
  49  0022              #line 49 "C:\Users\SA\Desktop\微電腦code\VR vcom\HT66F70A.c"
  49  0022  0700     R  	mov a,_LED_2[2]
  49  0023  0080     R  	mov _LED_Delay_2[0],a
  49  0024  0700     R  	mov a,_LED_2[3]
  49  0025  0080     R  	mov _LED_Delay_2[1],a
  49  0026              	fcall _LED_Delay
  50  002D              #line 50 "C:\Users\SA\Desktop\微電腦code\VR vcom\HT66F70A.c"
  50  002D  341E        	clr [30].0
  50  002E  349E        	clr [30].1
  50  002F  351E        	clr [30].2
  50  0030  359E        	clr [30].3
  50  0031  379E        	clr [30].7
  51  0032              #line 51 "C:\Users\SA\Desktop\微電腦code\VR vcom\HT66F70A.c"
  51  0032  0700     R  	mov a,_LED_2[0]
  51  0033  0080     R  	mov _LED_Delay_2[0],a
  51  0034  0700     R  	mov a,_LED_2[1]
  51  0035  0080     R  	mov _LED_Delay_2[1],a
  51  0036              	fcall _LED_Delay
  52  003D              #line 52 "C:\Users\SA\Desktop\微電腦code\VR vcom\HT66F70A.c"
  52  003D  1480     R  	inc _LED_2[0]
  52  003E  3D0A        	sz z
  52  003F  1480     R  	inc _LED_2[1]
  53  0040              #line 53 "C:\Users\SA\Desktop\微電腦code\VR vcom\HT66F70A.c"
  53  0040  0FFF        	mov a,255
  53  0041  0380     R  	addm a,_LED_2[2]
  53  0042  0FFF        	mov a,255
  53  0043  1380     R  	adcm a,_LED_2[3]
  53  0044              _L10:
  53  0044  1480     R  	inc _LED_2[4]
  40  0045              #line 40 "C:\Users\SA\Desktop\微電腦code\VR vcom\HT66F70A.c"
  40  0045  0700     R  	mov a,_LED_2[4]
  40  0046  0A78        	sub a,120
  40  0047  390A        	snz z
  40  0048  2800     R  	jmp _L12
  59  0049              #line 59 "C:\Users\SA\Desktop\微電腦code\VR vcom\HT66F70A.c"
  59  0049  0FE8        	mov a,-24
  59  004A  0080     R  	mov _LED_Delay_2[0],a
  59  004B  0F03        	mov a,3
  59  004C  0080     R  	mov _LED_Delay_2[1],a
  59  004D              	fcall _LED_Delay
  59  0054  1F00     R  	clr _LED_2[4]
  58  0055              #line 58 "C:\Users\SA\Desktop\微電腦code\VR vcom\HT66F70A.c"
"File: HT66F70A.c    Assembler  Version HGASM0202      Page 8

  58  0055  1F00     R  	clr _LED_2[2]
  58  0056  1F00     R  	clr _LED_2[3]
  57  0057              #line 57 "C:\Users\SA\Desktop\微電腦code\VR vcom\HT66F70A.c"
  57  0057  0F64        	mov a,100
  57  0058  0080     R  	mov _LED_2[0],a
  57  0059  1F00     R  	clr _LED_2[1]
  57  005A              _L17:
  62  005A              #line 62 "C:\Users\SA\Desktop\微電腦code\VR vcom\HT66F70A.c"
  62  005A  0F09        	mov a,9
  62  005B  0200     R  	sub a,_LED_2[0]
  62  005C  0F00        	mov a,0
  62  005D  1200     R  	sbc a,_LED_2[1]
  62  005E  380A        	snz c
  62  005F  2800     R  	jmp _L13
  64  0060              #line 64 "C:\Users\SA\Desktop\微電腦code\VR vcom\HT66F70A.c"
  64  0060  301E        	set [30].0
  64  0061  309E        	set [30].1
  64  0062  311E        	set [30].2
  64  0063  319E        	set [30].3
  64  0064  339E        	set [30].7
  64  0065  2800     R  	jmp _L14
  64  0066              _L13:
  68  0066              #line 68 "C:\Users\SA\Desktop\微電腦code\VR vcom\HT66F70A.c"
  68  0066  301E        	set [30].0
  68  0067  309E        	set [30].1
  68  0068  311E        	set [30].2
  68  0069  319E        	set [30].3
  68  006A  339E        	set [30].7
  69  006B              #line 69 "C:\Users\SA\Desktop\微電腦code\VR vcom\HT66F70A.c"
  69  006B  0700     R  	mov a,_LED_2[2]
  69  006C  0080     R  	mov _LED_Delay_2[0],a
  69  006D  0700     R  	mov a,_LED_2[3]
  69  006E  0080     R  	mov _LED_Delay_2[1],a
  69  006F              	fcall _LED_Delay
  70  0076              #line 70 "C:\Users\SA\Desktop\微電腦code\VR vcom\HT66F70A.c"
  70  0076  341E        	clr [30].0
  70  0077  349E        	clr [30].1
  70  0078  351E        	clr [30].2
  70  0079  359E        	clr [30].3
  70  007A  379E        	clr [30].7
  71  007B              #line 71 "C:\Users\SA\Desktop\微電腦code\VR vcom\HT66F70A.c"
  71  007B  0700     R  	mov a,_LED_2[0]
  71  007C  0080     R  	mov _LED_Delay_2[0],a
  71  007D  0700     R  	mov a,_LED_2[1]
  71  007E  0080     R  	mov _LED_Delay_2[1],a
  71  007F              	fcall _LED_Delay
  72  0086              #line 72 "C:\Users\SA\Desktop\微電腦code\VR vcom\HT66F70A.c"
  72  0086  0FFF        	mov a,255
  72  0087  0380     R  	addm a,_LED_2[0]
  72  0088  0FFF        	mov a,255
  72  0089  1380     R  	adcm a,_LED_2[1]
  73  008A              #line 73 "C:\Users\SA\Desktop\微電腦code\VR vcom\HT66F70A.c"
  73  008A  1480     R  	inc _LED_2[2]
  73  008B  3D0A        	sz z
  73  008C  1480     R  	inc _LED_2[3]
  73  008D              _L14:
  73  008D  1480     R  	inc _LED_2[4]
  60  008E              #line 60 "C:\Users\SA\Desktop\微電腦code\VR vcom\HT66F70A.c"
  60  008E  0700     R  	mov a,_LED_2[4]
  60  008F  0A78        	sub a,120
"File: HT66F70A.c    Assembler  Version HGASM0202      Page 9

  60  0090  390A        	snz z
  60  0091  2800     R  	jmp _L17
  60  0092  2800     R  	jmp _L16
  60  0093  0003        	ret
  60  0094              _LED endp
  60  0094              #line 60 "C:\Users\SA\Desktop\微電腦code\VR vcom\HT66F70A.c"
  60  0094              #pragma debug scope 1 1
  60  0094              ___pe equ [34]
  60  0094              ___intc0 equ [48]
  60  0094              public _ISR_UART
  60  0094              #pragma debug scope 5 1
  80  0094              #line 80 "C:\Users\SA\Desktop\微電腦code\VR vcom\HT66F70A.c"
  80  0094              rombank 0 @ISR_UART_code
  80  0000              @ISR_UART_code .section at 8 'code'
  80  0000  0080     E  	mov r1,a
  80  0001  070B        	mov a,bp
  80  0002  1F0B        	clr bp
  80  0003  2800     R  	jmp _ISR_UART
  80  0004              ROMBANK 0 _ISR_UART
  80  0004              #pragma debug scope 1 1
  80  0004              @dummy8 endp
  80  0004              #pragma debug scope 6 1
  80  0000              _ISR_UART .section 'code'
  80  0000              _ISR_UART proc
  80  0000  0002[       local _ISR_UART_2 db 2 dup(?)
            00
            ]
  80  0000  0080     E  	mov r2,a
  80  0001  070A        	mov a, status
  80  0002  0080     E  	mov r3,a
  80  0003  0703        	mov a,mp
  80  0004  0080     E  	mov r4,a
  80  0005  0704        	mov a,sbp
  80  0006  0080     E  	mov r5,a
  80  0007  0707        	mov a,tblp
  80  0008  0080     E  	mov r6,a
  80  0009  0709        	mov a,tbhp
  80  000A  0080     E  	mov r7,a
  80  000B              #pragma debug variable 8 6 _ISR_UART_2+0 "buff"
  82  000B              #line 82 "C:\Users\SA\Desktop\微電腦code\VR vcom\HT66F70A.c"
  82  000B              ;# 82 "C:\Users\SA\Desktop\微電腦code\VR vcom\HT66F70A.c" 1
  82  000B              	IF 20>263690
  82  000B              ;# 82 "C:\Users\SA\Desktop\微電腦code\VR vcom\HT66F70A.c" 1
  82  000B              	ERRMESSAGE 'the value 20of the argument exceeds the maxinum 263690'
  82  000B              	ENDIF
  82  000B              ;# 82 "C:\Users\SA\Desktop\微電腦code\VR vcom\HT66F70A.c" 1
  82  000B              	IF 20<0
  82  000B              ;# 82 "C:\Users\SA\Desktop\微電腦code\VR vcom\HT66F70A.c" 1
  82  000B              	ERRMESSAGE 'the value 20 of the argument exceeds the mininum 0'
  82  000B              	ENDIF
  82  000B              ;# 82 "C:\Users\SA\Desktop\微電腦code\VR vcom\HT66F70A.c" 1
  82  000B              	IF 20==0
  82  000B              ;# 82 "C:\Users\SA\Desktop\微電腦code\VR vcom\HT66F70A.c" 1
  82  000B              	JMP $
  82  000B              	ENDIF
  82  000B              ;# 82 "C:\Users\SA\Desktop\微電腦code\VR vcom\HT66F70A.c" 1
  82  000B              	IF (20>=1) AND (20<( 4 + __PBP__ * 2))
  82  000B              ;# 82 "C:\Users\SA\Desktop\微電腦code\VR vcom\HT66F70A.c" 1
  82  000B              	NOP
  82  000B              	ENDIF
"File: HT66F70A.c    Assembler  Version HGASM0202      Page 10

  82  000B              ;# 82 "C:\Users\SA\Desktop\微電腦code\VR vcom\HT66F70A.c" 1
  82  000B              	IF (20>=2) AND (20<( 4 + __PBP__ * 2))
  82  000B              ;# 82 "C:\Users\SA\Desktop\微電腦code\VR vcom\HT66F70A.c" 1
  82  000B              	NOP
  82  000B              	ENDIF
  82  000B              ;# 82 "C:\Users\SA\Desktop\微電腦code\VR vcom\HT66F70A.c" 1
  82  000B              	IF (20>=3) AND (20<( 4 + __PBP__ * 2))
  82  000B              ;# 82 "C:\Users\SA\Desktop\微電腦code\VR vcom\HT66F70A.c" 1
  82  000B              	NOP
  82  000B              	ENDIF
  82  000B              ;# 82 "C:\Users\SA\Desktop\微電腦code\VR vcom\HT66F70A.c" 1
  82  000B              	IF (20>=4) AND (20<( 4 + __PBP__ * 2)) AND ( __PBP__ > 0 )
  82  000B              ;# 82 "C:\Users\SA\Desktop\微電腦code\VR vcom\HT66F70A.c" 1
  82  000B              	NOP
  82  000B              	ENDIF
  82  000B              ;# 82 "C:\Users\SA\Desktop\微電腦code\VR vcom\HT66F70A.c" 1
  82  000B              	IF (20>=5) AND (20<( 4 + __PBP__ * 2)) AND ( __PBP__ > 0 )
  82  000B              ;# 82 "C:\Users\SA\Desktop\微電腦code\VR vcom\HT66F70A.c" 1
  82  000B              	NOP
  82  000B              	ENDIF
  82  000B              ;# 82 "C:\Users\SA\Desktop\微電腦code\VR vcom\HT66F70A.c" 1
  82  000B              	IF (20>=6) AND (20<( 4 + __PBP__ * 2))  AND ( __PBP__ > 1 )
  82  000B              ;# 82 "C:\Users\SA\Desktop\微電腦code\VR vcom\HT66F70A.c" 1
  82  000B              	NOP
  82  000B              	ENDIF
  82  000B              ;# 82 "C:\Users\SA\Desktop\微電腦code\VR vcom\HT66F70A.c" 1
  82  000B              	IF (20>=7) AND (20<( 4 + __PBP__ * 2))  AND ( __PBP__ > 1 )
  82  000B              ;# 82 "C:\Users\SA\Desktop\微電腦code\VR vcom\HT66F70A.c" 1
  82  000B              	NOP
  82  000B              	ENDIF
  82  000B              ;# 82 "C:\Users\SA\Desktop\微電腦code\VR vcom\HT66F70A.c" 1
  82  000B              	IF (20>=8) AND (20<( 4 + __PBP__ * 2))  AND ( __PBP__ > 2 )
  82  000B              ;# 82 "C:\Users\SA\Desktop\微電腦code\VR vcom\HT66F70A.c" 1
  82  000B              	NOP
  82  000B              	ENDIF
  82  000B              ;# 82 "C:\Users\SA\Desktop\微電腦code\VR vcom\HT66F70A.c" 1
  82  000B              	IF (20==9)  AND ( __PBP__ > 2 )
  82  000B              ;# 82 "C:\Users\SA\Desktop\微電腦code\VR vcom\HT66F70A.c" 1
  82  000B              	NOP
  82  000B              	ENDIF
  82  000B              ;# 82 "C:\Users\SA\Desktop\微電腦code\VR vcom\HT66F70A.c" 1
  82  000B              	IF (20< ( 8 + __PBP__ * 2)) AND (20>( 3 + __PBP__ * 2))
  82  000B              ;# 82 "C:\Users\SA\Desktop\微電腦code\VR vcom\HT66F70A.c" 1
  82  000B              	fcall __DELAY3 + ( 7 + __PBP__ * 2) -20
  82  000B              	ENDIF
  82  000B              ;# 82 "C:\Users\SA\Desktop\微電腦code\VR vcom\HT66F70A.c" 1
  82  000B              	IF (20< ( 0404h + __PBP__ * 2)) AND (20>( 7 + __PBP__ * 2))
  82  000B              ;# 82 "C:\Users\SA\Desktop\微電腦code\VR vcom\HT66F70A.c" 1
  82  000B  0F03        	MOV A,(20-( 4 + __PBP__ * 2))/4
  82  000C              ;# 82 "C:\Users\SA\Desktop\微電腦code\VR vcom\HT66F70A.c" 1
  82  000C              	fcall __DELAYX3 + 3 -((20-( 4 + __PBP__ * 2)) MOD 4) 
  82  0013              	ENDIF
  82  0013              ;# 82 "C:\Users\SA\Desktop\微電腦code\VR vcom\HT66F70A.c" 1
  82  0013              	IF (20< ( 040bh + __PBP__ * 2)) AND (20> ( 0403h + __PBP__ * 2))
  82  0013              ;# 82 "C:\Users\SA\Desktop\微電腦code\VR vcom\HT66F70A.c" 1
  82  0013              	MOV A,0 
  82  0013              ;# 82 "C:\Users\SA\Desktop\微電腦code\VR vcom\HT66F70A.c" 1
  82  0013              	fcall __DELAYX6 + ( 040ah + __PBP__ * 2) -20
  82  0013              	ENDIF
  82  0013              ;# 82 "C:\Users\SA\Desktop\微電腦code\VR vcom\HT66F70A.c" 1
"File: HT66F70A.c    Assembler  Version HGASM0202      Page 11

  82  0013              	IF (20 >= ( 040bh + __PBP__ * 2)) AND ((((20-( 9 + __PBP__ * 2))%0402h)/4+1)>256)
  82  0013              ;# 82 "C:\Users\SA\Desktop\微電腦code\VR vcom\HT66F70A.c" 1
  82  0013              	MOV A,(20-( 9 + __PBP__ * 2))/0402h
  82  0013              ;# 82 "C:\Users\SA\Desktop\微電腦code\VR vcom\HT66F70A.c" 1
  82  0013              	MOV _builtin_holtek_delay_2,A
  82  0013              ;# 82 "C:\Users\SA\Desktop\微電腦code\VR vcom\HT66F70A.c" 1
  82  0013              	MOV A,0
  82  0013              ;# 82 "C:\Users\SA\Desktop\微電腦code\VR vcom\HT66F70A.c" 1
  82  0013              	fcall __DELAYY5 +5- (((20-( 9 + __PBP__ * 2))%0402h)%6) 
  82  0013              	ENDIF
  82  0013              ;# 82 "C:\Users\SA\Desktop\微電腦code\VR vcom\HT66F70A.c" 1
  82  0013              	IF (20 >= ( 040bh + __PBP__ * 2)) AND ((((20-( 9 + __PBP__ * 2))%0402h)/4+1)<=256)
  82  0013              ;# 82 "C:\Users\SA\Desktop\微電腦code\VR vcom\HT66F70A.c" 1
  82  0013              	MOV A,(20-( 9 + __PBP__ * 2))/0402h
  82  0013              ;# 82 "C:\Users\SA\Desktop\微電腦code\VR vcom\HT66F70A.c" 1
  82  0013              	MOV _builtin_holtek_delay_2,A
  82  0013              ;# 82 "C:\Users\SA\Desktop\微電腦code\VR vcom\HT66F70A.c" 1
  82  0013              	MOV A,((20-( 9 + __PBP__ * 2))%0402h)/4+1
  82  0013              ;# 82 "C:\Users\SA\Desktop\微電腦code\VR vcom\HT66F70A.c" 1
  82  0013              	fcall __DELAYY3 +3-(((20-( 9 + __PBP__ * 2))%0402h)%4) 
  82  0013              	ENDIF
  82  0013  0F08        	mov a,8
  82  0014  0080     E  	mov ra,a
  81  0015              #line 81 "C:\Users\SA\Desktop\微電腦code\VR vcom\HT66F70A.c"
  81  0015  1F00     R  	clr _ISR_UART_2[0]
  81  0016              _L21:
  85  0016              #line 85 "C:\Users\SA\Desktop\微電腦code\VR vcom\HT66F70A.c"
  85  0016  340A        	clr c
  85  0017  1B80     R  	rrc _ISR_UART_2[0]
  86  0018              #line 86 "C:\Users\SA\Desktop\微電腦code\VR vcom\HT66F70A.c"
  86  0018  3822        	snz [34].0
  86  0019  2800     R  	jmp _L19
  86  001A  3000     R  	set _ISR_UART_2[0].7
  86  001B              _L19:
  87  001B              #line 87 "C:\Users\SA\Desktop\微電腦code\VR vcom\HT66F70A.c"
  87  001B              ;# 87 "C:\Users\SA\Desktop\微電腦code\VR vcom\HT66F70A.c" 1
  87  001B  0000        	NOP
  87  001C              ;# 87 "C:\Users\SA\Desktop\微電腦code\VR vcom\HT66F70A.c" 1
  87  001C  0000        	NOP
  87  001D              ;# 87 "C:\Users\SA\Desktop\微電腦code\VR vcom\HT66F70A.c" 1
  87  001D  0000        	NOP
  87  001E              ;# 87 "C:\Users\SA\Desktop\微電腦code\VR vcom\HT66F70A.c" 1
  87  001E  0000        	NOP
  87  001F              ;# 87 "C:\Users\SA\Desktop\微電腦code\VR vcom\HT66F70A.c" 1
  87  001F  0000        	NOP
  87  0020              ;# 87 "C:\Users\SA\Desktop\微電腦code\VR vcom\HT66F70A.c" 1
  87  0020  0000        	NOP
  87  0021  1780     E  	sdz ra
  87  0022  2800     R  	jmp _L21
  90  0023              #line 90 "C:\Users\SA\Desktop\微電腦code\VR vcom\HT66F70A.c"
  90  0023  0F64        	mov a,100
  90  0024  0080     R  	mov _Delayms_2[0],a
  90  0025  1F00     R  	clr _Delayms_2[1]
  90  0026              	fcall _Delayms
  90  002D  0F08        	mov a,8
  90  002E  0080     R  	mov _ISR_UART_2[1],a
  90  002F              _L25:
  93  002F              #line 93 "C:\Users\SA\Desktop\微電腦code\VR vcom\HT66F70A.c"
  93  002F  3800     R  	snz _ISR_UART_2[0].0
  93  0030  2800     R  	jmp _L22
"File: HT66F70A.c    Assembler  Version HGASM0202      Page 12

  94  0031              #line 94 "C:\Users\SA\Desktop\微電腦code\VR vcom\HT66F70A.c"
  94  0031  0F31        	mov a,49
  94  0032  2800     R  	jmp _L29
  94  0033              _L22:
  96  0033              #line 96 "C:\Users\SA\Desktop\微電腦code\VR vcom\HT66F70A.c"
  96  0033  0F30        	mov a,48
  96  0034              _L29:
  96  0034              	fcall _PC_TX_115200
  97  003B              #line 97 "C:\Users\SA\Desktop\微電腦code\VR vcom\HT66F70A.c"
  97  003B  340A        	clr c
  97  003C  1B80     R  	rrc _ISR_UART_2[0]
  98  003D              #line 98 "C:\Users\SA\Desktop\微電腦code\VR vcom\HT66F70A.c"
  98  003D  0F0A        	mov a,10
  98  003E  0080     R  	mov _Delayms_2[0],a
  98  003F  1F00     R  	clr _Delayms_2[1]
  98  0040              	fcall _Delayms
  98  0047  1780     R  	sdz _ISR_UART_2[1]
  98  0048  2800     R  	jmp _L25
 100  0049              #line 100 "C:\Users\SA\Desktop\微電腦code\VR vcom\HT66F70A.c"
 100  0049  0F0A        	mov a,10
 100  004A              	fcall _PC_TX_115200
 101  0051              #line 101 "C:\Users\SA\Desktop\微電腦code\VR vcom\HT66F70A.c"
 101  0051  36B0        	clr [48].5
 101  0052  0700     E  	mov a,r2
 101  0053  008B        	mov bp,a
 101  0054  0700     E  	mov a,r3
 101  0055  008A        	mov status,a
 101  0056  0700     E  	mov a,r4
 101  0057  0083        	mov mp,a
 101  0058  0700     E  	mov a,r5
 101  0059  0084        	mov sbp,a
 101  005A  0700     E  	mov a,r6
 101  005B  0087        	mov tblp,a
 101  005C  0700     E  	mov a,r7
 101  005D  0089        	mov tbhp,a
 101  005E  1D05        	tabrdc acc
 101  005F  0700     E  	mov a,r1
 101  0060  0004        	reti
 101  0061              _ISR_UART endp
 101  0061              
 101  0061              #line 101 "C:\Users\SA\Desktop\微電腦code\VR vcom\HT66F70A.c"
 101  0061              #pragma debug scope 1 1
 101  0061              ___mfi0 equ [52]
 101  0061              public _ISR_TIMER
 101  0061              #pragma debug scope 7 1
 105  0061              #line 105 "C:\Users\SA\Desktop\微電腦code\VR vcom\HT66F70A.c"
 105  0061              rombank 0 @ISR_TIMER_code
 105  0000              @ISR_TIMER_code .section at 20 'code'
 105  0000  0080     E  	mov r1,a
 105  0001  070B        	mov a,bp
 105  0002  1F0B        	clr bp
 105  0003  2800     R  	jmp _ISR_TIMER
 105  0004              ROMBANK 0 _ISR_TIMER
 105  0004              #pragma debug scope 1 1
 105  0004              @dummy20 endp
 105  0004              #pragma debug scope 8 1
 105  0000              _ISR_TIMER .section 'code'
 105  0000              _ISR_TIMER proc
 105  0000  0080     E  	mov r2,a
 105  0001  070A        	mov a, status
"File: HT66F70A.c    Assembler  Version HGASM0202      Page 13

 105  0002  0080     E  	mov r3,a
 106  0003              #line 106 "C:\Users\SA\Desktop\微電腦code\VR vcom\HT66F70A.c"
 106  0003  0F01        	mov a,1
 106  0004  0300     R  	add a,_g[0]
 106  0005  0080     E  	mov rb,a
 106  0006  0F00        	mov a,0
 106  0007  1300     R  	adc a,_g[1]
 106  0008  0080     E  	mov rc,a
 106  0009  0700     E  	mov a,rb
 106  000A  0080     R  	mov _g[0],a
 106  000B  0700     E  	mov a,rc
 106  000C  0080     R  	mov _g[1],a
 107  000D              #line 107 "C:\Users\SA\Desktop\微電腦code\VR vcom\HT66F70A.c"
 107  000D  0700     E  	mov a,rb
 107  000E  0AE8        	sub a,232
 107  000F  0700     E  	mov a,rc
 107  0010  0803        	sbc a,3
 107  0011  3B0A        	snz cz
 107  0012  2800     R  	jmp _L31
 109  0013              #line 109 "C:\Users\SA\Desktop\微電腦code\VR vcom\HT66F70A.c"
 109  0013  0700     R  	mov a,_f[0]
 109  0014  0500     R  	or a,_f[1]
 109  0015  390A        	snz z
 109  0016  2800     R  	jmp _L32
 111  0017              #line 111 "C:\Users\SA\Desktop\微電腦code\VR vcom\HT66F70A.c"
 111  0017  3522        	clr [34].2
 112  0018              #line 112 "C:\Users\SA\Desktop\微電腦code\VR vcom\HT66F70A.c"
 112  0018  341E        	clr [30].0
 113  0019              #line 113 "C:\Users\SA\Desktop\微電腦code\VR vcom\HT66F70A.c"
 113  0019  0F01        	mov a,1
 113  001A  0080     R  	mov _f[0],a
 113  001B  1F00     R  	clr _f[1]
 113  001C  2800     R  	jmp _L33
 113  001D              _L32:
 117  001D              #line 117 "C:\Users\SA\Desktop\微電腦code\VR vcom\HT66F70A.c"
 117  001D  3122        	set [34].2
 118  001E              #line 118 "C:\Users\SA\Desktop\微電腦code\VR vcom\HT66F70A.c"
 118  001E  301E        	set [30].0
 119  001F              #line 119 "C:\Users\SA\Desktop\微電腦code\VR vcom\HT66F70A.c"
 119  001F  1F00     R  	clr _f[0]
 119  0020  1F00     R  	clr _f[1]
 119  0021              _L33:
 121  0021              #line 121 "C:\Users\SA\Desktop\微電腦code\VR vcom\HT66F70A.c"
 121  0021  1F00     R  	clr _g[0]
 121  0022  1F00     R  	clr _g[1]
 121  0023              _L31:
 123  0023              #line 123 "C:\Users\SA\Desktop\微電腦code\VR vcom\HT66F70A.c"
 123  0023  3634        	clr [52].4
 123  0024  0700     E  	mov a,r2
 123  0025  008B        	mov bp,a
 123  0026  0700     E  	mov a,r3
 123  0027  008A        	mov status,a
 123  0028  0700     E  	mov a,r1
 123  0029  0004        	reti
 123  002A              _ISR_TIMER endp
 123  002A              
 123  002A              #line 123 "C:\Users\SA\Desktop\微電腦code\VR vcom\HT66F70A.c"
 123  002A              #pragma debug scope 1 1
 123  002A              ___wdtc equ [62]
 123  0000              @crom	.section 'crom'
"File: HT66F70A.c    Assembler  Version HGASM0202      Page 14

 123  0000              _LC0:
 123  0000              	db 041h,054h,02bh,043h,049h,050h,04dh,055h,058h,03dh
 123  0005              	db 031h,0dh,0ah,00h
 123  0007              @crom	.section 'crom'
 123  0007              _LC1:
 123  0007              	db 041h,054h,02bh,043h,049h,050h,053h,045h,052h,056h
 123  000C              	db 045h,052h,03dh,031h,02ch,038h,030h,038h,037h,0dh
 123  0011              	db 0ah,00h
 123  0012              @crom	.section 'crom'
 123  0012              _LC2:
 123  0012              	db 041h,054h,02bh,043h,049h,050h,053h,045h,04eh,044h
 123  0017              	db 03dh,030h,02ch,031h,0dh,0ah,00h
 123  001B              public _main
 123  001B              #pragma debug scope 9 1
 127  001B              #line 127 "C:\Users\SA\Desktop\微電腦code\VR vcom\HT66F70A.c"
 127  001B              IFDEF WITH_DEFAULT_STARTUP
 127  001B              extern _main_initial0:near
 127  001B              extern _main_startup:near
 127  001B              ENDIF
 127  001B              
 127  001B              ROMBANK 0 @start
 127  0000              @start .section com_l 'code'
 127  0000              _main_startup1:
 127  0000              @start .section com_e 'code'
 127  0000  0F00     R  	mov a,bank _main
 127  0001  008B        	mov bp,a
 127  0002  2800     R  	jmp _main
 127  0003              
 127  0000              _main .section 'code'
 127  0000              _main proc
 127  0000  00              local _main_2 db 1 dup(?)
 127  0001              #pragma debug variable 7 9 _main_2+0 "s"
 131  0001              #line 131 "C:\Users\SA\Desktop\微電腦code\VR vcom\HT66F70A.c"
 131  0000  0FAF        	mov a,175
 131  0001  00BE        	mov [62],a
 132  0002              #line 132 "C:\Users\SA\Desktop\微電腦code\VR vcom\HT66F70A.c"
 132  0002              	fcall _UART_init
 144  0009              #line 144 "C:\Users\SA\Desktop\微電腦code\VR vcom\HT66F70A.c"
 144  0009  0F88        	mov a,-120
 144  000A  0080     R  	mov _Delayms_2[0],a
 144  000B  0F13        	mov a,19
 144  000C  0080     R  	mov _Delayms_2[1],a
 144  000D              	fcall _Delayms
 145  0014              #line 145 "C:\Users\SA\Desktop\微電腦code\VR vcom\HT66F70A.c"
 145  0014  0F0D        	mov a,13
 145  0015  0080     E  	mov _tx_string_115200_2[2],a
 145  0016  1F00     E  	clr _tx_string_115200_2[3]
 145  0017  0F00     R  	mov a,low offset _LC0
 145  0018  0080     E  	mov _tx_string_115200_2[0],a
 145  0019  0F00     R  	mov a,high offset _LC0
 145  001A  0080     E  	mov _tx_string_115200_2[1],a
 145  001B              	fcall _tx_string_115200
 146  0022              #line 146 "C:\Users\SA\Desktop\微電腦code\VR vcom\HT66F70A.c"
 146  0022  0FE8        	mov a,-24
 146  0023  0080     R  	mov _Delayms_2[0],a
 146  0024  0F03        	mov a,3
 146  0025  0080     R  	mov _Delayms_2[1],a
 146  0026              	fcall _Delayms
 147  002D              #line 147 "C:\Users\SA\Desktop\微電腦code\VR vcom\HT66F70A.c"
 147  002D  0F15        	mov a,21
"File: HT66F70A.c    Assembler  Version HGASM0202      Page 15

 147  002E  0080     E  	mov _tx_string_115200_2[2],a
 147  002F  1F00     E  	clr _tx_string_115200_2[3]
 147  0030  0F00     R  	mov a,low offset _LC1
 147  0031  0080     E  	mov _tx_string_115200_2[0],a
 147  0032  0F00     R  	mov a,high offset _LC1
 147  0033  0080     E  	mov _tx_string_115200_2[1],a
 147  0034              	fcall _tx_string_115200
 148  003B              #line 148 "C:\Users\SA\Desktop\微電腦code\VR vcom\HT66F70A.c"
 148  003B  0FF4        	mov a,-12
 148  003C  0080     R  	mov _Delayms_2[0],a
 148  003D  0F01        	mov a,1
 148  003E  0080     R  	mov _Delayms_2[1],a
 148  003F              	fcall _Delayms
 148  0046              _L35:
 151  0046              #line 151 "C:\Users\SA\Desktop\微電腦code\VR vcom\HT66F70A.c"
 151  0046              	fcall _PC_RX
 151  004D  0080     R  	mov _main_2[0],a
 152  004E              #line 152 "C:\Users\SA\Desktop\微電腦code\VR vcom\HT66F70A.c"
 152  004E  0F64        	mov a,100
 152  004F  0080     R  	mov _Delayms_2[0],a
 152  0050  1F00     R  	clr _Delayms_2[1]
 152  0051              	fcall _Delayms
 153  0058              #line 153 "C:\Users\SA\Desktop\微電腦code\VR vcom\HT66F70A.c"
 153  0058  0F10        	mov a,16
 153  0059  0080     E  	mov _tx_string_115200_2[2],a
 153  005A  1F00     E  	clr _tx_string_115200_2[3]
 153  005B  0F00     R  	mov a,low offset _LC2
 153  005C  0080     E  	mov _tx_string_115200_2[0],a
 153  005D  0F00     R  	mov a,high offset _LC2
 153  005E  0080     E  	mov _tx_string_115200_2[1],a
 153  005F              	fcall _tx_string_115200
 154  0066              #line 154 "C:\Users\SA\Desktop\微電腦code\VR vcom\HT66F70A.c"
 154  0066  0F64        	mov a,100
 154  0067  0080     R  	mov _Delayms_2[0],a
 154  0068  1F00     R  	clr _Delayms_2[1]
 154  0069              	fcall _Delayms
 155  0070              #line 155 "C:\Users\SA\Desktop\微電腦code\VR vcom\HT66F70A.c"
 155  0070  0700     R  	mov a,_main_2[0]
 155  0071              	fcall _PC_TX_115200
 155  0078  2800     R  	jmp _L35
 155  0079  2800     R  	jmp $
 155  007A              _main endp
 155  007A              
 155  007A              @dummy endp
 155  007A              
 155  007A              #line 155 "C:\Users\SA\Desktop\微電腦code\VR vcom\HT66F70A.c"
 155  007A              #pragma debug scope 1 1
 155  007A              public _f
 155  0000              @HCCINIT	.section 'data'
  18  0000              #line 18 "C:\Users\SA\Desktop\微電腦code\VR vcom\HT66F70A.c"
  18  0000              @HCCINIT_f .section 'data'
  18  0000              _f label byte
  18  0000              #pragma debug variable 11 1 _f "f"
  18  0000              	db 0
  18  0000              @ROMDATA_BASE .section inpage 'code'
  18  0000              	db 0
  18  0001              @HCCINIT_f .section 'data'
  18  0001              	db 0
  18  0001              @ROMDATA_BASE .section inpage 'code'
  18  0001              	db 0
"File: HT66F70A.c    Assembler  Version HGASM0202      Page 16

  18  0002              @HCCINIT_f .section 'data'
  18  0002              public _g
  18  0002              #line 18 "C:\Users\SA\Desktop\微電腦code\VR vcom\HT66F70A.c"
  18  0000              @HCCINIT_g .section 'data'
  18  0000              _g label byte
  18  0000              #pragma debug variable 11 1 _g "g"
  18  0000              	db 0
  18  0001              @ROMDATA_BASE .section inpage 'code'
  18  0001              	db 0
  18  0001              @HCCINIT_g .section 'data'
  18  0001              	db 0
  18  0002              @ROMDATA_BASE .section inpage 'code'
  18  0002              	db 0
  18  0002              @HCCINIT_g .section 'data'
  18  0002              public _output1
  17  0002              #line 17 "C:\Users\SA\Desktop\微電腦code\VR vcom\HT66F70A.c"
  17  0000              @HCCINIT_output1 .section 'data'
  17  0000              _output1 label byte
  17  0000              #pragma debug array 42 7 4 1
  17  0000              #pragma debug array 42 7 4 1
  17  0000              #pragma debug variable 42 1 _output1 "output1"
  17  0000              	db 48
  17  0002              @ROMDATA_BASE .section inpage 'code'
  17  0002              	db 48
  17  0001              @HCCINIT_output1 .section 'data'
  17  0001              	db 49
  17  0003              @ROMDATA_BASE .section inpage 'code'
  17  0003              	db 49
  17  0002              @HCCINIT_output1 .section 'data'
  17  0002              	db 0
  17  0003              @ROMDATA_BASE .section inpage 'code'
  17  0003              	db 0
  17  0003              @HCCINIT_output1 .section 'data'
  17  0003              	db 0
  17  0004              @ROMDATA_BASE .section inpage 'code'
  17  0004              	db 0
  17  0004              @HCCINIT_output1 .section 'data'
  17  0004              #pragma debug struct_end
  17  0004              #pragma debug struct_end
  17  0004              #pragma debug union_end
  17  0004              #pragma debug union_end
  17  0004              #pragma debug variable 44 1 ___pd "__pd" 1
  17  0004              #pragma debug struct_end
  17  0004              #pragma debug struct_end
  17  0004              #pragma debug union_end
  17  0004              #pragma debug union_end
  17  0004              #pragma debug variable 46 1 ___pe "__pe" 1
  17  0004              #pragma debug struct_end
  17  0004              #pragma debug struct_end
  17  0004              #pragma debug union_end
  17  0004              #pragma debug union_end
  17  0004              #pragma debug variable 48 1 ___intc0 "__intc0" 1
  17  0004              #pragma debug struct_end
  17  0004              #pragma debug struct_end
  17  0004              #pragma debug union_end
  17  0004              #pragma debug union_end
  17  0004              #pragma debug variable 50 1 ___mfi0 "__mfi0" 1
  17  0004              #pragma debug struct_end
  17  0004              #pragma debug struct_end
  17  0004              #pragma debug union_end
"File: HT66F70A.c    Assembler  Version HGASM0202      Page 17

  17  0004              #pragma debug union_end
  17  0004              #pragma debug variable 52 1 ___wdtc "__wdtc" 1
  17  0004              extern r1:byte
  17  0004              extern r2:byte
  17  0004              extern r3:byte
  17  0004              extern r4:byte
  17  0004              extern r5:byte
  17  0004              extern r6:byte
  17  0004              extern r7:byte
 127  0004              #line 127 "C:\Users\SA\Desktop\微電腦code\VR vcom\HT66F70A.c"
 127  0000              @code .section at 0 'code'
 127  0000  1F0B        	clr bp
 127  0001  2800     R  	jmp _main_startup1
 127  0002              
 127  0002              extern _PC_TX_115200:near
 127  0002              extern _UART_init:near
 127  0002              extern _tx_string_115200_2:byte
 127  0002              extern _tx_string_115200:near
 127  0002              extern _PC_RX:near
 127  0002              
 127  0002              ; 
 127  0002              ; Generated by holtek-gcc v3.17, Thu Oct 12 12:55:51 2017
 127  0002              ; Rebuild 307
 127  0002              ; end of file


        0 Errors, 0