"File: HT66F70A.c    Assembler  Version HGASM0202      Page 1


   1  0000              ; Generated by holtek-gcc v3.17, Tue Nov 14 16:09:40 2017
   2  0000              ; 
   3  0000              ; Configuration:
   4  0000              ;       with long instruction
   5  0000              ;       Multi-ROM, Multi-RAM
   6  0000              ;       bits_per_rom_unit:16
   7  0000              ;       with mp1
   8  0000              ;       with tbhp, address(0x9)
   9  0000              ;          Use tabrd-const
  10  0000              ;       
  11  0000              ; SFR address of long-instruction arch:
  12  0000              ;    mp0 = -1,1,0
  13  0000              ;    mp1 = 4,3,2
  14  0000              ;    mp2 = 14,13,12
  15  0000              ;    tbp = 9,7,8
  16  0000              ;    acc = 5
  17  0000              ;    pcl = 6
  18  0000              ;    status = 10
  19  0000              ;    bp = 11
  20  0000              ;    intc = 48
  21  0000              ;       
  22  0000              ;       
  23  0000              ; use 'tabrdc' instead of 'tabrd'
  24  0000              ;       
  25  0000              
  26  0000              #pragma translator "holtek-gcc 4.6.4" "3.17" "build 20130711"
  27  0000              ; Rebuild 307
  28  0000              
  29  0000              ir equ [2]
  30  0000              mp equ [3]
  31  0000              sbp equ [4]
  32  0000              acc equ [5]
  33  0000              bp equ [11]
  34  0000              tblp equ [7]
  35  0000              tbhp equ [9]
  36  0000              status equ [10]
  37  0000              c equ [10].0
  38  0000              ac equ [10].1
  39  0000              z equ [10].2
  40  0000              ov equ [10].3
  41  0000              cz equ [10].6
  42  0000              sc equ [10].7
  43  0000              intc equ [48]
  44  0000              
  45  0000              extern ra:byte
  46  0000              extern rb:byte
  47  0000              extern rc:byte
  48  0000              extern rd:byte
  49  0000              extern re:byte
  50  0000              extern rf:byte
  51  0000              extern rg:byte
  52  0000              extern rh:byte
  53  0000              extern _Crom2Prom:near
  54  0000              extern _Crom2PromNext:near
  55  0000              
  56  0000              RAMBANK 0 @BITDATASEC, @BITDATASEC1
  57  0000              @HCCINIT	.section 'data'
  58  0000              @HCCINIT0	.section 'data'
  59  0000              @BITDATASEC	 .section 'data'
"File: HT66F70A.ASM  Assembler  Version HGASM0202      Page 2

  60  0000              @BITDATASEC1	 .section 'data'
  61  0000              
  62  0000              #pragma debug scope 1 1
  63  0000              	extern __DELAY3:near
  64  0000              	extern __DELAYX3:near
  65  0000              	extern __DELAYX6:near
  66  0000              	extern __DELAYY5:near
  67  0000              	extern __DELAYY3:near
  68  0000              	extern _builtin_holtek_delay_2:byte
  69  0000              public _Delayms
  70  0000              #pragma debug scope 2 1

  21  0000              #line 21 "C:\Users\SA\Desktop\robot_n\HT66F70A.c"
  21  0000              _Delayms .section 'code'
  21  0000              _Delayms proc
  21  0000              public _Delayms_2
  21  0000  0002[           local _Delayms_2 db 2 dup(?)	; 2,0
            00
            ]
  21  0002              #pragma debug variable 10 2 _Delayms_2+0 "del"
  23  0002              #line 23 "C:\Users\SA\Desktop\robot_n\HT66F70A.c"
  23  0000  1F00     E  	clr rb
  23  0001  1F00     E  	clr rc
  23  0002  2800     R  	jmp _L2
  23  0003              _L3:
  23  0003              #line 23 "C:\Users\SA\Desktop\robot_n\HT66F70A.c"
  23  0003              ;# 23 "C:\Users\SA\Desktop\robot_n\HT66F70A.c" 1
  23  0003              	IF 2000>263690
  23  0003              ;# 23 "C:\Users\SA\Desktop\robot_n\HT66F70A.c" 1
  23  0003              	ERRMESSAGE 'the value 2000of the argument exceeds the maxinum 263690'
  23  0003              	ENDIF
  23  0003              ;# 23 "C:\Users\SA\Desktop\robot_n\HT66F70A.c" 1
  23  0003              	IF 2000<0
  23  0003              ;# 23 "C:\Users\SA\Desktop\robot_n\HT66F70A.c" 1
  23  0003              	ERRMESSAGE 'the value 2000 of the argument exceeds the mininum 0'
  23  0003              	ENDIF
  23  0003              ;# 23 "C:\Users\SA\Desktop\robot_n\HT66F70A.c" 1
  23  0003              	IF 2000==0
  23  0003              ;# 23 "C:\Users\SA\Desktop\robot_n\HT66F70A.c" 1
  23  0003              	JMP $
  23  0003              	ENDIF
  23  0003              ;# 23 "C:\Users\SA\Desktop\robot_n\HT66F70A.c" 1
  23  0003              	IF (2000>=1) AND (2000<( 4 + __PBP__ * 2))
  23  0003              ;# 23 "C:\Users\SA\Desktop\robot_n\HT66F70A.c" 1
  23  0003              	NOP
  23  0003              	ENDIF
  23  0003              ;# 23 "C:\Users\SA\Desktop\robot_n\HT66F70A.c" 1
  23  0003              	IF (2000>=2) AND (2000<( 4 + __PBP__ * 2))
  23  0003              ;# 23 "C:\Users\SA\Desktop\robot_n\HT66F70A.c" 1
  23  0003              	NOP
  23  0003              	ENDIF
  23  0003              ;# 23 "C:\Users\SA\Desktop\robot_n\HT66F70A.c" 1
  23  0003              	IF (2000>=3) AND (2000<( 4 + __PBP__ * 2))
  23  0003              ;# 23 "C:\Users\SA\Desktop\robot_n\HT66F70A.c" 1
  23  0003              	NOP
  23  0003              	ENDIF
  23  0003              ;# 23 "C:\Users\SA\Desktop\robot_n\HT66F70A.c" 1
  23  0003              	IF (2000>=4) AND (2000<( 4 + __PBP__ * 2)) AND ( __PBP__ > 0 )
  23  0003              ;# 23 "C:\Users\SA\Desktop\robot_n\HT66F70A.c" 1
  23  0003              	NOP
"File: HT66F70A.c    Assembler  Version HGASM0202      Page 3

  23  0003              	ENDIF
  23  0003              ;# 23 "C:\Users\SA\Desktop\robot_n\HT66F70A.c" 1
  23  0003              	IF (2000>=5) AND (2000<( 4 + __PBP__ * 2)) AND ( __PBP__ > 0 )
  23  0003              ;# 23 "C:\Users\SA\Desktop\robot_n\HT66F70A.c" 1
  23  0003              	NOP
  23  0003              	ENDIF
  23  0003              ;# 23 "C:\Users\SA\Desktop\robot_n\HT66F70A.c" 1
  23  0003              	IF (2000>=6) AND (2000<( 4 + __PBP__ * 2))  AND ( __PBP__ > 1 )
  23  0003              ;# 23 "C:\Users\SA\Desktop\robot_n\HT66F70A.c" 1
  23  0003              	NOP
  23  0003              	ENDIF
  23  0003              ;# 23 "C:\Users\SA\Desktop\robot_n\HT66F70A.c" 1
  23  0003              	IF (2000>=7) AND (2000<( 4 + __PBP__ * 2))  AND ( __PBP__ > 1 )
  23  0003              ;# 23 "C:\Users\SA\Desktop\robot_n\HT66F70A.c" 1
  23  0003              	NOP
  23  0003              	ENDIF
  23  0003              ;# 23 "C:\Users\SA\Desktop\robot_n\HT66F70A.c" 1
  23  0003              	IF (2000>=8) AND (2000<( 4 + __PBP__ * 2))  AND ( __PBP__ > 2 )
  23  0003              ;# 23 "C:\Users\SA\Desktop\robot_n\HT66F70A.c" 1
  23  0003              	NOP
  23  0003              	ENDIF
  23  0003              ;# 23 "C:\Users\SA\Desktop\robot_n\HT66F70A.c" 1
  23  0003              	IF (2000==9)  AND ( __PBP__ > 2 )
  23  0003              ;# 23 "C:\Users\SA\Desktop\robot_n\HT66F70A.c" 1
  23  0003              	NOP
  23  0003              	ENDIF
  23  0003              ;# 23 "C:\Users\SA\Desktop\robot_n\HT66F70A.c" 1
  23  0003              	IF (2000< ( 8 + __PBP__ * 2)) AND (2000>( 3 + __PBP__ * 2))
  23  0003              ;# 23 "C:\Users\SA\Desktop\robot_n\HT66F70A.c" 1
  23  0003              	fcall __DELAY3 + ( 7 + __PBP__ * 2) -2000
  23  0003              	ENDIF
  23  0003              ;# 23 "C:\Users\SA\Desktop\robot_n\HT66F70A.c" 1
  23  0003              	IF (2000< ( 0404h + __PBP__ * 2)) AND (2000>( 7 + __PBP__ * 2))
  23  0003              ;# 23 "C:\Users\SA\Desktop\robot_n\HT66F70A.c" 1
  23  0003              	MOV A,(2000-( 4 + __PBP__ * 2))/4
  23  0003              ;# 23 "C:\Users\SA\Desktop\robot_n\HT66F70A.c" 1
  23  0003              	fcall __DELAYX3 + 3 -((2000-( 4 + __PBP__ * 2)) MOD 4) 
  23  0003              	ENDIF
  23  0003              ;# 23 "C:\Users\SA\Desktop\robot_n\HT66F70A.c" 1
  23  0003              	IF (2000< ( 040bh + __PBP__ * 2)) AND (2000> ( 0403h + __PBP__ * 2))
  23  0003              ;# 23 "C:\Users\SA\Desktop\robot_n\HT66F70A.c" 1
  23  0003              	MOV A,0 
  23  0003              ;# 23 "C:\Users\SA\Desktop\robot_n\HT66F70A.c" 1
  23  0003              	fcall __DELAYX6 + ( 040ah + __PBP__ * 2) -2000
  23  0003              	ENDIF
  23  0003              ;# 23 "C:\Users\SA\Desktop\robot_n\HT66F70A.c" 1
  23  0003              	IF (2000 >= ( 040bh + __PBP__ * 2)) AND ((((2000-( 9 + __PBP__ * 2))%0402h)/4+1)>256)
  23  0003              ;# 23 "C:\Users\SA\Desktop\robot_n\HT66F70A.c" 1
  23  0003              	MOV A,(2000-( 9 + __PBP__ * 2))/0402h
  23  0003              ;# 23 "C:\Users\SA\Desktop\robot_n\HT66F70A.c" 1
  23  0003              	MOV _builtin_holtek_delay_2,A
  23  0003              ;# 23 "C:\Users\SA\Desktop\robot_n\HT66F70A.c" 1
  23  0003              	MOV A,0
  23  0003              ;# 23 "C:\Users\SA\Desktop\robot_n\HT66F70A.c" 1
  23  0003              	fcall __DELAYY5 +5- (((2000-( 9 + __PBP__ * 2))%0402h)%6) 
  23  0003              	ENDIF
  23  0003              ;# 23 "C:\Users\SA\Desktop\robot_n\HT66F70A.c" 1
  23  0003              	IF (2000 >= ( 040bh + __PBP__ * 2)) AND ((((2000-( 9 + __PBP__ * 2))%0402h)/4+1)<=256)
  23  0003              ;# 23 "C:\Users\SA\Desktop\robot_n\HT66F70A.c" 1
  23  0003  0F01        	MOV A,(2000-( 9 + __PBP__ * 2))/0402h
"File: HT66F70A.c    Assembler  Version HGASM0202      Page 4

  23  0004              ;# 23 "C:\Users\SA\Desktop\robot_n\HT66F70A.c" 1
  23  0004  0080     E  	MOV _builtin_holtek_delay_2,A
  23  0005              ;# 23 "C:\Users\SA\Desktop\robot_n\HT66F70A.c" 1
  23  0005  0FF1        	MOV A,((2000-( 9 + __PBP__ * 2))%0402h)/4+1
  23  0006              ;# 23 "C:\Users\SA\Desktop\robot_n\HT66F70A.c" 1
  23  0006              	fcall __DELAYY3 +3-(((2000-( 9 + __PBP__ * 2))%0402h)%4) 
  23  000D              	ENDIF
  23  000D  1480     E  	inc rb
  23  000E  3D0A        	sz z
  23  000F  1480     E  	inc rc
  23  0010              _L2:
  23  0010  0700     E  	mov a,rb
  23  0011  0200     R  	sub a,_Delayms_2[0]
  23  0012  0700     E  	mov a,rc
  23  0013  1200     R  	sbc a,_Delayms_2[1]
  23  0014  3B0A        	snz cz
  23  0015  2800     R  	jmp _L3
  23  0016  0003        	ret
  23  0017              _Delayms endp
  23  0017              #line 23 "C:\Users\SA\Desktop\robot_n\HT66F70A.c"
  23  0017              #pragma debug scope 1 1
  23  0017              public _command
  23  0017              #pragma debug scope 3 1
  27  0017              #line 27 "C:\Users\SA\Desktop\robot_n\HT66F70A.c"
  27  0000              _command .section 'code'
  27  0000              _command proc
  27  0000              public _command_2
  27  0000  0003[           local _command_2 db 3 dup(?)	; 2,1
            00
            ]
  27  0000  0080     R  	mov _command_2[2],a
  27  0001              #pragma debug variable 7 3 _command_2+2 "c1"
  27  0001              #pragma debug variable 7 3 _command_2+0 "c2"
  27  0001              #pragma debug variable 7 3 _command_2+1 "c3"
  28  0001              #line 28 "C:\Users\SA\Desktop\robot_n\HT66F70A.c"
  28  0001  0FFF        	mov a,255
  28  0002              	fcall _PC_TX
  29  0009              #line 29 "C:\Users\SA\Desktop\robot_n\HT66F70A.c"
  29  0009  0FFF        	mov a,255
  29  000A              	fcall _PC_TX
  31  0011              #line 31 "C:\Users\SA\Desktop\robot_n\HT66F70A.c"
  31  0011  0F02        	mov a,2
  31  0012              	fcall _PC_TX
  32  0019              #line 32 "C:\Users\SA\Desktop\robot_n\HT66F70A.c"
  32  0019  0700     R  	mov a,_command_2[2]
  32  001A              	fcall _PC_TX
  33  0021              #line 33 "C:\Users\SA\Desktop\robot_n\HT66F70A.c"
  33  0021  0700     R  	mov a,_command_2[0]
  33  0022              	fcall _PC_TX
  35  0029              #line 35 "C:\Users\SA\Desktop\robot_n\HT66F70A.c"
  35  0029  0F05        	mov a,5
  35  002A              	fcall _PC_TX
  36  0031              #line 36 "C:\Users\SA\Desktop\robot_n\HT66F70A.c"
  36  0031  0700     R  	mov a,_command_2[1]
  36  0032  0080     E  	mov ra,a
  36  0033  0700     E  	mov a,ra
  36  0034              	fcall _PC_TX
  38  003B              #line 38 "C:\Users\SA\Desktop\robot_n\HT66F70A.c"
  38  003B  0FFF        	mov a,255
  38  003C              	fcall _PC_TX
"File: HT66F70A.c    Assembler  Version HGASM0202      Page 5

  39  0043              #line 39 "C:\Users\SA\Desktop\robot_n\HT66F70A.c"
  39  0043  0FFF        	mov a,255
  39  0044              	fcall _PC_TX
  40  004B              #line 40 "C:\Users\SA\Desktop\robot_n\HT66F70A.c"
  40  004B  0F00        	mov a,0
  40  004C              	fcall _PC_TX
  40  0053  0003        	ret
  40  0054              _command endp
  40  0054              #line 40 "C:\Users\SA\Desktop\robot_n\HT66F70A.c"
  40  0054              #pragma debug scope 1 1
  40  0054              public _command_29
  40  0054              #pragma debug scope 4 1
  44  0054              #line 44 "C:\Users\SA\Desktop\robot_n\HT66F70A.c"
  44  0000              _command_29 .section 'code'
  44  0000              _command_29 proc
  44  0000  0002[           local _command_29_2 db 2 dup(?)	; 0,2
            00
            ]
  44  0002              #pragma debug variable 11 4 _command_29_2+0 "i"
  48  0002              #line 48 "C:\Users\SA\Desktop\robot_n\HT66F70A.c"
  48  0000  0FFF        	mov a,255
  48  0001              	fcall _PC_TX
  49  0008              #line 49 "C:\Users\SA\Desktop\robot_n\HT66F70A.c"
  49  0008  0FFE        	mov a,254
  49  0009              	fcall _PC_TX
  50  0010              #line 50 "C:\Users\SA\Desktop\robot_n\HT66F70A.c"
  50  0010  0F29        	mov a,41
  50  0011              	fcall _PC_TX
  51  0018              #line 51 "C:\Users\SA\Desktop\robot_n\HT66F70A.c"
  51  0018  0F2A        	mov a,42
  51  0019              	fcall _PC_TX
  52  0020              #line 52 "C:\Users\SA\Desktop\robot_n\HT66F70A.c"
  52  0020  0F24        	mov a,36
  52  0021              	fcall _PC_TX
  53  0028              #line 53 "C:\Users\SA\Desktop\robot_n\HT66F70A.c"
  53  0028  0FFF        	mov a,255
  53  0029              	fcall _PC_TX
  54  0030              #line 54 "C:\Users\SA\Desktop\robot_n\HT66F70A.c"
  54  0030  0FFE        	mov a,254
  54  0031              	fcall _PC_TX
  55  0038              #line 55 "C:\Users\SA\Desktop\robot_n\HT66F70A.c"
  55  0038  0F00        	mov a,0
  55  0039              	fcall _PC_TX
  62  0040              #line 62 "C:\Users\SA\Desktop\robot_n\HT66F70A.c"
  62  0040              	fcall _PC_RX
  63  0047              #line 63 "C:\Users\SA\Desktop\robot_n\HT66F70A.c"
  63  0047              	fcall _PC_RX
  64  004E              #line 64 "C:\Users\SA\Desktop\robot_n\HT66F70A.c"
  64  004E  0F01        	mov a,1
  64  004F  0080     R  	mov _command_29_2[0],a
  64  0050  1F00     R  	clr _command_29_2[1]
  64  0051              _L8:
  66  0051              #line 66 "C:\Users\SA\Desktop\robot_n\HT66F70A.c"
  66  0051              	fcall _PC_RX
  66  0058  0080     E  	mov ra,a
  66  0059  0F00     R  	mov a,low offset _string
  66  005A  0300     R  	add a,_command_29_2[0]
  66  005B  0083        	mov mp,a
  66  005C  0F00     R  	mov a,high offset _string
  66  005D  1300     R  	adc a,_command_29_2[1]
"File: HT66F70A.c    Assembler  Version HGASM0202      Page 6

  66  005E  0084        	mov sbp,a
  66  005F  0700     E  	mov a,ra
  66  0060  0082        	mov ir,a
  64  0061              #line 64 "C:\Users\SA\Desktop\robot_n\HT66F70A.c"
  64  0061  1480     R  	inc _command_29_2[0]
  64  0062  3D0A        	sz z
  64  0063  1480     R  	inc _command_29_2[1]
  64  0064  0700     R  	mov a,_command_29_2[0]
  64  0065  0C05        	xor a,5
  64  0066  0500     R  	or a,_command_29_2[1]
  64  0067  390A        	snz z
  64  0068  2800     R  	jmp _L8
  64  0069  0003        	ret
  64  006A              _command_29 endp
  64  006A              #line 64 "C:\Users\SA\Desktop\robot_n\HT66F70A.c"
  64  006A              #pragma debug scope 1 1
  64  006A              public _command_2A
  64  006A              #pragma debug scope 5 1
  71  006A              #line 71 "C:\Users\SA\Desktop\robot_n\HT66F70A.c"
  71  0000              _command_2A .section 'code'
  71  0000              _command_2A proc
  71  0000  00              local _command_2A_2 db 1 dup(?)	; 0,1
  71  0001              #pragma debug variable 7 5 _command_2A_2+0 "c"
  74  0001              #line 74 "C:\Users\SA\Desktop\robot_n\HT66F70A.c"
  74  0000              	fcall _PC_RX
  74  0007  0080     R  	mov _command_2A_2[0],a
  75  0008              #line 75 "C:\Users\SA\Desktop\robot_n\HT66F70A.c"
  75  0008  0700     R  	mov a,_command_2A_2[0]
  75  0009  0A01        	sub a,1
  75  000A  3D0A        	sz z
  75  000B  2800     R  	jmp _L20
  75  000C  0A01        	sub a,(2)-(1)
  75  000D  3D0A        	sz z
  75  000E  2800     R  	jmp _L21
  75  000F              #line 75 "C:\Users\SA\Desktop\robot_n\HT66F70A.c"
  75  000F  0700     R  	mov a,_command_2A_2[0]
  75  0010  0A03        	sub a,3
  75  0011  3D0A        	sz z
  75  0012  2800     R  	jmp _L22
  75  0013  0A01        	sub a,(4)-(3)
  75  0014  3D0A        	sz z
  75  0015  2800     R  	jmp _L23
  75  0016  0700     R  	mov a,_command_2A_2[0]
  75  0017  0A05        	sub a,5
  75  0018  3D0A        	sz z
  75  0019  2800     R  	jmp _L24
  75  001A  0A01        	sub a,(6)-(5)
  75  001B  3D0A        	sz z
  75  001C  2800     R  	jmp _L25
  75  001D  0700     R  	mov a,_command_2A_2[0]
  75  001E  0A07        	sub a,7
  75  001F  3D0A        	sz z
  75  0020  2800     R  	jmp _L26
  75  0021  0A01        	sub a,(8)-(7)
  75  0022  3D0A        	sz z
  75  0023  2800     R  	jmp _L27
  75  0024  0700     R  	mov a,_command_2A_2[0]
  75  0025  0A09        	sub a,9
  75  0026  3D0A        	sz z
  75  0027  2800     R  	jmp _L28
"File: HT66F70A.c    Assembler  Version HGASM0202      Page 7

  75  0028  0A08        	sub a,(17)-(9)
  75  0029  3D0A        	sz z
  75  002A  2800     R  	jmp _L20
  75  002B  0700     R  	mov a,_command_2A_2[0]
  75  002C  0A12        	sub a,18
  75  002D  3D0A        	sz z
  75  002E  2800     R  	jmp _L21
  75  002F  0A01        	sub a,(19)-(18)
  75  0030  3D0A        	sz z
  75  0031  2800     R  	jmp _L22
  75  0032  0700     R  	mov a,_command_2A_2[0]
  75  0033  0A14        	sub a,20
  75  0034  3D0A        	sz z
  75  0035  2800     R  	jmp _L23
  75  0036  0A01        	sub a,(21)-(20)
  75  0037  3D0A        	sz z
  75  0038  2800     R  	jmp _L24
  75  0039  0700     R  	mov a,_command_2A_2[0]
  75  003A  0A16        	sub a,22
  75  003B  3D0A        	sz z
  75  003C  2800     R  	jmp _L25
  75  003D  0A01        	sub a,(23)-(22)
  75  003E  3D0A        	sz z
  75  003F  2800     R  	jmp _L26
  75  0040  0700     R  	mov a,_command_2A_2[0]
  75  0041  0A18        	sub a,24
  75  0042  3D0A        	sz z
  75  0043  2800     R  	jmp _L27
  75  0044  0700     R  	mov a,_command_2A_2[0]
  75  0045  0A19        	sub a,25
  75  0046  390A        	snz z
  75  0047  2800     R  	jmp _L30
  75  0048  2800     R  	jmp _L28
  75  0049              _L20:
 105  0049              #line 105 "C:\Users\SA\Desktop\robot_n\HT66F70A.c"
 105  0049  0F31        	mov a,49
 105  004A  0080     R  	mov _string[5],a
 106  004B              #line 106 "C:\Users\SA\Desktop\robot_n\HT66F70A.c"
 106  004B  2800     R  	jmp _L29
 106  004C              _L21:
 108  004C              #line 108 "C:\Users\SA\Desktop\robot_n\HT66F70A.c"
 108  004C  0F32        	mov a,50
 108  004D  0080     R  	mov _string[5],a
 109  004E              #line 109 "C:\Users\SA\Desktop\robot_n\HT66F70A.c"
 109  004E  2800     R  	jmp _L29
 109  004F              _L22:
 111  004F              #line 111 "C:\Users\SA\Desktop\robot_n\HT66F70A.c"
 111  004F  0F33        	mov a,51
 111  0050  0080     R  	mov _string[5],a
 112  0051              #line 112 "C:\Users\SA\Desktop\robot_n\HT66F70A.c"
 112  0051  2800     R  	jmp _L29
 112  0052              _L23:
 114  0052              #line 114 "C:\Users\SA\Desktop\robot_n\HT66F70A.c"
 114  0052  0F34        	mov a,52
 114  0053  0080     R  	mov _string[5],a
 115  0054              #line 115 "C:\Users\SA\Desktop\robot_n\HT66F70A.c"
 115  0054  2800     R  	jmp _L29
 115  0055              _L24:
 117  0055              #line 117 "C:\Users\SA\Desktop\robot_n\HT66F70A.c"
 117  0055  0F35        	mov a,53
"File: HT66F70A.c    Assembler  Version HGASM0202      Page 8

 117  0056  0080     R  	mov _string[5],a
 118  0057              #line 118 "C:\Users\SA\Desktop\robot_n\HT66F70A.c"
 118  0057  2800     R  	jmp _L29
 118  0058              _L25:
 120  0058              #line 120 "C:\Users\SA\Desktop\robot_n\HT66F70A.c"
 120  0058  0F36        	mov a,54
 120  0059  0080     R  	mov _string[5],a
 121  005A              #line 121 "C:\Users\SA\Desktop\robot_n\HT66F70A.c"
 121  005A  2800     R  	jmp _L29
 121  005B              _L26:
 123  005B              #line 123 "C:\Users\SA\Desktop\robot_n\HT66F70A.c"
 123  005B  0F37        	mov a,55
 123  005C  0080     R  	mov _string[5],a
 124  005D              #line 124 "C:\Users\SA\Desktop\robot_n\HT66F70A.c"
 124  005D  2800     R  	jmp _L29
 124  005E              _L27:
 126  005E              #line 126 "C:\Users\SA\Desktop\robot_n\HT66F70A.c"
 126  005E  0F38        	mov a,56
 126  005F  0080     R  	mov _string[5],a
 127  0060              #line 127 "C:\Users\SA\Desktop\robot_n\HT66F70A.c"
 127  0060  2800     R  	jmp _L29
 127  0061              _L28:
 129  0061              #line 129 "C:\Users\SA\Desktop\robot_n\HT66F70A.c"
 129  0061  0F39        	mov a,57
 129  0062  0080     R  	mov _string[5],a
 130  0063              #line 130 "C:\Users\SA\Desktop\robot_n\HT66F70A.c"
 130  0063  2800     R  	jmp _L29
 130  0064              _L30:
 132  0064              #line 132 "C:\Users\SA\Desktop\robot_n\HT66F70A.c"
 132  0064  0F30        	mov a,48
 132  0065  0080     R  	mov _string[5],a
 132  0066              _L29:
 135  0066              #line 135 "C:\Users\SA\Desktop\robot_n\HT66F70A.c"
 135  0066              	fcall _PC_RX
 135  006D  0003        	ret
 135  006E              _command_2A endp
 135  006E              #line 135 "C:\Users\SA\Desktop\robot_n\HT66F70A.c"
 135  006E              #pragma debug scope 1 1
 135  006E              public _command_24
 135  006E              #pragma debug scope 6 1
 139  006E              #line 139 "C:\Users\SA\Desktop\robot_n\HT66F70A.c"
 139  0000              _command_24 .section 'code'
 139  0000              _command_24 proc
 139  0000  00              local _command_24_2 db 1 dup(?)	; 0,1
 139  0001              #pragma debug variable 7 6 _command_24_2+0 "c"
 142  0001              #line 142 "C:\Users\SA\Desktop\robot_n\HT66F70A.c"
 142  0000              	fcall _PC_RX
 142  0007  0080     R  	mov _command_24_2[0],a
 143  0008              #line 143 "C:\Users\SA\Desktop\robot_n\HT66F70A.c"
 143  0008  1700     R  	sdza _command_24_2[0]
 143  0009  2800     R  	jmp _L32
 144  000A              #line 144 "C:\Users\SA\Desktop\robot_n\HT66F70A.c"
 144  000A  0F31        	mov a,49
 144  000B  0080     R  	mov _string[6],a
 144  000C  2800     R  	jmp _L31
 144  000D              _L32:
 145  000D              #line 145 "C:\Users\SA\Desktop\robot_n\HT66F70A.c"
 145  000D  0700     R  	mov a,_command_24_2[0]
 145  000E  0A10        	sub a,16
 145  000F  390A        	snz z
"File: HT66F70A.c    Assembler  Version HGASM0202      Page 9

 145  0010  2800     R  	jmp _L34
 146  0011              #line 146 "C:\Users\SA\Desktop\robot_n\HT66F70A.c"
 146  0011  0F32        	mov a,50
 146  0012  0080     R  	mov _string[6],a
 146  0013  2800     R  	jmp _L31
 146  0014              _L34:
 147  0014              #line 147 "C:\Users\SA\Desktop\robot_n\HT66F70A.c"
 147  0014  0700     R  	mov a,_command_24_2[0]
 147  0015  0A11        	sub a,17
 147  0016  390A        	snz z
 147  0017  2800     R  	jmp _L35
 148  0018              #line 148 "C:\Users\SA\Desktop\robot_n\HT66F70A.c"
 148  0018  0F33        	mov a,51
 148  0019  0080     R  	mov _string[6],a
 148  001A  2800     R  	jmp _L31
 148  001B              _L35:
 150  001B              #line 150 "C:\Users\SA\Desktop\robot_n\HT66F70A.c"
 150  001B  0F30        	mov a,48
 150  001C  0080     R  	mov _string[6],a
 150  001D              _L31:
 150  001D  0003        	ret
 150  001E              _command_24 endp
 150  001E              #line 150 "C:\Users\SA\Desktop\robot_n\HT66F70A.c"
 150  001E              #pragma debug scope 1 1
 150  001E              ___wdtc equ [62]
 150  0000              @crom	.section 'crom'
 150  0000              _LC0:
 150  0000              	db 041h,054h,02bh,043h,049h,050h,04dh,055h,058h,03dh
 150  0005              	db 031h,0dh,0ah,00h
 150  0007              @crom	.section 'crom'
 150  0007              _LC1:
 150  0007              	db 041h,054h,02bh,043h,049h,050h,053h,045h,052h,056h
 150  000C              	db 045h,052h,03dh,031h,02ch,038h,030h,038h,037h,0dh
 150  0011              	db 0ah,00h
 150  0012              @crom	.section 'crom'
 150  0012              _LC2:
 150  0012              	db 041h,054h,02bh,043h,049h,050h,053h,045h,04eh,044h
 150  0017              	db 03dh,030h,02ch,037h,0dh,0ah,00h
 150  001B              @crom	.section 'crom'
 150  001B              _LC3:
 150  001B              	db 041h,054h,02bh,043h,049h,050h,053h,045h,04eh,044h
 150  0020              	db 03dh,031h,02ch,037h,0dh,0ah,00h
 150  0023              public _main
 150  0023              #pragma debug scope 7 1
 155  0023              #line 155 "C:\Users\SA\Desktop\robot_n\HT66F70A.c"
 155  0023              IFDEF WITH_DEFAULT_STARTUP
 155  0023              extern _main_initial0:near
 155  0023              extern _main_startup:near
 155  0023              ENDIF
 155  0023              
 155  0023              ROMBANK 0 @start
 155  0000              @start .section com_l 'code'
 155  0000              _main_startup1:
 155  0000              @start .section com_e 'code'
 155  0000  0F00     R  	mov a,bank _main
 155  0001  008B        	mov bp,a
 155  0002  2800     R  	jmp _main
 155  0003              
 155  0000              _main .section 'code'
 155  0000              _main proc
"File: HT66F70A.c    Assembler  Version HGASM0202      Page 10

 155  0000  0002[           local _main_2 db 2 dup(?)
            00
            ]
 155  0002              #pragma debug variable 7 7 _main_2+0 "s1"
 155  0002              #pragma debug variable 7 7 _main_2+1 "s2"
 158  0002              #line 158 "C:\Users\SA\Desktop\robot_n\HT66F70A.c"
 158  0000  0FAF        	mov a,175
 158  0001  00BE        	mov [62],a
 159  0002              #line 159 "C:\Users\SA\Desktop\robot_n\HT66F70A.c"
 159  0002              	fcall _UART_init
 160  0009              #line 160 "C:\Users\SA\Desktop\robot_n\HT66F70A.c"
 160  0009  0F41        	mov a,65
 160  000A  0080     R  	mov _string[0],a
 162  000B              #line 162 "C:\Users\SA\Desktop\robot_n\HT66F70A.c"
 162  000B  0F88        	mov a,-120
 162  000C  0080     R  	mov _Delayms_2[0],a
 162  000D  0F13        	mov a,19
 162  000E  0080     R  	mov _Delayms_2[1],a
 162  000F              	fcall _Delayms
 163  0016              #line 163 "C:\Users\SA\Desktop\robot_n\HT66F70A.c"
 163  0016  0F0D        	mov a,13
 163  0017  0080     E  	mov _tx_string_115200_2[2],a
 163  0018  1F00     E  	clr _tx_string_115200_2[3]
 163  0019  0F00     R  	mov a,low offset _LC0
 163  001A  0080     E  	mov _tx_string_115200_2[0],a
 163  001B  0F00     R  	mov a,high offset _LC0
 163  001C  0080     E  	mov _tx_string_115200_2[1],a
 163  001D              	fcall _tx_string_115200
 164  0024              #line 164 "C:\Users\SA\Desktop\robot_n\HT66F70A.c"
 164  0024  0FE8        	mov a,-24
 164  0025  0080     R  	mov _Delayms_2[0],a
 164  0026  0F03        	mov a,3
 164  0027  0080     R  	mov _Delayms_2[1],a
 164  0028              	fcall _Delayms
 165  002F              #line 165 "C:\Users\SA\Desktop\robot_n\HT66F70A.c"
 165  002F  0F15        	mov a,21
 165  0030  0080     E  	mov _tx_string_115200_2[2],a
 165  0031  1F00     E  	clr _tx_string_115200_2[3]
 165  0032  0F00     R  	mov a,low offset _LC1
 165  0033  0080     E  	mov _tx_string_115200_2[0],a
 165  0034  0F00     R  	mov a,high offset _LC1
 165  0035  0080     E  	mov _tx_string_115200_2[1],a
 165  0036              	fcall _tx_string_115200
 165  003D              _L38:
 169  003D              #line 169 "C:\Users\SA\Desktop\robot_n\HT66F70A.c"
 169  003D              	fcall _PC_RX_115200
 169  0044  0080     E  	mov ra,a
 170  0045              #line 170 "C:\Users\SA\Desktop\robot_n\HT66F70A.c"
 170  0045  0700     E  	mov a,ra
 170  0046  0A3A        	sub a,58
 170  0047  390A        	snz z
 170  0048  2800     R  	jmp _L38
 172  0049              #line 172 "C:\Users\SA\Desktop\robot_n\HT66F70A.c"
 172  0049              	fcall _PC_RX_115200
 172  0050  0080     R  	mov _main_2[0],a
 173  0051              #line 173 "C:\Users\SA\Desktop\robot_n\HT66F70A.c"
 173  0051              	fcall _PC_RX_115200
 173  0058  0080     R  	mov _main_2[1],a
 174  0059              #line 174 "C:\Users\SA\Desktop\robot_n\HT66F70A.c"
 174  0059              	fcall _PC_RX_115200
"File: HT66F70A.c    Assembler  Version HGASM0202      Page 11

 174  0060  0080     E  	mov ra,a
 175  0061              #line 175 "C:\Users\SA\Desktop\robot_n\HT66F70A.c"
 175  0061  0700     E  	mov a,ra
 175  0062  0080     R  	mov _command_2[1],a
 175  0063  0700     R  	mov a,_main_2[1]
 175  0064  0080     R  	mov _command_2[0],a
 175  0065  0700     R  	mov a,_main_2[0]
 175  0066              	fcall _command
 176  006D              #line 176 "C:\Users\SA\Desktop\robot_n\HT66F70A.c"
 176  006D              	fcall _command_29
 177  0074              #line 177 "C:\Users\SA\Desktop\robot_n\HT66F70A.c"
 177  0074              	fcall _command_2A
 178  007B              #line 178 "C:\Users\SA\Desktop\robot_n\HT66F70A.c"
 178  007B              	fcall _command_24
 180  0082              #line 180 "C:\Users\SA\Desktop\robot_n\HT66F70A.c"
 180  0082  0F10        	mov a,16
 180  0083  0080     E  	mov _tx_string_115200_2[2],a
 180  0084  1F00     E  	clr _tx_string_115200_2[3]
 180  0085  0F00     R  	mov a,low offset _LC2
 180  0086  0080     E  	mov _tx_string_115200_2[0],a
 180  0087  0F00     R  	mov a,high offset _LC2
 180  0088  0080     E  	mov _tx_string_115200_2[1],a
 180  0089              	fcall _tx_string_115200
 181  0090              #line 181 "C:\Users\SA\Desktop\robot_n\HT66F70A.c"
 181  0090  0F64        	mov a,100
 181  0091  0080     R  	mov _Delayms_2[0],a
 181  0092  1F00     R  	clr _Delayms_2[1]
 181  0093              	fcall _Delayms
 182  009A              #line 182 "C:\Users\SA\Desktop\robot_n\HT66F70A.c"
 182  009A  0F07        	mov a,7
 182  009B  0080     E  	mov _tx_string_115200_2[2],a
 182  009C  1F00     E  	clr _tx_string_115200_2[3]
 182  009D  0F00     R  	mov a,low offset _string
 182  009E  0080     E  	mov _tx_string_115200_2[0],a
 182  009F  0F00     R  	mov a,high offset _string
 182  00A0  0080     E  	mov _tx_string_115200_2[1],a
 182  00A1              	fcall _tx_string_115200
 183  00A8              #line 183 "C:\Users\SA\Desktop\robot_n\HT66F70A.c"
 183  00A8  0F64        	mov a,100
 183  00A9  0080     R  	mov _Delayms_2[0],a
 183  00AA  1F00     R  	clr _Delayms_2[1]
 183  00AB              	fcall _Delayms
 184  00B2              #line 184 "C:\Users\SA\Desktop\robot_n\HT66F70A.c"
 184  00B2  0F10        	mov a,16
 184  00B3  0080     E  	mov _tx_string_115200_2[2],a
 184  00B4  1F00     E  	clr _tx_string_115200_2[3]
 184  00B5  0F00     R  	mov a,low offset _LC3
 184  00B6  0080     E  	mov _tx_string_115200_2[0],a
 184  00B7  0F00     R  	mov a,high offset _LC3
 184  00B8  0080     E  	mov _tx_string_115200_2[1],a
 184  00B9              	fcall _tx_string_115200
 185  00C0              #line 185 "C:\Users\SA\Desktop\robot_n\HT66F70A.c"
 185  00C0  0F64        	mov a,100
 185  00C1  0080     R  	mov _Delayms_2[0],a
 185  00C2  1F00     R  	clr _Delayms_2[1]
 185  00C3              	fcall _Delayms
 186  00CA              #line 186 "C:\Users\SA\Desktop\robot_n\HT66F70A.c"
 186  00CA  0F07        	mov a,7
 186  00CB  0080     E  	mov _tx_string_115200_2[2],a
 186  00CC  1F00     E  	clr _tx_string_115200_2[3]
"File: HT66F70A.c    Assembler  Version HGASM0202      Page 12

 186  00CD  0F00     R  	mov a,low offset _string
 186  00CE  0080     E  	mov _tx_string_115200_2[0],a
 186  00CF  0F00     R  	mov a,high offset _string
 186  00D0  0080     E  	mov _tx_string_115200_2[1],a
 186  00D1              	fcall _tx_string_115200
 187  00D8              #line 187 "C:\Users\SA\Desktop\robot_n\HT66F70A.c"
 187  00D8  0F64        	mov a,100
 187  00D9  0080     R  	mov _Delayms_2[0],a
 187  00DA  1F00     R  	clr _Delayms_2[1]
 187  00DB              	fcall _Delayms
 187  00E2  2800     R  	jmp _L38
 187  00E3  2800     R  	jmp $
 187  00E4              _main endp
 187  00E4              
 187  00E4              @dummy endp
 187  00E4              
 187  00E4              #line 187 "C:\Users\SA\Desktop\robot_n\HT66F70A.c"
 187  00E4              #pragma debug scope 1 1
  18  00E4              #line 18 "C:\Users\SA\Desktop\robot_n\HT66F70A.c"
  18  00E4              public _string
  18  0000              @HCCINIT0_string .section 'data'
  18  0000  0007[       _string	db 7 dup(0)
            00
            ]
  18  0007              #pragma debug array 42 7 7 1
  18  0007              #pragma debug array 42 7 7 1
  18  0007              #pragma debug variable 42 1 _string "string"
  18  0007              
  18  0000              @HCCINIT .section 'data'
  18  0000              public _output1
  18  0000              @HCCINIT	.section 'data'
  17  0000              #line 17 "C:\Users\SA\Desktop\robot_n\HT66F70A.c"
  17  0000              @HCCINIT_output1 .section 'data'
  17  0000              _output1 label byte
  17  0000              #pragma debug array 43 7 4 1
  17  0000              #pragma debug array 43 7 4 1
  17  0000              #pragma debug variable 43 1 _output1 "output1"
  17  0000              	db 48
  17  0000              @ROMDATA_BASE .section inpage 'code'
  17  0000              	db 48
  17  0001              @HCCINIT_output1 .section 'data'
  17  0001              	db 49
  17  0001              @ROMDATA_BASE .section inpage 'code'
  17  0001              	db 49
  17  0002              @HCCINIT_output1 .section 'data'
  17  0002              	db 0
  17  0001              @ROMDATA_BASE .section inpage 'code'
  17  0001              	db 0
  17  0003              @HCCINIT_output1 .section 'data'
  17  0003              	db 0
  17  0002              @ROMDATA_BASE .section inpage 'code'
  17  0002              	db 0
  17  0004              @HCCINIT_output1 .section 'data'
  17  0004              #pragma debug struct_end
  17  0004              #pragma debug struct_end
  17  0004              #pragma debug union_end
  17  0004              #pragma debug union_end
  17  0004              #pragma debug variable 45 1 ___wdtc "__wdtc" 1
 155  0004              #line 155 "C:\Users\SA\Desktop\robot_n\HT66F70A.c"
 155  0000              @code .section at 0 'code'
"File: HT66F70A.c    Assembler  Version HGASM0202      Page 13

 155  0000  1F0B        	clr bp
 155  0001  2800     R  	jmp _main_startup1
 155  0002              
 155  0002              extern _PC_TX:near
 155  0002              extern _PC_RX:near
 155  0002              extern _UART_init:near
 155  0002              extern _tx_string_115200_2:byte
 155  0002              extern _tx_string_115200:near
 155  0002              extern _PC_RX_115200:near
 155  0002              
 155  0002              ; 
 155  0002              ; Generated by holtek-gcc v3.17, Tue Nov 14 16:09:40 2017
 155  0002              ; Rebuild 307
 155  0002              ; end of file


        0 Errors, 0