"File: UART.c        Assembler  Version HGASM0202      Page 1


   1  0000              ; Generated by holtek-gcc v3.17, Tue Nov 14 16:09:41 2017
   2  0000              ; 
   3  0000              ; Configuration:
   4  0000              ;       with long instruction
   5  0000              ;       Multi-ROM, Multi-RAM
   6  0000              ;       bits_per_rom_unit:16
   7  0000              ;       with mp1
   8  0000              ;       with tbhp, address(0x9)
   9  0000              ;          Use tabrd-const
  10  0000              ;       
  11  0000              ; SFR address of long-instruction arch:
  12  0000              ;    mp0 = -1,1,0
  13  0000              ;    mp1 = 4,3,2
  14  0000              ;    mp2 = 14,13,12
  15  0000              ;    tbp = 9,7,8
  16  0000              ;    acc = 5
  17  0000              ;    pcl = 6
  18  0000              ;    status = 10
  19  0000              ;    bp = 11
  20  0000              ;    intc = 48
  21  0000              ;       
  22  0000              ;       
  23  0000              ; use 'tabrdc' instead of 'tabrd'
  24  0000              ;       
  25  0000              
  26  0000              #pragma translator "holtek-gcc 4.6.4" "3.17" "build 20130711"
  27  0000              ; Rebuild 307
  28  0000              
  29  0000              ir equ [2]
  30  0000              mp equ [3]
  31  0000              sbp equ [4]
  32  0000              acc equ [5]
  33  0000              bp equ [11]
  34  0000              tblp equ [7]
  35  0000              tbhp equ [9]
  36  0000              status equ [10]
  37  0000              c equ [10].0
  38  0000              ac equ [10].1
  39  0000              z equ [10].2
  40  0000              ov equ [10].3
  41  0000              cz equ [10].6
  42  0000              sc equ [10].7
  43  0000              intc equ [48]
  44  0000              
  45  0000              extern ra:byte
  46  0000              extern rb:byte
  47  0000              extern rc:byte
  48  0000              extern rd:byte
  49  0000              extern re:byte
  50  0000              extern rf:byte
  51  0000              extern rg:byte
  52  0000              extern rh:byte
  53  0000              extern _Crom2Prom:near
  54  0000              extern _Crom2PromNext:near
  55  0000              
  56  0000              RAMBANK 0 @BITDATASEC, @BITDATASEC1
  57  0000              @HCCINIT	.section 'data'
  58  0000              @HCCINIT0	.section 'data'
  59  0000              @BITDATASEC	 .section 'data'
"File: UART.ASM      Assembler  Version HGASM0202      Page 2

  60  0000              @BITDATASEC1	 .section 'data'
  61  0000              
  62  0000              #pragma debug scope 1 1
  63  0000              	extern __DELAY3:near
  64  0000              	extern __DELAYX3:near
  65  0000              	extern __DELAYX6:near
  66  0000              	extern __DELAYY5:near
  67  0000              	extern __DELAYY3:near
  68  0000              	extern _builtin_holtek_delay_2:byte
  69  0000              ___pec equ [35]
  70  0000              ___pe equ [34]
  71  0000              public _UART_init
  72  0000              #pragma debug scope 2 1

  23  0000              #line 23 "C:\Users\SA\Desktop\robot_n\UART.c"
  23  0000              _UART_init .section 'code'
  23  0000              _UART_init proc
  24  0000              #line 24 "C:\Users\SA\Desktop\robot_n\UART.c"
  24  0000  3023        	set [35].0
  25  0001              #line 25 "C:\Users\SA\Desktop\robot_n\UART.c"
  25  0001  34A3        	clr [35].1
  26  0002              #line 26 "C:\Users\SA\Desktop\robot_n\UART.c"
  26  0002  3123        	set [35].2
  27  0003              #line 27 "C:\Users\SA\Desktop\robot_n\UART.c"
  27  0003  35A3        	clr [35].3
  28  0004              #line 28 "C:\Users\SA\Desktop\robot_n\UART.c"
  28  0004  31A2        	set [34].3
  28  0005  0003        	ret
  28  0006              _UART_init endp
  28  0006              #line 28 "C:\Users\SA\Desktop\robot_n\UART.c"
  28  0006              #pragma debug scope 1 1
  28  0006              public _PC_RX
  28  0006              #pragma debug scope 3 1
  32  0006              #line 32 "C:\Users\SA\Desktop\robot_n\UART.c"
  32  0000              _PC_RX .section 'code'
  32  0000              _PC_RX proc
  32  0000              _L4:
  34  0000              #line 34 "C:\Users\SA\Desktop\robot_n\UART.c"
  34  0000  3C22        	sz [34].0
  34  0001  2800     R  	jmp _L4
  36  0002              #line 36 "C:\Users\SA\Desktop\robot_n\UART.c"
  36  0002              ;# 36 "C:\Users\SA\Desktop\robot_n\UART.c" 1
  36  0002              	IF 105>263690
  36  0002              ;# 36 "C:\Users\SA\Desktop\robot_n\UART.c" 1
  36  0002              	ERRMESSAGE 'the value 105of the argument exceeds the maxinum 263690'
  36  0002              	ENDIF
  36  0002              ;# 36 "C:\Users\SA\Desktop\robot_n\UART.c" 1
  36  0002              	IF 105<0
  36  0002              ;# 36 "C:\Users\SA\Desktop\robot_n\UART.c" 1
  36  0002              	ERRMESSAGE 'the value 105 of the argument exceeds the mininum 0'
  36  0002              	ENDIF
  36  0002              ;# 36 "C:\Users\SA\Desktop\robot_n\UART.c" 1
  36  0002              	IF 105==0
  36  0002              ;# 36 "C:\Users\SA\Desktop\robot_n\UART.c" 1
  36  0002              	JMP $
  36  0002              	ENDIF
  36  0002              ;# 36 "C:\Users\SA\Desktop\robot_n\UART.c" 1
  36  0002              	IF (105>=1) AND (105<( 4 + __PBP__ * 2))
  36  0002              ;# 36 "C:\Users\SA\Desktop\robot_n\UART.c" 1
  36  0002              	NOP
"File: UART.c        Assembler  Version HGASM0202      Page 3

  36  0002              	ENDIF
  36  0002              ;# 36 "C:\Users\SA\Desktop\robot_n\UART.c" 1
  36  0002              	IF (105>=2) AND (105<( 4 + __PBP__ * 2))
  36  0002              ;# 36 "C:\Users\SA\Desktop\robot_n\UART.c" 1
  36  0002              	NOP
  36  0002              	ENDIF
  36  0002              ;# 36 "C:\Users\SA\Desktop\robot_n\UART.c" 1
  36  0002              	IF (105>=3) AND (105<( 4 + __PBP__ * 2))
  36  0002              ;# 36 "C:\Users\SA\Desktop\robot_n\UART.c" 1
  36  0002              	NOP
  36  0002              	ENDIF
  36  0002              ;# 36 "C:\Users\SA\Desktop\robot_n\UART.c" 1
  36  0002              	IF (105>=4) AND (105<( 4 + __PBP__ * 2)) AND ( __PBP__ > 0 )
  36  0002              ;# 36 "C:\Users\SA\Desktop\robot_n\UART.c" 1
  36  0002              	NOP
  36  0002              	ENDIF
  36  0002              ;# 36 "C:\Users\SA\Desktop\robot_n\UART.c" 1
  36  0002              	IF (105>=5) AND (105<( 4 + __PBP__ * 2)) AND ( __PBP__ > 0 )
  36  0002              ;# 36 "C:\Users\SA\Desktop\robot_n\UART.c" 1
  36  0002              	NOP
  36  0002              	ENDIF
  36  0002              ;# 36 "C:\Users\SA\Desktop\robot_n\UART.c" 1
  36  0002              	IF (105>=6) AND (105<( 4 + __PBP__ * 2))  AND ( __PBP__ > 1 )
  36  0002              ;# 36 "C:\Users\SA\Desktop\robot_n\UART.c" 1
  36  0002              	NOP
  36  0002              	ENDIF
  36  0002              ;# 36 "C:\Users\SA\Desktop\robot_n\UART.c" 1
  36  0002              	IF (105>=7) AND (105<( 4 + __PBP__ * 2))  AND ( __PBP__ > 1 )
  36  0002              ;# 36 "C:\Users\SA\Desktop\robot_n\UART.c" 1
  36  0002              	NOP
  36  0002              	ENDIF
  36  0002              ;# 36 "C:\Users\SA\Desktop\robot_n\UART.c" 1
  36  0002              	IF (105>=8) AND (105<( 4 + __PBP__ * 2))  AND ( __PBP__ > 2 )
  36  0002              ;# 36 "C:\Users\SA\Desktop\robot_n\UART.c" 1
  36  0002              	NOP
  36  0002              	ENDIF
  36  0002              ;# 36 "C:\Users\SA\Desktop\robot_n\UART.c" 1
  36  0002              	IF (105==9)  AND ( __PBP__ > 2 )
  36  0002              ;# 36 "C:\Users\SA\Desktop\robot_n\UART.c" 1
  36  0002              	NOP
  36  0002              	ENDIF
  36  0002              ;# 36 "C:\Users\SA\Desktop\robot_n\UART.c" 1
  36  0002              	IF (105< ( 8 + __PBP__ * 2)) AND (105>( 3 + __PBP__ * 2))
  36  0002              ;# 36 "C:\Users\SA\Desktop\robot_n\UART.c" 1
  36  0002              	fcall __DELAY3 + ( 7 + __PBP__ * 2) -105
  36  0002              	ENDIF
  36  0002              ;# 36 "C:\Users\SA\Desktop\robot_n\UART.c" 1
  36  0002              	IF (105< ( 0404h + __PBP__ * 2)) AND (105>( 7 + __PBP__ * 2))
  36  0002              ;# 36 "C:\Users\SA\Desktop\robot_n\UART.c" 1
  36  0002  0F18        	MOV A,(105-( 4 + __PBP__ * 2))/4
  36  0003              ;# 36 "C:\Users\SA\Desktop\robot_n\UART.c" 1
  36  0003              	fcall __DELAYX3 + 3 -((105-( 4 + __PBP__ * 2)) MOD 4) 
  36  000A              	ENDIF
  36  000A              ;# 36 "C:\Users\SA\Desktop\robot_n\UART.c" 1
  36  000A              	IF (105< ( 040bh + __PBP__ * 2)) AND (105> ( 0403h + __PBP__ * 2))
  36  000A              ;# 36 "C:\Users\SA\Desktop\robot_n\UART.c" 1
  36  000A              	MOV A,0 
  36  000A              ;# 36 "C:\Users\SA\Desktop\robot_n\UART.c" 1
  36  000A              	fcall __DELAYX6 + ( 040ah + __PBP__ * 2) -105
  36  000A              	ENDIF
"File: UART.c        Assembler  Version HGASM0202      Page 4

  36  000A              ;# 36 "C:\Users\SA\Desktop\robot_n\UART.c" 1
  36  000A              	IF (105 >= ( 040bh + __PBP__ * 2)) AND ((((105-( 9 + __PBP__ * 2))%0402h)/4+1)>256)
  36  000A              ;# 36 "C:\Users\SA\Desktop\robot_n\UART.c" 1
  36  000A              	MOV A,(105-( 9 + __PBP__ * 2))/0402h
  36  000A              ;# 36 "C:\Users\SA\Desktop\robot_n\UART.c" 1
  36  000A              	MOV _builtin_holtek_delay_2,A
  36  000A              ;# 36 "C:\Users\SA\Desktop\robot_n\UART.c" 1
  36  000A              	MOV A,0
  36  000A              ;# 36 "C:\Users\SA\Desktop\robot_n\UART.c" 1
  36  000A              	fcall __DELAYY5 +5- (((105-( 9 + __PBP__ * 2))%0402h)%6) 
  36  000A              	ENDIF
  36  000A              ;# 36 "C:\Users\SA\Desktop\robot_n\UART.c" 1
  36  000A              	IF (105 >= ( 040bh + __PBP__ * 2)) AND ((((105-( 9 + __PBP__ * 2))%0402h)/4+1)<=256)
  36  000A              ;# 36 "C:\Users\SA\Desktop\robot_n\UART.c" 1
  36  000A              	MOV A,(105-( 9 + __PBP__ * 2))/0402h
  36  000A              ;# 36 "C:\Users\SA\Desktop\robot_n\UART.c" 1
  36  000A              	MOV _builtin_holtek_delay_2,A
  36  000A              ;# 36 "C:\Users\SA\Desktop\robot_n\UART.c" 1
  36  000A              	MOV A,((105-( 9 + __PBP__ * 2))%0402h)/4+1
  36  000A              ;# 36 "C:\Users\SA\Desktop\robot_n\UART.c" 1
  36  000A              	fcall __DELAYY3 +3-(((105-( 9 + __PBP__ * 2))%0402h)%4) 
  36  000A              	ENDIF
  37  000A              #line 37 "C:\Users\SA\Desktop\robot_n\UART.c"
  37  000A              ;# 37 "C:\Users\SA\Desktop\robot_n\UART.c" 1
  37  000A              	IF 105/2>263690
  37  000A              ;# 37 "C:\Users\SA\Desktop\robot_n\UART.c" 1
  37  000A              	ERRMESSAGE 'the value 105/2of the argument exceeds the maxinum 263690'
  37  000A              	ENDIF
  37  000A              ;# 37 "C:\Users\SA\Desktop\robot_n\UART.c" 1
  37  000A              	IF 105/2<0
  37  000A              ;# 37 "C:\Users\SA\Desktop\robot_n\UART.c" 1
  37  000A              	ERRMESSAGE 'the value 105/2 of the argument exceeds the mininum 0'
  37  000A              	ENDIF
  37  000A              ;# 37 "C:\Users\SA\Desktop\robot_n\UART.c" 1
  37  000A              	IF 105/2==0
  37  000A              ;# 37 "C:\Users\SA\Desktop\robot_n\UART.c" 1
  37  000A              	JMP $
  37  000A              	ENDIF
  37  000A              ;# 37 "C:\Users\SA\Desktop\robot_n\UART.c" 1
  37  000A              	IF (105/2>=1) AND (105/2<( 4 + __PBP__ * 2))
  37  000A              ;# 37 "C:\Users\SA\Desktop\robot_n\UART.c" 1
  37  000A              	NOP
  37  000A              	ENDIF
  37  000A              ;# 37 "C:\Users\SA\Desktop\robot_n\UART.c" 1
  37  000A              	IF (105/2>=2) AND (105/2<( 4 + __PBP__ * 2))
  37  000A              ;# 37 "C:\Users\SA\Desktop\robot_n\UART.c" 1
  37  000A              	NOP
  37  000A              	ENDIF
  37  000A              ;# 37 "C:\Users\SA\Desktop\robot_n\UART.c" 1
  37  000A              	IF (105/2>=3) AND (105/2<( 4 + __PBP__ * 2))
  37  000A              ;# 37 "C:\Users\SA\Desktop\robot_n\UART.c" 1
  37  000A              	NOP
  37  000A              	ENDIF
  37  000A              ;# 37 "C:\Users\SA\Desktop\robot_n\UART.c" 1
  37  000A              	IF (105/2>=4) AND (105/2<( 4 + __PBP__ * 2)) AND ( __PBP__ > 0 )
  37  000A              ;# 37 "C:\Users\SA\Desktop\robot_n\UART.c" 1
  37  000A              	NOP
  37  000A              	ENDIF
  37  000A              ;# 37 "C:\Users\SA\Desktop\robot_n\UART.c" 1
  37  000A              	IF (105/2>=5) AND (105/2<( 4 + __PBP__ * 2)) AND ( __PBP__ > 0 )
"File: UART.c        Assembler  Version HGASM0202      Page 5

  37  000A              ;# 37 "C:\Users\SA\Desktop\robot_n\UART.c" 1
  37  000A              	NOP
  37  000A              	ENDIF
  37  000A              ;# 37 "C:\Users\SA\Desktop\robot_n\UART.c" 1
  37  000A              	IF (105/2>=6) AND (105/2<( 4 + __PBP__ * 2))  AND ( __PBP__ > 1 )
  37  000A              ;# 37 "C:\Users\SA\Desktop\robot_n\UART.c" 1
  37  000A              	NOP
  37  000A              	ENDIF
  37  000A              ;# 37 "C:\Users\SA\Desktop\robot_n\UART.c" 1
  37  000A              	IF (105/2>=7) AND (105/2<( 4 + __PBP__ * 2))  AND ( __PBP__ > 1 )
  37  000A              ;# 37 "C:\Users\SA\Desktop\robot_n\UART.c" 1
  37  000A              	NOP
  37  000A              	ENDIF
  37  000A              ;# 37 "C:\Users\SA\Desktop\robot_n\UART.c" 1
  37  000A              	IF (105/2>=8) AND (105/2<( 4 + __PBP__ * 2))  AND ( __PBP__ > 2 )
  37  000A              ;# 37 "C:\Users\SA\Desktop\robot_n\UART.c" 1
  37  000A              	NOP
  37  000A              	ENDIF
  37  000A              ;# 37 "C:\Users\SA\Desktop\robot_n\UART.c" 1
  37  000A              	IF (105/2==9)  AND ( __PBP__ > 2 )
  37  000A              ;# 37 "C:\Users\SA\Desktop\robot_n\UART.c" 1
  37  000A              	NOP
  37  000A              	ENDIF
  37  000A              ;# 37 "C:\Users\SA\Desktop\robot_n\UART.c" 1
  37  000A              	IF (105/2< ( 8 + __PBP__ * 2)) AND (105/2>( 3 + __PBP__ * 2))
  37  000A              ;# 37 "C:\Users\SA\Desktop\robot_n\UART.c" 1
  37  000A              	fcall __DELAY3 + ( 7 + __PBP__ * 2) -105/2
  37  000A              	ENDIF
  37  000A              ;# 37 "C:\Users\SA\Desktop\robot_n\UART.c" 1
  37  000A              	IF (105/2< ( 0404h + __PBP__ * 2)) AND (105/2>( 7 + __PBP__ * 2))
  37  000A              ;# 37 "C:\Users\SA\Desktop\robot_n\UART.c" 1
  37  000A  0F0B        	MOV A,(105/2-( 4 + __PBP__ * 2))/4
  37  000B              ;# 37 "C:\Users\SA\Desktop\robot_n\UART.c" 1
  37  000B              	fcall __DELAYX3 + 3 -((105/2-( 4 + __PBP__ * 2)) MOD 4) 
  37  0012              	ENDIF
  37  0012              ;# 37 "C:\Users\SA\Desktop\robot_n\UART.c" 1
  37  0012              	IF (105/2< ( 040bh + __PBP__ * 2)) AND (105/2> ( 0403h + __PBP__ * 2))
  37  0012              ;# 37 "C:\Users\SA\Desktop\robot_n\UART.c" 1
  37  0012              	MOV A,0 
  37  0012              ;# 37 "C:\Users\SA\Desktop\robot_n\UART.c" 1
  37  0012              	fcall __DELAYX6 + ( 040ah + __PBP__ * 2) -105/2
  37  0012              	ENDIF
  37  0012              ;# 37 "C:\Users\SA\Desktop\robot_n\UART.c" 1
  37  0012              	IF (105/2 >= ( 040bh + __PBP__ * 2)) AND ((((105/2-( 9 + __PBP__ * 2))%0402h)/4+1)>256)
  37  0012              ;# 37 "C:\Users\SA\Desktop\robot_n\UART.c" 1
  37  0012              	MOV A,(105/2-( 9 + __PBP__ * 2))/0402h
  37  0012              ;# 37 "C:\Users\SA\Desktop\robot_n\UART.c" 1
  37  0012              	MOV _builtin_holtek_delay_2,A
  37  0012              ;# 37 "C:\Users\SA\Desktop\robot_n\UART.c" 1
  37  0012              	MOV A,0
  37  0012              ;# 37 "C:\Users\SA\Desktop\robot_n\UART.c" 1
  37  0012              	fcall __DELAYY5 +5- (((105/2-( 9 + __PBP__ * 2))%0402h)%6) 
  37  0012              	ENDIF
  37  0012              ;# 37 "C:\Users\SA\Desktop\robot_n\UART.c" 1
  37  0012              	IF (105/2 >= ( 040bh + __PBP__ * 2)) AND ((((105/2-( 9 + __PBP__ * 2))%0402h)/4+1)<=256)
  37  0012              ;# 37 "C:\Users\SA\Desktop\robot_n\UART.c" 1
  37  0012              	MOV A,(105/2-( 9 + __PBP__ * 2))/0402h
  37  0012              ;# 37 "C:\Users\SA\Desktop\robot_n\UART.c" 1
  37  0012              	MOV _builtin_holtek_delay_2,A
  37  0012              ;# 37 "C:\Users\SA\Desktop\robot_n\UART.c" 1
"File: UART.c        Assembler  Version HGASM0202      Page 6

  37  0012              	MOV A,((105/2-( 9 + __PBP__ * 2))%0402h)/4+1
  37  0012              ;# 37 "C:\Users\SA\Desktop\robot_n\UART.c" 1
  37  0012              	fcall __DELAYY3 +3-(((105/2-( 9 + __PBP__ * 2))%0402h)%4) 
  37  0012              	ENDIF
  37  0012  0F08        	mov a,8
  37  0013  0080     E  	mov rb,a
  33  0014              #line 33 "C:\Users\SA\Desktop\robot_n\UART.c"
  33  0014  1F00     E  	clr ra
  33  0015              _L7:
  40  0015              #line 40 "C:\Users\SA\Desktop\robot_n\UART.c"
  40  0015  340A        	clr c
  40  0016  1B80     E  	rrc ra
  41  0017              #line 41 "C:\Users\SA\Desktop\robot_n\UART.c"
  41  0017  3822        	snz [34].0
  41  0018  2800     R  	jmp _L5
  41  0019  3000     E  	set ra.7
  41  001A              _L5:
  42  001A              #line 42 "C:\Users\SA\Desktop\robot_n\UART.c"
  42  001A              ;# 42 "C:\Users\SA\Desktop\robot_n\UART.c" 1
  42  001A              	IF 105-15>263690
  42  001A              ;# 42 "C:\Users\SA\Desktop\robot_n\UART.c" 1
  42  001A              	ERRMESSAGE 'the value 105-15of the argument exceeds the maxinum 263690'
  42  001A              	ENDIF
  42  001A              ;# 42 "C:\Users\SA\Desktop\robot_n\UART.c" 1
  42  001A              	IF 105-15<0
  42  001A              ;# 42 "C:\Users\SA\Desktop\robot_n\UART.c" 1
  42  001A              	ERRMESSAGE 'the value 105-15 of the argument exceeds the mininum 0'
  42  001A              	ENDIF
  42  001A              ;# 42 "C:\Users\SA\Desktop\robot_n\UART.c" 1
  42  001A              	IF 105-15==0
  42  001A              ;# 42 "C:\Users\SA\Desktop\robot_n\UART.c" 1
  42  001A              	JMP $
  42  001A              	ENDIF
  42  001A              ;# 42 "C:\Users\SA\Desktop\robot_n\UART.c" 1
  42  001A              	IF (105-15>=1) AND (105-15<( 4 + __PBP__ * 2))
  42  001A              ;# 42 "C:\Users\SA\Desktop\robot_n\UART.c" 1
  42  001A              	NOP
  42  001A              	ENDIF
  42  001A              ;# 42 "C:\Users\SA\Desktop\robot_n\UART.c" 1
  42  001A              	IF (105-15>=2) AND (105-15<( 4 + __PBP__ * 2))
  42  001A              ;# 42 "C:\Users\SA\Desktop\robot_n\UART.c" 1
  42  001A              	NOP
  42  001A              	ENDIF
  42  001A              ;# 42 "C:\Users\SA\Desktop\robot_n\UART.c" 1
  42  001A              	IF (105-15>=3) AND (105-15<( 4 + __PBP__ * 2))
  42  001A              ;# 42 "C:\Users\SA\Desktop\robot_n\UART.c" 1
  42  001A              	NOP
  42  001A              	ENDIF
  42  001A              ;# 42 "C:\Users\SA\Desktop\robot_n\UART.c" 1
  42  001A              	IF (105-15>=4) AND (105-15<( 4 + __PBP__ * 2)) AND ( __PBP__ > 0 )
  42  001A              ;# 42 "C:\Users\SA\Desktop\robot_n\UART.c" 1
  42  001A              	NOP
  42  001A              	ENDIF
  42  001A              ;# 42 "C:\Users\SA\Desktop\robot_n\UART.c" 1
  42  001A              	IF (105-15>=5) AND (105-15<( 4 + __PBP__ * 2)) AND ( __PBP__ > 0 )
  42  001A              ;# 42 "C:\Users\SA\Desktop\robot_n\UART.c" 1
  42  001A              	NOP
  42  001A              	ENDIF
  42  001A              ;# 42 "C:\Users\SA\Desktop\robot_n\UART.c" 1
  42  001A              	IF (105-15>=6) AND (105-15<( 4 + __PBP__ * 2))  AND ( __PBP__ > 1 )
"File: UART.c        Assembler  Version HGASM0202      Page 7

  42  001A              ;# 42 "C:\Users\SA\Desktop\robot_n\UART.c" 1
  42  001A              	NOP
  42  001A              	ENDIF
  42  001A              ;# 42 "C:\Users\SA\Desktop\robot_n\UART.c" 1
  42  001A              	IF (105-15>=7) AND (105-15<( 4 + __PBP__ * 2))  AND ( __PBP__ > 1 )
  42  001A              ;# 42 "C:\Users\SA\Desktop\robot_n\UART.c" 1
  42  001A              	NOP
  42  001A              	ENDIF
  42  001A              ;# 42 "C:\Users\SA\Desktop\robot_n\UART.c" 1
  42  001A              	IF (105-15>=8) AND (105-15<( 4 + __PBP__ * 2))  AND ( __PBP__ > 2 )
  42  001A              ;# 42 "C:\Users\SA\Desktop\robot_n\UART.c" 1
  42  001A              	NOP
  42  001A              	ENDIF
  42  001A              ;# 42 "C:\Users\SA\Desktop\robot_n\UART.c" 1
  42  001A              	IF (105-15==9)  AND ( __PBP__ > 2 )
  42  001A              ;# 42 "C:\Users\SA\Desktop\robot_n\UART.c" 1
  42  001A              	NOP
  42  001A              	ENDIF
  42  001A              ;# 42 "C:\Users\SA\Desktop\robot_n\UART.c" 1
  42  001A              	IF (105-15< ( 8 + __PBP__ * 2)) AND (105-15>( 3 + __PBP__ * 2))
  42  001A              ;# 42 "C:\Users\SA\Desktop\robot_n\UART.c" 1
  42  001A              	fcall __DELAY3 + ( 7 + __PBP__ * 2) -105-15
  42  001A              	ENDIF
  42  001A              ;# 42 "C:\Users\SA\Desktop\robot_n\UART.c" 1
  42  001A              	IF (105-15< ( 0404h + __PBP__ * 2)) AND (105-15>( 7 + __PBP__ * 2))
  42  001A              ;# 42 "C:\Users\SA\Desktop\robot_n\UART.c" 1
  42  001A  0F14        	MOV A,(105-15-( 4 + __PBP__ * 2))/4
  42  001B              ;# 42 "C:\Users\SA\Desktop\robot_n\UART.c" 1
  42  001B              	fcall __DELAYX3 + 3 -((105-15-( 4 + __PBP__ * 2)) MOD 4) 
  42  0022              	ENDIF
  42  0022              ;# 42 "C:\Users\SA\Desktop\robot_n\UART.c" 1
  42  0022              	IF (105-15< ( 040bh + __PBP__ * 2)) AND (105-15> ( 0403h + __PBP__ * 2))
  42  0022              ;# 42 "C:\Users\SA\Desktop\robot_n\UART.c" 1
  42  0022              	MOV A,0 
  42  0022              ;# 42 "C:\Users\SA\Desktop\robot_n\UART.c" 1
  42  0022              	fcall __DELAYX6 + ( 040ah + __PBP__ * 2) -105-15
  42  0022              	ENDIF
  42  0022              ;# 42 "C:\Users\SA\Desktop\robot_n\UART.c" 1
  42  0022              	IF (105-15 >= ( 040bh + __PBP__ * 2)) AND ((((105-15-( 9 + __PBP__ * 2))%0402h)/4+1)>256)
  42  0022              ;# 42 "C:\Users\SA\Desktop\robot_n\UART.c" 1
  42  0022              	MOV A,(105-15-( 9 + __PBP__ * 2))/0402h
  42  0022              ;# 42 "C:\Users\SA\Desktop\robot_n\UART.c" 1
  42  0022              	MOV _builtin_holtek_delay_2,A
  42  0022              ;# 42 "C:\Users\SA\Desktop\robot_n\UART.c" 1
  42  0022              	MOV A,0
  42  0022              ;# 42 "C:\Users\SA\Desktop\robot_n\UART.c" 1
  42  0022              	fcall __DELAYY5 +5- (((105-15-( 9 + __PBP__ * 2))%0402h)%6) 
  42  0022              	ENDIF
  42  0022              ;# 42 "C:\Users\SA\Desktop\robot_n\UART.c" 1
  42  0022              	IF (105-15 >= ( 040bh + __PBP__ * 2)) AND ((((105-15-( 9 + __PBP__ * 2))%0402h)/4+1)<=256)
  42  0022              ;# 42 "C:\Users\SA\Desktop\robot_n\UART.c" 1
  42  0022              	MOV A,(105-15-( 9 + __PBP__ * 2))/0402h
  42  0022              ;# 42 "C:\Users\SA\Desktop\robot_n\UART.c" 1
  42  0022              	MOV _builtin_holtek_delay_2,A
  42  0022              ;# 42 "C:\Users\SA\Desktop\robot_n\UART.c" 1
  42  0022              	MOV A,((105-15-( 9 + __PBP__ * 2))%0402h)/4+1
  42  0022              ;# 42 "C:\Users\SA\Desktop\robot_n\UART.c" 1
  42  0022              	fcall __DELAYY3 +3-(((105-15-( 9 + __PBP__ * 2))%0402h)%4) 
  42  0022              	ENDIF
  42  0022  1780     E  	sdz rb
"File: UART.c        Assembler  Version HGASM0202      Page 8

  42  0023  2800     R  	jmp _L7
  45  0024              #line 45 "C:\Users\SA\Desktop\robot_n\UART.c"
  45  0024  0700     E  	mov a,ra
  45  0025  0003        	ret
  45  0026              _PC_RX endp
  45  0026              #line 45 "C:\Users\SA\Desktop\robot_n\UART.c"
  45  0026              #pragma debug scope 1 1
  45  0026              public _rx_string
  45  0026              #pragma debug scope 4 1
  47  0026              #line 47 "C:\Users\SA\Desktop\robot_n\UART.c"
  47  0000              _rx_string .section 'code'
  47  0000              _rx_string proc
  47  0000  0002[           local _rx_string_2 db 2 dup(?)	; 0,2
            00
            ]
  47  0002              #pragma debug variable 7 4 _rx_string_2+1 "w"
  47  0000  0F0A        	mov a,10
  47  0001  0080     R  	mov _rx_string_2[0],a
  49  0002              #line 49 "C:\Users\SA\Desktop\robot_n\UART.c"
  49  0002  1F00     R  	clr _rx_string_2[1]
  49  0003              _L14:
  51  0003              #line 51 "C:\Users\SA\Desktop\robot_n\UART.c"
  51  0003              	fcall _PC_RX
  51  000A  0080     E  	mov ra,a
  51  000B  3400     E  	clr ra.7
  51  000C  0700     R  	mov a,_rx_string_2[1]
  51  000D  0080     E  	mov rb,a
  51  000E  1F00     E  	clr rc
  51  000F  3F85        	sz acc.7
  51  0010  1F80     E  	set rc
  51  0011  0F00     R  	mov a,low offset _output
  51  0012  0300     E  	add a,rb
  51  0013  0083        	mov mp,a
  51  0014  0F00     R  	mov a,high offset _output
  51  0015  1300     E  	adc a,rc
  51  0016  0084        	mov sbp,a
  51  0017  0700     E  	mov a,ra
  51  0018  0082        	mov ir,a
  52  0019              #line 52 "C:\Users\SA\Desktop\robot_n\UART.c"
  52  0019  0700     E  	mov a,ra
  52  001A  0A0D        	sub a,13
  52  001B  3D0A        	sz z
  52  001C  2800     R  	jmp _L12
  49  001D              #line 49 "C:\Users\SA\Desktop\robot_n\UART.c"
  49  001D  1480     R  	inc _rx_string_2[1]
  49  001E  1780     R  	sdz _rx_string_2[0]
  49  001F  2800     R  	jmp _L14
  49  0020              _L12:
  49  0020  0003        	ret
  49  0021              _rx_string endp
  49  0021              #line 49 "C:\Users\SA\Desktop\robot_n\UART.c"
  49  0021              #pragma debug scope 1 1
  49  0021              public _PC_TX
  49  0021              #pragma debug scope 5 1
  56  0021              #line 56 "C:\Users\SA\Desktop\robot_n\UART.c"
  56  0000              _PC_TX .section 'code'
  56  0000              _PC_TX proc
  56  0000  00              local _PC_TX_2 db 1 dup(?)	; 0,1
  56  0000  0080     R  	mov _PC_TX_2[0],a
  56  0001              #pragma debug variable 7 5 _PC_TX_2+0 "da"
"File: UART.c        Assembler  Version HGASM0202      Page 9

  59  0001              #line 59 "C:\Users\SA\Desktop\robot_n\UART.c"
  59  0001  34A2        	clr [34].1
  59  0002              ;# 59 "C:\Users\SA\Desktop\robot_n\UART.c" 1
  59  0002              	IF 105>263690
  59  0002              ;# 59 "C:\Users\SA\Desktop\robot_n\UART.c" 1
  59  0002              	ERRMESSAGE 'the value 105of the argument exceeds the maxinum 263690'
  59  0002              	ENDIF
  59  0002              ;# 59 "C:\Users\SA\Desktop\robot_n\UART.c" 1
  59  0002              	IF 105<0
  59  0002              ;# 59 "C:\Users\SA\Desktop\robot_n\UART.c" 1
  59  0002              	ERRMESSAGE 'the value 105 of the argument exceeds the mininum 0'
  59  0002              	ENDIF
  59  0002              ;# 59 "C:\Users\SA\Desktop\robot_n\UART.c" 1
  59  0002              	IF 105==0
  59  0002              ;# 59 "C:\Users\SA\Desktop\robot_n\UART.c" 1
  59  0002              	JMP $
  59  0002              	ENDIF
  59  0002              ;# 59 "C:\Users\SA\Desktop\robot_n\UART.c" 1
  59  0002              	IF (105>=1) AND (105<( 4 + __PBP__ * 2))
  59  0002              ;# 59 "C:\Users\SA\Desktop\robot_n\UART.c" 1
  59  0002              	NOP
  59  0002              	ENDIF
  59  0002              ;# 59 "C:\Users\SA\Desktop\robot_n\UART.c" 1
  59  0002              	IF (105>=2) AND (105<( 4 + __PBP__ * 2))
  59  0002              ;# 59 "C:\Users\SA\Desktop\robot_n\UART.c" 1
  59  0002              	NOP
  59  0002              	ENDIF
  59  0002              ;# 59 "C:\Users\SA\Desktop\robot_n\UART.c" 1
  59  0002              	IF (105>=3) AND (105<( 4 + __PBP__ * 2))
  59  0002              ;# 59 "C:\Users\SA\Desktop\robot_n\UART.c" 1
  59  0002              	NOP
  59  0002              	ENDIF
  59  0002              ;# 59 "C:\Users\SA\Desktop\robot_n\UART.c" 1
  59  0002              	IF (105>=4) AND (105<( 4 + __PBP__ * 2)) AND ( __PBP__ > 0 )
  59  0002              ;# 59 "C:\Users\SA\Desktop\robot_n\UART.c" 1
  59  0002              	NOP
  59  0002              	ENDIF
  59  0002              ;# 59 "C:\Users\SA\Desktop\robot_n\UART.c" 1
  59  0002              	IF (105>=5) AND (105<( 4 + __PBP__ * 2)) AND ( __PBP__ > 0 )
  59  0002              ;# 59 "C:\Users\SA\Desktop\robot_n\UART.c" 1
  59  0002              	NOP
  59  0002              	ENDIF
  59  0002              ;# 59 "C:\Users\SA\Desktop\robot_n\UART.c" 1
  59  0002              	IF (105>=6) AND (105<( 4 + __PBP__ * 2))  AND ( __PBP__ > 1 )
  59  0002              ;# 59 "C:\Users\SA\Desktop\robot_n\UART.c" 1
  59  0002              	NOP
  59  0002              	ENDIF
  59  0002              ;# 59 "C:\Users\SA\Desktop\robot_n\UART.c" 1
  59  0002              	IF (105>=7) AND (105<( 4 + __PBP__ * 2))  AND ( __PBP__ > 1 )
  59  0002              ;# 59 "C:\Users\SA\Desktop\robot_n\UART.c" 1
  59  0002              	NOP
  59  0002              	ENDIF
  59  0002              ;# 59 "C:\Users\SA\Desktop\robot_n\UART.c" 1
  59  0002              	IF (105>=8) AND (105<( 4 + __PBP__ * 2))  AND ( __PBP__ > 2 )
  59  0002              ;# 59 "C:\Users\SA\Desktop\robot_n\UART.c" 1
  59  0002              	NOP
  59  0002              	ENDIF
  59  0002              ;# 59 "C:\Users\SA\Desktop\robot_n\UART.c" 1
  59  0002              	IF (105==9)  AND ( __PBP__ > 2 )
  59  0002              ;# 59 "C:\Users\SA\Desktop\robot_n\UART.c" 1
"File: UART.c        Assembler  Version HGASM0202      Page 10

  59  0002              	NOP
  59  0002              	ENDIF
  59  0002              ;# 59 "C:\Users\SA\Desktop\robot_n\UART.c" 1
  59  0002              	IF (105< ( 8 + __PBP__ * 2)) AND (105>( 3 + __PBP__ * 2))
  59  0002              ;# 59 "C:\Users\SA\Desktop\robot_n\UART.c" 1
  59  0002              	fcall __DELAY3 + ( 7 + __PBP__ * 2) -105
  59  0002              	ENDIF
  59  0002              ;# 59 "C:\Users\SA\Desktop\robot_n\UART.c" 1
  59  0002              	IF (105< ( 0404h + __PBP__ * 2)) AND (105>( 7 + __PBP__ * 2))
  59  0002              ;# 59 "C:\Users\SA\Desktop\robot_n\UART.c" 1
  59  0002  0F18        	MOV A,(105-( 4 + __PBP__ * 2))/4
  59  0003              ;# 59 "C:\Users\SA\Desktop\robot_n\UART.c" 1
  59  0003              	fcall __DELAYX3 + 3 -((105-( 4 + __PBP__ * 2)) MOD 4) 
  59  000A              	ENDIF
  59  000A              ;# 59 "C:\Users\SA\Desktop\robot_n\UART.c" 1
  59  000A              	IF (105< ( 040bh + __PBP__ * 2)) AND (105> ( 0403h + __PBP__ * 2))
  59  000A              ;# 59 "C:\Users\SA\Desktop\robot_n\UART.c" 1
  59  000A              	MOV A,0 
  59  000A              ;# 59 "C:\Users\SA\Desktop\robot_n\UART.c" 1
  59  000A              	fcall __DELAYX6 + ( 040ah + __PBP__ * 2) -105
  59  000A              	ENDIF
  59  000A              ;# 59 "C:\Users\SA\Desktop\robot_n\UART.c" 1
  59  000A              	IF (105 >= ( 040bh + __PBP__ * 2)) AND ((((105-( 9 + __PBP__ * 2))%0402h)/4+1)>256)
  59  000A              ;# 59 "C:\Users\SA\Desktop\robot_n\UART.c" 1
  59  000A              	MOV A,(105-( 9 + __PBP__ * 2))/0402h
  59  000A              ;# 59 "C:\Users\SA\Desktop\robot_n\UART.c" 1
  59  000A              	MOV _builtin_holtek_delay_2,A
  59  000A              ;# 59 "C:\Users\SA\Desktop\robot_n\UART.c" 1
  59  000A              	MOV A,0
  59  000A              ;# 59 "C:\Users\SA\Desktop\robot_n\UART.c" 1
  59  000A              	fcall __DELAYY5 +5- (((105-( 9 + __PBP__ * 2))%0402h)%6) 
  59  000A              	ENDIF
  59  000A              ;# 59 "C:\Users\SA\Desktop\robot_n\UART.c" 1
  59  000A              	IF (105 >= ( 040bh + __PBP__ * 2)) AND ((((105-( 9 + __PBP__ * 2))%0402h)/4+1)<=256)
  59  000A              ;# 59 "C:\Users\SA\Desktop\robot_n\UART.c" 1
  59  000A              	MOV A,(105-( 9 + __PBP__ * 2))/0402h
  59  000A              ;# 59 "C:\Users\SA\Desktop\robot_n\UART.c" 1
  59  000A              	MOV _builtin_holtek_delay_2,A
  59  000A              ;# 59 "C:\Users\SA\Desktop\robot_n\UART.c" 1
  59  000A              	MOV A,((105-( 9 + __PBP__ * 2))%0402h)/4+1
  59  000A              ;# 59 "C:\Users\SA\Desktop\robot_n\UART.c" 1
  59  000A              	fcall __DELAYY3 +3-(((105-( 9 + __PBP__ * 2))%0402h)%4) 
  59  000A              	ENDIF
  59  000A  0F08        	mov a,8
  59  000B  0080     E  	mov ra,a
  59  000C              _L25:
  62  000C              #line 62 "C:\Users\SA\Desktop\robot_n\UART.c"
  62  000C  3800     R  	snz _PC_TX_2[0].0
  62  000D  2800     R  	jmp _L22
  62  000E  30A2        	set [34].1
  62  000F  2800     R  	jmp _L23
  62  0010              _L22:
  63  0010              #line 63 "C:\Users\SA\Desktop\robot_n\UART.c"
  63  0010  34A2        	clr [34].1
  63  0011              _L23:
  64  0011              #line 64 "C:\Users\SA\Desktop\robot_n\UART.c"
  64  0011  1A00     R  	rlca _PC_TX_2[0]
  64  0012  1B80     R  	rrc _PC_TX_2[0]
  65  0013              #line 65 "C:\Users\SA\Desktop\robot_n\UART.c"
  65  0013              ;# 65 "C:\Users\SA\Desktop\robot_n\UART.c" 1
"File: UART.c        Assembler  Version HGASM0202      Page 11

  65  0013              	IF 105-15>263690
  65  0013              ;# 65 "C:\Users\SA\Desktop\robot_n\UART.c" 1
  65  0013              	ERRMESSAGE 'the value 105-15of the argument exceeds the maxinum 263690'
  65  0013              	ENDIF
  65  0013              ;# 65 "C:\Users\SA\Desktop\robot_n\UART.c" 1
  65  0013              	IF 105-15<0
  65  0013              ;# 65 "C:\Users\SA\Desktop\robot_n\UART.c" 1
  65  0013              	ERRMESSAGE 'the value 105-15 of the argument exceeds the mininum 0'
  65  0013              	ENDIF
  65  0013              ;# 65 "C:\Users\SA\Desktop\robot_n\UART.c" 1
  65  0013              	IF 105-15==0
  65  0013              ;# 65 "C:\Users\SA\Desktop\robot_n\UART.c" 1
  65  0013              	JMP $
  65  0013              	ENDIF
  65  0013              ;# 65 "C:\Users\SA\Desktop\robot_n\UART.c" 1
  65  0013              	IF (105-15>=1) AND (105-15<( 4 + __PBP__ * 2))
  65  0013              ;# 65 "C:\Users\SA\Desktop\robot_n\UART.c" 1
  65  0013              	NOP
  65  0013              	ENDIF
  65  0013              ;# 65 "C:\Users\SA\Desktop\robot_n\UART.c" 1
  65  0013              	IF (105-15>=2) AND (105-15<( 4 + __PBP__ * 2))
  65  0013              ;# 65 "C:\Users\SA\Desktop\robot_n\UART.c" 1
  65  0013              	NOP
  65  0013              	ENDIF
  65  0013              ;# 65 "C:\Users\SA\Desktop\robot_n\UART.c" 1
  65  0013              	IF (105-15>=3) AND (105-15<( 4 + __PBP__ * 2))
  65  0013              ;# 65 "C:\Users\SA\Desktop\robot_n\UART.c" 1
  65  0013              	NOP
  65  0013              	ENDIF
  65  0013              ;# 65 "C:\Users\SA\Desktop\robot_n\UART.c" 1
  65  0013              	IF (105-15>=4) AND (105-15<( 4 + __PBP__ * 2)) AND ( __PBP__ > 0 )
  65  0013              ;# 65 "C:\Users\SA\Desktop\robot_n\UART.c" 1
  65  0013              	NOP
  65  0013              	ENDIF
  65  0013              ;# 65 "C:\Users\SA\Desktop\robot_n\UART.c" 1
  65  0013              	IF (105-15>=5) AND (105-15<( 4 + __PBP__ * 2)) AND ( __PBP__ > 0 )
  65  0013              ;# 65 "C:\Users\SA\Desktop\robot_n\UART.c" 1
  65  0013              	NOP
  65  0013              	ENDIF
  65  0013              ;# 65 "C:\Users\SA\Desktop\robot_n\UART.c" 1
  65  0013              	IF (105-15>=6) AND (105-15<( 4 + __PBP__ * 2))  AND ( __PBP__ > 1 )
  65  0013              ;# 65 "C:\Users\SA\Desktop\robot_n\UART.c" 1
  65  0013              	NOP
  65  0013              	ENDIF
  65  0013              ;# 65 "C:\Users\SA\Desktop\robot_n\UART.c" 1
  65  0013              	IF (105-15>=7) AND (105-15<( 4 + __PBP__ * 2))  AND ( __PBP__ > 1 )
  65  0013              ;# 65 "C:\Users\SA\Desktop\robot_n\UART.c" 1
  65  0013              	NOP
  65  0013              	ENDIF
  65  0013              ;# 65 "C:\Users\SA\Desktop\robot_n\UART.c" 1
  65  0013              	IF (105-15>=8) AND (105-15<( 4 + __PBP__ * 2))  AND ( __PBP__ > 2 )
  65  0013              ;# 65 "C:\Users\SA\Desktop\robot_n\UART.c" 1
  65  0013              	NOP
  65  0013              	ENDIF
  65  0013              ;# 65 "C:\Users\SA\Desktop\robot_n\UART.c" 1
  65  0013              	IF (105-15==9)  AND ( __PBP__ > 2 )
  65  0013              ;# 65 "C:\Users\SA\Desktop\robot_n\UART.c" 1
  65  0013              	NOP
  65  0013              	ENDIF
  65  0013              ;# 65 "C:\Users\SA\Desktop\robot_n\UART.c" 1
"File: UART.c        Assembler  Version HGASM0202      Page 12

  65  0013              	IF (105-15< ( 8 + __PBP__ * 2)) AND (105-15>( 3 + __PBP__ * 2))
  65  0013              ;# 65 "C:\Users\SA\Desktop\robot_n\UART.c" 1
  65  0013              	fcall __DELAY3 + ( 7 + __PBP__ * 2) -105-15
  65  0013              	ENDIF
  65  0013              ;# 65 "C:\Users\SA\Desktop\robot_n\UART.c" 1
  65  0013              	IF (105-15< ( 0404h + __PBP__ * 2)) AND (105-15>( 7 + __PBP__ * 2))
  65  0013              ;# 65 "C:\Users\SA\Desktop\robot_n\UART.c" 1
  65  0013  0F14        	MOV A,(105-15-( 4 + __PBP__ * 2))/4
  65  0014              ;# 65 "C:\Users\SA\Desktop\robot_n\UART.c" 1
  65  0014              	fcall __DELAYX3 + 3 -((105-15-( 4 + __PBP__ * 2)) MOD 4) 
  65  001B              	ENDIF
  65  001B              ;# 65 "C:\Users\SA\Desktop\robot_n\UART.c" 1
  65  001B              	IF (105-15< ( 040bh + __PBP__ * 2)) AND (105-15> ( 0403h + __PBP__ * 2))
  65  001B              ;# 65 "C:\Users\SA\Desktop\robot_n\UART.c" 1
  65  001B              	MOV A,0 
  65  001B              ;# 65 "C:\Users\SA\Desktop\robot_n\UART.c" 1
  65  001B              	fcall __DELAYX6 + ( 040ah + __PBP__ * 2) -105-15
  65  001B              	ENDIF
  65  001B              ;# 65 "C:\Users\SA\Desktop\robot_n\UART.c" 1
  65  001B              	IF (105-15 >= ( 040bh + __PBP__ * 2)) AND ((((105-15-( 9 + __PBP__ * 2))%0402h)/4+1)>256)
  65  001B              ;# 65 "C:\Users\SA\Desktop\robot_n\UART.c" 1
  65  001B              	MOV A,(105-15-( 9 + __PBP__ * 2))/0402h
  65  001B              ;# 65 "C:\Users\SA\Desktop\robot_n\UART.c" 1
  65  001B              	MOV _builtin_holtek_delay_2,A
  65  001B              ;# 65 "C:\Users\SA\Desktop\robot_n\UART.c" 1
  65  001B              	MOV A,0
  65  001B              ;# 65 "C:\Users\SA\Desktop\robot_n\UART.c" 1
  65  001B              	fcall __DELAYY5 +5- (((105-15-( 9 + __PBP__ * 2))%0402h)%6) 
  65  001B              	ENDIF
  65  001B              ;# 65 "C:\Users\SA\Desktop\robot_n\UART.c" 1
  65  001B              	IF (105-15 >= ( 040bh + __PBP__ * 2)) AND ((((105-15-( 9 + __PBP__ * 2))%0402h)/4+1)<=256)
  65  001B              ;# 65 "C:\Users\SA\Desktop\robot_n\UART.c" 1
  65  001B              	MOV A,(105-15-( 9 + __PBP__ * 2))/0402h
  65  001B              ;# 65 "C:\Users\SA\Desktop\robot_n\UART.c" 1
  65  001B              	MOV _builtin_holtek_delay_2,A
  65  001B              ;# 65 "C:\Users\SA\Desktop\robot_n\UART.c" 1
  65  001B              	MOV A,((105-15-( 9 + __PBP__ * 2))%0402h)/4+1
  65  001B              ;# 65 "C:\Users\SA\Desktop\robot_n\UART.c" 1
  65  001B              	fcall __DELAYY3 +3-(((105-15-( 9 + __PBP__ * 2))%0402h)%4) 
  65  001B              	ENDIF
  65  001B  1780     E  	sdz ra
  65  001C  2800     R  	jmp _L25
  67  001D              #line 67 "C:\Users\SA\Desktop\robot_n\UART.c"
  67  001D  30A2        	set [34].1
  67  001E              ;# 67 "C:\Users\SA\Desktop\robot_n\UART.c" 1
  67  001E              	IF 105>263690
  67  001E              ;# 67 "C:\Users\SA\Desktop\robot_n\UART.c" 1
  67  001E              	ERRMESSAGE 'the value 105of the argument exceeds the maxinum 263690'
  67  001E              	ENDIF
  67  001E              ;# 67 "C:\Users\SA\Desktop\robot_n\UART.c" 1
  67  001E              	IF 105<0
  67  001E              ;# 67 "C:\Users\SA\Desktop\robot_n\UART.c" 1
  67  001E              	ERRMESSAGE 'the value 105 of the argument exceeds the mininum 0'
  67  001E              	ENDIF
  67  001E              ;# 67 "C:\Users\SA\Desktop\robot_n\UART.c" 1
  67  001E              	IF 105==0
  67  001E              ;# 67 "C:\Users\SA\Desktop\robot_n\UART.c" 1
  67  001E              	JMP $
  67  001E              	ENDIF
  67  001E              ;# 67 "C:\Users\SA\Desktop\robot_n\UART.c" 1
"File: UART.c        Assembler  Version HGASM0202      Page 13

  67  001E              	IF (105>=1) AND (105<( 4 + __PBP__ * 2))
  67  001E              ;# 67 "C:\Users\SA\Desktop\robot_n\UART.c" 1
  67  001E              	NOP
  67  001E              	ENDIF
  67  001E              ;# 67 "C:\Users\SA\Desktop\robot_n\UART.c" 1
  67  001E              	IF (105>=2) AND (105<( 4 + __PBP__ * 2))
  67  001E              ;# 67 "C:\Users\SA\Desktop\robot_n\UART.c" 1
  67  001E              	NOP
  67  001E              	ENDIF
  67  001E              ;# 67 "C:\Users\SA\Desktop\robot_n\UART.c" 1
  67  001E              	IF (105>=3) AND (105<( 4 + __PBP__ * 2))
  67  001E              ;# 67 "C:\Users\SA\Desktop\robot_n\UART.c" 1
  67  001E              	NOP
  67  001E              	ENDIF
  67  001E              ;# 67 "C:\Users\SA\Desktop\robot_n\UART.c" 1
  67  001E              	IF (105>=4) AND (105<( 4 + __PBP__ * 2)) AND ( __PBP__ > 0 )
  67  001E              ;# 67 "C:\Users\SA\Desktop\robot_n\UART.c" 1
  67  001E              	NOP
  67  001E              	ENDIF
  67  001E              ;# 67 "C:\Users\SA\Desktop\robot_n\UART.c" 1
  67  001E              	IF (105>=5) AND (105<( 4 + __PBP__ * 2)) AND ( __PBP__ > 0 )
  67  001E              ;# 67 "C:\Users\SA\Desktop\robot_n\UART.c" 1
  67  001E              	NOP
  67  001E              	ENDIF
  67  001E              ;# 67 "C:\Users\SA\Desktop\robot_n\UART.c" 1
  67  001E              	IF (105>=6) AND (105<( 4 + __PBP__ * 2))  AND ( __PBP__ > 1 )
  67  001E              ;# 67 "C:\Users\SA\Desktop\robot_n\UART.c" 1
  67  001E              	NOP
  67  001E              	ENDIF
  67  001E              ;# 67 "C:\Users\SA\Desktop\robot_n\UART.c" 1
  67  001E              	IF (105>=7) AND (105<( 4 + __PBP__ * 2))  AND ( __PBP__ > 1 )
  67  001E              ;# 67 "C:\Users\SA\Desktop\robot_n\UART.c" 1
  67  001E              	NOP
  67  001E              	ENDIF
  67  001E              ;# 67 "C:\Users\SA\Desktop\robot_n\UART.c" 1
  67  001E              	IF (105>=8) AND (105<( 4 + __PBP__ * 2))  AND ( __PBP__ > 2 )
  67  001E              ;# 67 "C:\Users\SA\Desktop\robot_n\UART.c" 1
  67  001E              	NOP
  67  001E              	ENDIF
  67  001E              ;# 67 "C:\Users\SA\Desktop\robot_n\UART.c" 1
  67  001E              	IF (105==9)  AND ( __PBP__ > 2 )
  67  001E              ;# 67 "C:\Users\SA\Desktop\robot_n\UART.c" 1
  67  001E              	NOP
  67  001E              	ENDIF
  67  001E              ;# 67 "C:\Users\SA\Desktop\robot_n\UART.c" 1
  67  001E              	IF (105< ( 8 + __PBP__ * 2)) AND (105>( 3 + __PBP__ * 2))
  67  001E              ;# 67 "C:\Users\SA\Desktop\robot_n\UART.c" 1
  67  001E              	fcall __DELAY3 + ( 7 + __PBP__ * 2) -105
  67  001E              	ENDIF
  67  001E              ;# 67 "C:\Users\SA\Desktop\robot_n\UART.c" 1
  67  001E              	IF (105< ( 0404h + __PBP__ * 2)) AND (105>( 7 + __PBP__ * 2))
  67  001E              ;# 67 "C:\Users\SA\Desktop\robot_n\UART.c" 1
  67  001E  0F18        	MOV A,(105-( 4 + __PBP__ * 2))/4
  67  001F              ;# 67 "C:\Users\SA\Desktop\robot_n\UART.c" 1
  67  001F              	fcall __DELAYX3 + 3 -((105-( 4 + __PBP__ * 2)) MOD 4) 
  67  0026              	ENDIF
  67  0026              ;# 67 "C:\Users\SA\Desktop\robot_n\UART.c" 1
  67  0026              	IF (105< ( 040bh + __PBP__ * 2)) AND (105> ( 0403h + __PBP__ * 2))
  67  0026              ;# 67 "C:\Users\SA\Desktop\robot_n\UART.c" 1
  67  0026              	MOV A,0 
"File: UART.c        Assembler  Version HGASM0202      Page 14

  67  0026              ;# 67 "C:\Users\SA\Desktop\robot_n\UART.c" 1
  67  0026              	fcall __DELAYX6 + ( 040ah + __PBP__ * 2) -105
  67  0026              	ENDIF
  67  0026              ;# 67 "C:\Users\SA\Desktop\robot_n\UART.c" 1
  67  0026              	IF (105 >= ( 040bh + __PBP__ * 2)) AND ((((105-( 9 + __PBP__ * 2))%0402h)/4+1)>256)
  67  0026              ;# 67 "C:\Users\SA\Desktop\robot_n\UART.c" 1
  67  0026              	MOV A,(105-( 9 + __PBP__ * 2))/0402h
  67  0026              ;# 67 "C:\Users\SA\Desktop\robot_n\UART.c" 1
  67  0026              	MOV _builtin_holtek_delay_2,A
  67  0026              ;# 67 "C:\Users\SA\Desktop\robot_n\UART.c" 1
  67  0026              	MOV A,0
  67  0026              ;# 67 "C:\Users\SA\Desktop\robot_n\UART.c" 1
  67  0026              	fcall __DELAYY5 +5- (((105-( 9 + __PBP__ * 2))%0402h)%6) 
  67  0026              	ENDIF
  67  0026              ;# 67 "C:\Users\SA\Desktop\robot_n\UART.c" 1
  67  0026              	IF (105 >= ( 040bh + __PBP__ * 2)) AND ((((105-( 9 + __PBP__ * 2))%0402h)/4+1)<=256)
  67  0026              ;# 67 "C:\Users\SA\Desktop\robot_n\UART.c" 1
  67  0026              	MOV A,(105-( 9 + __PBP__ * 2))/0402h
  67  0026              ;# 67 "C:\Users\SA\Desktop\robot_n\UART.c" 1
  67  0026              	MOV _builtin_holtek_delay_2,A
  67  0026              ;# 67 "C:\Users\SA\Desktop\robot_n\UART.c" 1
  67  0026              	MOV A,((105-( 9 + __PBP__ * 2))%0402h)/4+1
  67  0026              ;# 67 "C:\Users\SA\Desktop\robot_n\UART.c" 1
  67  0026              	fcall __DELAYY3 +3-(((105-( 9 + __PBP__ * 2))%0402h)%4) 
  67  0026              	ENDIF
  67  0026  0003        	ret
  67  0027              _PC_TX endp
  67  0027              #line 67 "C:\Users\SA\Desktop\robot_n\UART.c"
  67  0027              #pragma debug scope 1 1
  67  0027              public _tx_string
  67  0027              #pragma debug scope 6 1
  71  0027              #line 71 "C:\Users\SA\Desktop\robot_n\UART.c"
  71  0000              _tx_string .section 'code'
  71  0000              _tx_string proc
  71  0000              public _tx_string_2
  71  0000  0005[           local _tx_string_2 db 5 dup(?)	; 4,1
            00
            ]
  71  0005              #pragma debug pointer 42 7 6
  71  0005              #pragma debug pointer 42 7 6
  71  0005              #pragma debug variable 42 6 _tx_string_2+0 "data"
  71  0005              #pragma debug variable 11 6 _tx_string_2+2 "len"
  71  0005              #pragma debug variable 7 6 _tx_string_2+4 "test"
  73  0005              #line 73 "C:\Users\SA\Desktop\robot_n\UART.c"
  73  0000  1F00     R  	clr _tx_string_2[4]
  73  0001  2800     R  	jmp _L27
  73  0002              _L28:
  75  0002              #line 75 "C:\Users\SA\Desktop\robot_n\UART.c"
  75  0002  0700     E  	mov a,rb
  75  0003  0300     R  	add a,_tx_string_2[0]
  75  0004  0083        	mov mp,a
  75  0005  0700     E  	mov a,rc
  75  0006  1300     R  	adc a,_tx_string_2[1]
  75  0007  0084        	mov sbp,a
  75  0008              	fcall _Crom2Prom
  75  000F              	fcall _PC_TX
  73  0016              #line 73 "C:\Users\SA\Desktop\robot_n\UART.c"
  73  0016  1480     R  	inc _tx_string_2[4]
  73  0017              _L27:
  73  0017  0700     R  	mov a,_tx_string_2[4]
"File: UART.c        Assembler  Version HGASM0202      Page 15

  73  0018  0080     E  	mov rb,a
  73  0019  1F00     E  	clr rc
  73  001A  3F85        	sz acc.7
  73  001B  1F80     E  	set rc
  73  001C  0700     E  	mov a,rb
  73  001D  0200     R  	sub a,_tx_string_2[2]
  73  001E  0700     E  	mov a,rc
  73  001F  1200     R  	sbc a,_tx_string_2[3]
  73  0020  3F8A        	sz sc
  73  0021  2800     R  	jmp _L28
  73  0022  0003        	ret
  73  0023              _tx_string endp
  73  0023              #line 73 "C:\Users\SA\Desktop\robot_n\UART.c"
  73  0023              #pragma debug scope 1 1
  73  0023              public _PC_RX_115200
  73  0023              #pragma debug scope 7 1
  82  0023              #line 82 "C:\Users\SA\Desktop\robot_n\UART.c"
  82  0000              _PC_RX_115200 .section 'code'
  82  0000              _PC_RX_115200 proc
  82  0000              _L31:
  84  0000              #line 84 "C:\Users\SA\Desktop\robot_n\UART.c"
  84  0000  3D22        	sz [34].2
  84  0001  2800     R  	jmp _L31
  86  0002              #line 86 "C:\Users\SA\Desktop\robot_n\UART.c"
  86  0002              ;# 86 "C:\Users\SA\Desktop\robot_n\UART.c" 1
  86  0002              	IF 212>263690
  86  0002              ;# 86 "C:\Users\SA\Desktop\robot_n\UART.c" 1
  86  0002              	ERRMESSAGE 'the value 212of the argument exceeds the maxinum 263690'
  86  0002              	ENDIF
  86  0002              ;# 86 "C:\Users\SA\Desktop\robot_n\UART.c" 1
  86  0002              	IF 212<0
  86  0002              ;# 86 "C:\Users\SA\Desktop\robot_n\UART.c" 1
  86  0002              	ERRMESSAGE 'the value 212 of the argument exceeds the mininum 0'
  86  0002              	ENDIF
  86  0002              ;# 86 "C:\Users\SA\Desktop\robot_n\UART.c" 1
  86  0002              	IF 212==0
  86  0002              ;# 86 "C:\Users\SA\Desktop\robot_n\UART.c" 1
  86  0002              	JMP $
  86  0002              	ENDIF
  86  0002              ;# 86 "C:\Users\SA\Desktop\robot_n\UART.c" 1
  86  0002              	IF (212>=1) AND (212<( 4 + __PBP__ * 2))
  86  0002              ;# 86 "C:\Users\SA\Desktop\robot_n\UART.c" 1
  86  0002              	NOP
  86  0002              	ENDIF
  86  0002              ;# 86 "C:\Users\SA\Desktop\robot_n\UART.c" 1
  86  0002              	IF (212>=2) AND (212<( 4 + __PBP__ * 2))
  86  0002              ;# 86 "C:\Users\SA\Desktop\robot_n\UART.c" 1
  86  0002              	NOP
  86  0002              	ENDIF
  86  0002              ;# 86 "C:\Users\SA\Desktop\robot_n\UART.c" 1
  86  0002              	IF (212>=3) AND (212<( 4 + __PBP__ * 2))
  86  0002              ;# 86 "C:\Users\SA\Desktop\robot_n\UART.c" 1
  86  0002              	NOP
  86  0002              	ENDIF
  86  0002              ;# 86 "C:\Users\SA\Desktop\robot_n\UART.c" 1
  86  0002              	IF (212>=4) AND (212<( 4 + __PBP__ * 2)) AND ( __PBP__ > 0 )
  86  0002              ;# 86 "C:\Users\SA\Desktop\robot_n\UART.c" 1
  86  0002              	NOP
  86  0002              	ENDIF
  86  0002              ;# 86 "C:\Users\SA\Desktop\robot_n\UART.c" 1
"File: UART.c        Assembler  Version HGASM0202      Page 16

  86  0002              	IF (212>=5) AND (212<( 4 + __PBP__ * 2)) AND ( __PBP__ > 0 )
  86  0002              ;# 86 "C:\Users\SA\Desktop\robot_n\UART.c" 1
  86  0002              	NOP
  86  0002              	ENDIF
  86  0002              ;# 86 "C:\Users\SA\Desktop\robot_n\UART.c" 1
  86  0002              	IF (212>=6) AND (212<( 4 + __PBP__ * 2))  AND ( __PBP__ > 1 )
  86  0002              ;# 86 "C:\Users\SA\Desktop\robot_n\UART.c" 1
  86  0002              	NOP
  86  0002              	ENDIF
  86  0002              ;# 86 "C:\Users\SA\Desktop\robot_n\UART.c" 1
  86  0002              	IF (212>=7) AND (212<( 4 + __PBP__ * 2))  AND ( __PBP__ > 1 )
  86  0002              ;# 86 "C:\Users\SA\Desktop\robot_n\UART.c" 1
  86  0002              	NOP
  86  0002              	ENDIF
  86  0002              ;# 86 "C:\Users\SA\Desktop\robot_n\UART.c" 1
  86  0002              	IF (212>=8) AND (212<( 4 + __PBP__ * 2))  AND ( __PBP__ > 2 )
  86  0002              ;# 86 "C:\Users\SA\Desktop\robot_n\UART.c" 1
  86  0002              	NOP
  86  0002              	ENDIF
  86  0002              ;# 86 "C:\Users\SA\Desktop\robot_n\UART.c" 1
  86  0002              	IF (212==9)  AND ( __PBP__ > 2 )
  86  0002              ;# 86 "C:\Users\SA\Desktop\robot_n\UART.c" 1
  86  0002              	NOP
  86  0002              	ENDIF
  86  0002              ;# 86 "C:\Users\SA\Desktop\robot_n\UART.c" 1
  86  0002              	IF (212< ( 8 + __PBP__ * 2)) AND (212>( 3 + __PBP__ * 2))
  86  0002              ;# 86 "C:\Users\SA\Desktop\robot_n\UART.c" 1
  86  0002              	fcall __DELAY3 + ( 7 + __PBP__ * 2) -212
  86  0002              	ENDIF
  86  0002              ;# 86 "C:\Users\SA\Desktop\robot_n\UART.c" 1
  86  0002              	IF (212< ( 0404h + __PBP__ * 2)) AND (212>( 7 + __PBP__ * 2))
  86  0002              ;# 86 "C:\Users\SA\Desktop\robot_n\UART.c" 1
  86  0002  0F33        	MOV A,(212-( 4 + __PBP__ * 2))/4
  86  0003              ;# 86 "C:\Users\SA\Desktop\robot_n\UART.c" 1
  86  0003              	fcall __DELAYX3 + 3 -((212-( 4 + __PBP__ * 2)) MOD 4) 
  86  000A              	ENDIF
  86  000A              ;# 86 "C:\Users\SA\Desktop\robot_n\UART.c" 1
  86  000A              	IF (212< ( 040bh + __PBP__ * 2)) AND (212> ( 0403h + __PBP__ * 2))
  86  000A              ;# 86 "C:\Users\SA\Desktop\robot_n\UART.c" 1
  86  000A              	MOV A,0 
  86  000A              ;# 86 "C:\Users\SA\Desktop\robot_n\UART.c" 1
  86  000A              	fcall __DELAYX6 + ( 040ah + __PBP__ * 2) -212
  86  000A              	ENDIF
  86  000A              ;# 86 "C:\Users\SA\Desktop\robot_n\UART.c" 1
  86  000A              	IF (212 >= ( 040bh + __PBP__ * 2)) AND ((((212-( 9 + __PBP__ * 2))%0402h)/4+1)>256)
  86  000A              ;# 86 "C:\Users\SA\Desktop\robot_n\UART.c" 1
  86  000A              	MOV A,(212-( 9 + __PBP__ * 2))/0402h
  86  000A              ;# 86 "C:\Users\SA\Desktop\robot_n\UART.c" 1
  86  000A              	MOV _builtin_holtek_delay_2,A
  86  000A              ;# 86 "C:\Users\SA\Desktop\robot_n\UART.c" 1
  86  000A              	MOV A,0
  86  000A              ;# 86 "C:\Users\SA\Desktop\robot_n\UART.c" 1
  86  000A              	fcall __DELAYY5 +5- (((212-( 9 + __PBP__ * 2))%0402h)%6) 
  86  000A              	ENDIF
  86  000A              ;# 86 "C:\Users\SA\Desktop\robot_n\UART.c" 1
  86  000A              	IF (212 >= ( 040bh + __PBP__ * 2)) AND ((((212-( 9 + __PBP__ * 2))%0402h)/4+1)<=256)
  86  000A              ;# 86 "C:\Users\SA\Desktop\robot_n\UART.c" 1
  86  000A              	MOV A,(212-( 9 + __PBP__ * 2))/0402h
  86  000A              ;# 86 "C:\Users\SA\Desktop\robot_n\UART.c" 1
  86  000A              	MOV _builtin_holtek_delay_2,A
"File: UART.c        Assembler  Version HGASM0202      Page 17

  86  000A              ;# 86 "C:\Users\SA\Desktop\robot_n\UART.c" 1
  86  000A              	MOV A,((212-( 9 + __PBP__ * 2))%0402h)/4+1
  86  000A              ;# 86 "C:\Users\SA\Desktop\robot_n\UART.c" 1
  86  000A              	fcall __DELAYY3 +3-(((212-( 9 + __PBP__ * 2))%0402h)%4) 
  86  000A              	ENDIF
  87  000A              #line 87 "C:\Users\SA\Desktop\robot_n\UART.c"
  87  000A              ;# 87 "C:\Users\SA\Desktop\robot_n\UART.c" 1
  87  000A              	IF 212/2>263690
  87  000A              ;# 87 "C:\Users\SA\Desktop\robot_n\UART.c" 1
  87  000A              	ERRMESSAGE 'the value 212/2of the argument exceeds the maxinum 263690'
  87  000A              	ENDIF
  87  000A              ;# 87 "C:\Users\SA\Desktop\robot_n\UART.c" 1
  87  000A              	IF 212/2<0
  87  000A              ;# 87 "C:\Users\SA\Desktop\robot_n\UART.c" 1
  87  000A              	ERRMESSAGE 'the value 212/2 of the argument exceeds the mininum 0'
  87  000A              	ENDIF
  87  000A              ;# 87 "C:\Users\SA\Desktop\robot_n\UART.c" 1
  87  000A              	IF 212/2==0
  87  000A              ;# 87 "C:\Users\SA\Desktop\robot_n\UART.c" 1
  87  000A              	JMP $
  87  000A              	ENDIF
  87  000A              ;# 87 "C:\Users\SA\Desktop\robot_n\UART.c" 1
  87  000A              	IF (212/2>=1) AND (212/2<( 4 + __PBP__ * 2))
  87  000A              ;# 87 "C:\Users\SA\Desktop\robot_n\UART.c" 1
  87  000A              	NOP
  87  000A              	ENDIF
  87  000A              ;# 87 "C:\Users\SA\Desktop\robot_n\UART.c" 1
  87  000A              	IF (212/2>=2) AND (212/2<( 4 + __PBP__ * 2))
  87  000A              ;# 87 "C:\Users\SA\Desktop\robot_n\UART.c" 1
  87  000A              	NOP
  87  000A              	ENDIF
  87  000A              ;# 87 "C:\Users\SA\Desktop\robot_n\UART.c" 1
  87  000A              	IF (212/2>=3) AND (212/2<( 4 + __PBP__ * 2))
  87  000A              ;# 87 "C:\Users\SA\Desktop\robot_n\UART.c" 1
  87  000A              	NOP
  87  000A              	ENDIF
  87  000A              ;# 87 "C:\Users\SA\Desktop\robot_n\UART.c" 1
  87  000A              	IF (212/2>=4) AND (212/2<( 4 + __PBP__ * 2)) AND ( __PBP__ > 0 )
  87  000A              ;# 87 "C:\Users\SA\Desktop\robot_n\UART.c" 1
  87  000A              	NOP
  87  000A              	ENDIF
  87  000A              ;# 87 "C:\Users\SA\Desktop\robot_n\UART.c" 1
  87  000A              	IF (212/2>=5) AND (212/2<( 4 + __PBP__ * 2)) AND ( __PBP__ > 0 )
  87  000A              ;# 87 "C:\Users\SA\Desktop\robot_n\UART.c" 1
  87  000A              	NOP
  87  000A              	ENDIF
  87  000A              ;# 87 "C:\Users\SA\Desktop\robot_n\UART.c" 1
  87  000A              	IF (212/2>=6) AND (212/2<( 4 + __PBP__ * 2))  AND ( __PBP__ > 1 )
  87  000A              ;# 87 "C:\Users\SA\Desktop\robot_n\UART.c" 1
  87  000A              	NOP
  87  000A              	ENDIF
  87  000A              ;# 87 "C:\Users\SA\Desktop\robot_n\UART.c" 1
  87  000A              	IF (212/2>=7) AND (212/2<( 4 + __PBP__ * 2))  AND ( __PBP__ > 1 )
  87  000A              ;# 87 "C:\Users\SA\Desktop\robot_n\UART.c" 1
  87  000A              	NOP
  87  000A              	ENDIF
  87  000A              ;# 87 "C:\Users\SA\Desktop\robot_n\UART.c" 1
  87  000A              	IF (212/2>=8) AND (212/2<( 4 + __PBP__ * 2))  AND ( __PBP__ > 2 )
  87  000A              ;# 87 "C:\Users\SA\Desktop\robot_n\UART.c" 1
  87  000A              	NOP
"File: UART.c        Assembler  Version HGASM0202      Page 18

  87  000A              	ENDIF
  87  000A              ;# 87 "C:\Users\SA\Desktop\robot_n\UART.c" 1
  87  000A              	IF (212/2==9)  AND ( __PBP__ > 2 )
  87  000A              ;# 87 "C:\Users\SA\Desktop\robot_n\UART.c" 1
  87  000A              	NOP
  87  000A              	ENDIF
  87  000A              ;# 87 "C:\Users\SA\Desktop\robot_n\UART.c" 1
  87  000A              	IF (212/2< ( 8 + __PBP__ * 2)) AND (212/2>( 3 + __PBP__ * 2))
  87  000A              ;# 87 "C:\Users\SA\Desktop\robot_n\UART.c" 1
  87  000A              	fcall __DELAY3 + ( 7 + __PBP__ * 2) -212/2
  87  000A              	ENDIF
  87  000A              ;# 87 "C:\Users\SA\Desktop\robot_n\UART.c" 1
  87  000A              	IF (212/2< ( 0404h + __PBP__ * 2)) AND (212/2>( 7 + __PBP__ * 2))
  87  000A              ;# 87 "C:\Users\SA\Desktop\robot_n\UART.c" 1
  87  000A  0F18        	MOV A,(212/2-( 4 + __PBP__ * 2))/4
  87  000B              ;# 87 "C:\Users\SA\Desktop\robot_n\UART.c" 1
  87  000B              	fcall __DELAYX3 + 3 -((212/2-( 4 + __PBP__ * 2)) MOD 4) 
  87  0012              	ENDIF
  87  0012              ;# 87 "C:\Users\SA\Desktop\robot_n\UART.c" 1
  87  0012              	IF (212/2< ( 040bh + __PBP__ * 2)) AND (212/2> ( 0403h + __PBP__ * 2))
  87  0012              ;# 87 "C:\Users\SA\Desktop\robot_n\UART.c" 1
  87  0012              	MOV A,0 
  87  0012              ;# 87 "C:\Users\SA\Desktop\robot_n\UART.c" 1
  87  0012              	fcall __DELAYX6 + ( 040ah + __PBP__ * 2) -212/2
  87  0012              	ENDIF
  87  0012              ;# 87 "C:\Users\SA\Desktop\robot_n\UART.c" 1
  87  0012              	IF (212/2 >= ( 040bh + __PBP__ * 2)) AND ((((212/2-( 9 + __PBP__ * 2))%0402h)/4+1)>256)
  87  0012              ;# 87 "C:\Users\SA\Desktop\robot_n\UART.c" 1
  87  0012              	MOV A,(212/2-( 9 + __PBP__ * 2))/0402h
  87  0012              ;# 87 "C:\Users\SA\Desktop\robot_n\UART.c" 1
  87  0012              	MOV _builtin_holtek_delay_2,A
  87  0012              ;# 87 "C:\Users\SA\Desktop\robot_n\UART.c" 1
  87  0012              	MOV A,0
  87  0012              ;# 87 "C:\Users\SA\Desktop\robot_n\UART.c" 1
  87  0012              	fcall __DELAYY5 +5- (((212/2-( 9 + __PBP__ * 2))%0402h)%6) 
  87  0012              	ENDIF
  87  0012              ;# 87 "C:\Users\SA\Desktop\robot_n\UART.c" 1
  87  0012              	IF (212/2 >= ( 040bh + __PBP__ * 2)) AND ((((212/2-( 9 + __PBP__ * 2))%0402h)/4+1)<=256)
  87  0012              ;# 87 "C:\Users\SA\Desktop\robot_n\UART.c" 1
  87  0012              	MOV A,(212/2-( 9 + __PBP__ * 2))/0402h
  87  0012              ;# 87 "C:\Users\SA\Desktop\robot_n\UART.c" 1
  87  0012              	MOV _builtin_holtek_delay_2,A
  87  0012              ;# 87 "C:\Users\SA\Desktop\robot_n\UART.c" 1
  87  0012              	MOV A,((212/2-( 9 + __PBP__ * 2))%0402h)/4+1
  87  0012              ;# 87 "C:\Users\SA\Desktop\robot_n\UART.c" 1
  87  0012              	fcall __DELAYY3 +3-(((212/2-( 9 + __PBP__ * 2))%0402h)%4) 
  87  0012              	ENDIF
  87  0012  0F08        	mov a,8
  87  0013  0080     E  	mov rb,a
  83  0014              #line 83 "C:\Users\SA\Desktop\robot_n\UART.c"
  83  0014  1F00     E  	clr ra
  83  0015              _L34:
  90  0015              #line 90 "C:\Users\SA\Desktop\robot_n\UART.c"
  90  0015  340A        	clr c
  90  0016  1B80     E  	rrc ra
  91  0017              #line 91 "C:\Users\SA\Desktop\robot_n\UART.c"
  91  0017  3922        	snz [34].2
  91  0018  2800     R  	jmp _L32
  91  0019  3000     E  	set ra.7
  91  001A              _L32:
"File: UART.c        Assembler  Version HGASM0202      Page 19

  92  001A              #line 92 "C:\Users\SA\Desktop\robot_n\UART.c"
  92  001A              ;# 92 "C:\Users\SA\Desktop\robot_n\UART.c" 1
  92  001A              	IF 212-15>263690
  92  001A              ;# 92 "C:\Users\SA\Desktop\robot_n\UART.c" 1
  92  001A              	ERRMESSAGE 'the value 212-15of the argument exceeds the maxinum 263690'
  92  001A              	ENDIF
  92  001A              ;# 92 "C:\Users\SA\Desktop\robot_n\UART.c" 1
  92  001A              	IF 212-15<0
  92  001A              ;# 92 "C:\Users\SA\Desktop\robot_n\UART.c" 1
  92  001A              	ERRMESSAGE 'the value 212-15 of the argument exceeds the mininum 0'
  92  001A              	ENDIF
  92  001A              ;# 92 "C:\Users\SA\Desktop\robot_n\UART.c" 1
  92  001A              	IF 212-15==0
  92  001A              ;# 92 "C:\Users\SA\Desktop\robot_n\UART.c" 1
  92  001A              	JMP $
  92  001A              	ENDIF
  92  001A              ;# 92 "C:\Users\SA\Desktop\robot_n\UART.c" 1
  92  001A              	IF (212-15>=1) AND (212-15<( 4 + __PBP__ * 2))
  92  001A              ;# 92 "C:\Users\SA\Desktop\robot_n\UART.c" 1
  92  001A              	NOP
  92  001A              	ENDIF
  92  001A              ;# 92 "C:\Users\SA\Desktop\robot_n\UART.c" 1
  92  001A              	IF (212-15>=2) AND (212-15<( 4 + __PBP__ * 2))
  92  001A              ;# 92 "C:\Users\SA\Desktop\robot_n\UART.c" 1
  92  001A              	NOP
  92  001A              	ENDIF
  92  001A              ;# 92 "C:\Users\SA\Desktop\robot_n\UART.c" 1
  92  001A              	IF (212-15>=3) AND (212-15<( 4 + __PBP__ * 2))
  92  001A              ;# 92 "C:\Users\SA\Desktop\robot_n\UART.c" 1
  92  001A              	NOP
  92  001A              	ENDIF
  92  001A              ;# 92 "C:\Users\SA\Desktop\robot_n\UART.c" 1
  92  001A              	IF (212-15>=4) AND (212-15<( 4 + __PBP__ * 2)) AND ( __PBP__ > 0 )
  92  001A              ;# 92 "C:\Users\SA\Desktop\robot_n\UART.c" 1
  92  001A              	NOP
  92  001A              	ENDIF
  92  001A              ;# 92 "C:\Users\SA\Desktop\robot_n\UART.c" 1
  92  001A              	IF (212-15>=5) AND (212-15<( 4 + __PBP__ * 2)) AND ( __PBP__ > 0 )
  92  001A              ;# 92 "C:\Users\SA\Desktop\robot_n\UART.c" 1
  92  001A              	NOP
  92  001A              	ENDIF
  92  001A              ;# 92 "C:\Users\SA\Desktop\robot_n\UART.c" 1
  92  001A              	IF (212-15>=6) AND (212-15<( 4 + __PBP__ * 2))  AND ( __PBP__ > 1 )
  92  001A              ;# 92 "C:\Users\SA\Desktop\robot_n\UART.c" 1
  92  001A              	NOP
  92  001A              	ENDIF
  92  001A              ;# 92 "C:\Users\SA\Desktop\robot_n\UART.c" 1
  92  001A              	IF (212-15>=7) AND (212-15<( 4 + __PBP__ * 2))  AND ( __PBP__ > 1 )
  92  001A              ;# 92 "C:\Users\SA\Desktop\robot_n\UART.c" 1
  92  001A              	NOP
  92  001A              	ENDIF
  92  001A              ;# 92 "C:\Users\SA\Desktop\robot_n\UART.c" 1
  92  001A              	IF (212-15>=8) AND (212-15<( 4 + __PBP__ * 2))  AND ( __PBP__ > 2 )
  92  001A              ;# 92 "C:\Users\SA\Desktop\robot_n\UART.c" 1
  92  001A              	NOP
  92  001A              	ENDIF
  92  001A              ;# 92 "C:\Users\SA\Desktop\robot_n\UART.c" 1
  92  001A              	IF (212-15==9)  AND ( __PBP__ > 2 )
  92  001A              ;# 92 "C:\Users\SA\Desktop\robot_n\UART.c" 1
  92  001A              	NOP
"File: UART.c        Assembler  Version HGASM0202      Page 20

  92  001A              	ENDIF
  92  001A              ;# 92 "C:\Users\SA\Desktop\robot_n\UART.c" 1
  92  001A              	IF (212-15< ( 8 + __PBP__ * 2)) AND (212-15>( 3 + __PBP__ * 2))
  92  001A              ;# 92 "C:\Users\SA\Desktop\robot_n\UART.c" 1
  92  001A              	fcall __DELAY3 + ( 7 + __PBP__ * 2) -212-15
  92  001A              	ENDIF
  92  001A              ;# 92 "C:\Users\SA\Desktop\robot_n\UART.c" 1
  92  001A              	IF (212-15< ( 0404h + __PBP__ * 2)) AND (212-15>( 7 + __PBP__ * 2))
  92  001A              ;# 92 "C:\Users\SA\Desktop\robot_n\UART.c" 1
  92  001A  0F2F        	MOV A,(212-15-( 4 + __PBP__ * 2))/4
  92  001B              ;# 92 "C:\Users\SA\Desktop\robot_n\UART.c" 1
  92  001B              	fcall __DELAYX3 + 3 -((212-15-( 4 + __PBP__ * 2)) MOD 4) 
  92  0022              	ENDIF
  92  0022              ;# 92 "C:\Users\SA\Desktop\robot_n\UART.c" 1
  92  0022              	IF (212-15< ( 040bh + __PBP__ * 2)) AND (212-15> ( 0403h + __PBP__ * 2))
  92  0022              ;# 92 "C:\Users\SA\Desktop\robot_n\UART.c" 1
  92  0022              	MOV A,0 
  92  0022              ;# 92 "C:\Users\SA\Desktop\robot_n\UART.c" 1
  92  0022              	fcall __DELAYX6 + ( 040ah + __PBP__ * 2) -212-15
  92  0022              	ENDIF
  92  0022              ;# 92 "C:\Users\SA\Desktop\robot_n\UART.c" 1
  92  0022              	IF (212-15 >= ( 040bh + __PBP__ * 2)) AND ((((212-15-( 9 + __PBP__ * 2))%0402h)/4+1)>256)
  92  0022              ;# 92 "C:\Users\SA\Desktop\robot_n\UART.c" 1
  92  0022              	MOV A,(212-15-( 9 + __PBP__ * 2))/0402h
  92  0022              ;# 92 "C:\Users\SA\Desktop\robot_n\UART.c" 1
  92  0022              	MOV _builtin_holtek_delay_2,A
  92  0022              ;# 92 "C:\Users\SA\Desktop\robot_n\UART.c" 1
  92  0022              	MOV A,0
  92  0022              ;# 92 "C:\Users\SA\Desktop\robot_n\UART.c" 1
  92  0022              	fcall __DELAYY5 +5- (((212-15-( 9 + __PBP__ * 2))%0402h)%6) 
  92  0022              	ENDIF
  92  0022              ;# 92 "C:\Users\SA\Desktop\robot_n\UART.c" 1
  92  0022              	IF (212-15 >= ( 040bh + __PBP__ * 2)) AND ((((212-15-( 9 + __PBP__ * 2))%0402h)/4+1)<=256)
  92  0022              ;# 92 "C:\Users\SA\Desktop\robot_n\UART.c" 1
  92  0022              	MOV A,(212-15-( 9 + __PBP__ * 2))/0402h
  92  0022              ;# 92 "C:\Users\SA\Desktop\robot_n\UART.c" 1
  92  0022              	MOV _builtin_holtek_delay_2,A
  92  0022              ;# 92 "C:\Users\SA\Desktop\robot_n\UART.c" 1
  92  0022              	MOV A,((212-15-( 9 + __PBP__ * 2))%0402h)/4+1
  92  0022              ;# 92 "C:\Users\SA\Desktop\robot_n\UART.c" 1
  92  0022              	fcall __DELAYY3 +3-(((212-15-( 9 + __PBP__ * 2))%0402h)%4) 
  92  0022              	ENDIF
  92  0022  1780     E  	sdz rb
  92  0023  2800     R  	jmp _L34
  95  0024              #line 95 "C:\Users\SA\Desktop\robot_n\UART.c"
  95  0024  0700     E  	mov a,ra
  95  0025  0003        	ret
  95  0026              _PC_RX_115200 endp
  95  0026              #line 95 "C:\Users\SA\Desktop\robot_n\UART.c"
  95  0026              #pragma debug scope 1 1
  95  0026              public _rx_string_115200
  95  0026              #pragma debug scope 8 1
  97  0026              #line 97 "C:\Users\SA\Desktop\robot_n\UART.c"
  97  0000              _rx_string_115200 .section 'code'
  97  0000              _rx_string_115200 proc
  97  0000  0002[           local _rx_string_115200_2 db 2 dup(?)	; 0,2
            00
            ]
  97  0002              #pragma debug variable 7 8 _rx_string_115200_2+1 "w"
  97  0000  0F0A        	mov a,10
"File: UART.c        Assembler  Version HGASM0202      Page 21

  97  0001  0080     R  	mov _rx_string_115200_2[0],a
  99  0002              #line 99 "C:\Users\SA\Desktop\robot_n\UART.c"
  99  0002  1F00     R  	clr _rx_string_115200_2[1]
  99  0003              _L40:
 101  0003              #line 101 "C:\Users\SA\Desktop\robot_n\UART.c"
 101  0003              	fcall _PC_RX_115200
 101  000A  0080     E  	mov ra,a
 101  000B  3400     E  	clr ra.7
 101  000C  0700     R  	mov a,_rx_string_115200_2[1]
 101  000D  0080     E  	mov rb,a
 101  000E  1F00     E  	clr rc
 101  000F  3F85        	sz acc.7
 101  0010  1F80     E  	set rc
 101  0011  0F00     R  	mov a,low offset _output
 101  0012  0300     E  	add a,rb
 101  0013  0083        	mov mp,a
 101  0014  0F00     R  	mov a,high offset _output
 101  0015  1300     E  	adc a,rc
 101  0016  0084        	mov sbp,a
 101  0017  0700     E  	mov a,ra
 101  0018  0082        	mov ir,a
 102  0019              #line 102 "C:\Users\SA\Desktop\robot_n\UART.c"
 102  0019  0700     E  	mov a,ra
 102  001A  0A0D        	sub a,13
 102  001B  3D0A        	sz z
 102  001C  2800     R  	jmp _L38
  99  001D              #line 99 "C:\Users\SA\Desktop\robot_n\UART.c"
  99  001D  1480     R  	inc _rx_string_115200_2[1]
  99  001E  1780     R  	sdz _rx_string_115200_2[0]
  99  001F  2800     R  	jmp _L40
  99  0020              _L38:
  99  0020  0003        	ret
  99  0021              _rx_string_115200 endp
  99  0021              #line 99 "C:\Users\SA\Desktop\robot_n\UART.c"
  99  0021              #pragma debug scope 1 1
  99  0021              public _PC_TX_115200
  99  0021              #pragma debug scope 9 1
 106  0021              #line 106 "C:\Users\SA\Desktop\robot_n\UART.c"
 106  0000              _PC_TX_115200 .section 'code'
 106  0000              _PC_TX_115200 proc
 106  0000  00              local _PC_TX_115200_2 db 1 dup(?)	; 0,1
 106  0000  0080     R  	mov _PC_TX_115200_2[0],a
 106  0001              #pragma debug variable 7 9 _PC_TX_115200_2+0 "da"
 109  0001              #line 109 "C:\Users\SA\Desktop\robot_n\UART.c"
 109  0001  35A2        	clr [34].3
 109  0002              ;# 109 "C:\Users\SA\Desktop\robot_n\UART.c" 1
 109  0002              	IF 212>263690
 109  0002              ;# 109 "C:\Users\SA\Desktop\robot_n\UART.c" 1
 109  0002              	ERRMESSAGE 'the value 212of the argument exceeds the maxinum 263690'
 109  0002              	ENDIF
 109  0002              ;# 109 "C:\Users\SA\Desktop\robot_n\UART.c" 1
 109  0002              	IF 212<0
 109  0002              ;# 109 "C:\Users\SA\Desktop\robot_n\UART.c" 1
 109  0002              	ERRMESSAGE 'the value 212 of the argument exceeds the mininum 0'
 109  0002              	ENDIF
 109  0002              ;# 109 "C:\Users\SA\Desktop\robot_n\UART.c" 1
 109  0002              	IF 212==0
 109  0002              ;# 109 "C:\Users\SA\Desktop\robot_n\UART.c" 1
 109  0002              	JMP $
 109  0002              	ENDIF
"File: UART.c        Assembler  Version HGASM0202      Page 22

 109  0002              ;# 109 "C:\Users\SA\Desktop\robot_n\UART.c" 1
 109  0002              	IF (212>=1) AND (212<( 4 + __PBP__ * 2))
 109  0002              ;# 109 "C:\Users\SA\Desktop\robot_n\UART.c" 1
 109  0002              	NOP
 109  0002              	ENDIF
 109  0002              ;# 109 "C:\Users\SA\Desktop\robot_n\UART.c" 1
 109  0002              	IF (212>=2) AND (212<( 4 + __PBP__ * 2))
 109  0002              ;# 109 "C:\Users\SA\Desktop\robot_n\UART.c" 1
 109  0002              	NOP
 109  0002              	ENDIF
 109  0002              ;# 109 "C:\Users\SA\Desktop\robot_n\UART.c" 1
 109  0002              	IF (212>=3) AND (212<( 4 + __PBP__ * 2))
 109  0002              ;# 109 "C:\Users\SA\Desktop\robot_n\UART.c" 1
 109  0002              	NOP
 109  0002              	ENDIF
 109  0002              ;# 109 "C:\Users\SA\Desktop\robot_n\UART.c" 1
 109  0002              	IF (212>=4) AND (212<( 4 + __PBP__ * 2)) AND ( __PBP__ > 0 )
 109  0002              ;# 109 "C:\Users\SA\Desktop\robot_n\UART.c" 1
 109  0002              	NOP
 109  0002              	ENDIF
 109  0002              ;# 109 "C:\Users\SA\Desktop\robot_n\UART.c" 1
 109  0002              	IF (212>=5) AND (212<( 4 + __PBP__ * 2)) AND ( __PBP__ > 0 )
 109  0002              ;# 109 "C:\Users\SA\Desktop\robot_n\UART.c" 1
 109  0002              	NOP
 109  0002              	ENDIF
 109  0002              ;# 109 "C:\Users\SA\Desktop\robot_n\UART.c" 1
 109  0002              	IF (212>=6) AND (212<( 4 + __PBP__ * 2))  AND ( __PBP__ > 1 )
 109  0002              ;# 109 "C:\Users\SA\Desktop\robot_n\UART.c" 1
 109  0002              	NOP
 109  0002              	ENDIF
 109  0002              ;# 109 "C:\Users\SA\Desktop\robot_n\UART.c" 1
 109  0002              	IF (212>=7) AND (212<( 4 + __PBP__ * 2))  AND ( __PBP__ > 1 )
 109  0002              ;# 109 "C:\Users\SA\Desktop\robot_n\UART.c" 1
 109  0002              	NOP
 109  0002              	ENDIF
 109  0002              ;# 109 "C:\Users\SA\Desktop\robot_n\UART.c" 1
 109  0002              	IF (212>=8) AND (212<( 4 + __PBP__ * 2))  AND ( __PBP__ > 2 )
 109  0002              ;# 109 "C:\Users\SA\Desktop\robot_n\UART.c" 1
 109  0002              	NOP
 109  0002              	ENDIF
 109  0002              ;# 109 "C:\Users\SA\Desktop\robot_n\UART.c" 1
 109  0002              	IF (212==9)  AND ( __PBP__ > 2 )
 109  0002              ;# 109 "C:\Users\SA\Desktop\robot_n\UART.c" 1
 109  0002              	NOP
 109  0002              	ENDIF
 109  0002              ;# 109 "C:\Users\SA\Desktop\robot_n\UART.c" 1
 109  0002              	IF (212< ( 8 + __PBP__ * 2)) AND (212>( 3 + __PBP__ * 2))
 109  0002              ;# 109 "C:\Users\SA\Desktop\robot_n\UART.c" 1
 109  0002              	fcall __DELAY3 + ( 7 + __PBP__ * 2) -212
 109  0002              	ENDIF
 109  0002              ;# 109 "C:\Users\SA\Desktop\robot_n\UART.c" 1
 109  0002              	IF (212< ( 0404h + __PBP__ * 2)) AND (212>( 7 + __PBP__ * 2))
 109  0002              ;# 109 "C:\Users\SA\Desktop\robot_n\UART.c" 1
 109  0002  0F33        	MOV A,(212-( 4 + __PBP__ * 2))/4
 109  0003              ;# 109 "C:\Users\SA\Desktop\robot_n\UART.c" 1
 109  0003              	fcall __DELAYX3 + 3 -((212-( 4 + __PBP__ * 2)) MOD 4) 
 109  000A              	ENDIF
 109  000A              ;# 109 "C:\Users\SA\Desktop\robot_n\UART.c" 1
 109  000A              	IF (212< ( 040bh + __PBP__ * 2)) AND (212> ( 0403h + __PBP__ * 2))
 109  000A              ;# 109 "C:\Users\SA\Desktop\robot_n\UART.c" 1
"File: UART.c        Assembler  Version HGASM0202      Page 23

 109  000A              	MOV A,0 
 109  000A              ;# 109 "C:\Users\SA\Desktop\robot_n\UART.c" 1
 109  000A              	fcall __DELAYX6 + ( 040ah + __PBP__ * 2) -212
 109  000A              	ENDIF
 109  000A              ;# 109 "C:\Users\SA\Desktop\robot_n\UART.c" 1
 109  000A              	IF (212 >= ( 040bh + __PBP__ * 2)) AND ((((212-( 9 + __PBP__ * 2))%0402h)/4+1)>256)
 109  000A              ;# 109 "C:\Users\SA\Desktop\robot_n\UART.c" 1
 109  000A              	MOV A,(212-( 9 + __PBP__ * 2))/0402h
 109  000A              ;# 109 "C:\Users\SA\Desktop\robot_n\UART.c" 1
 109  000A              	MOV _builtin_holtek_delay_2,A
 109  000A              ;# 109 "C:\Users\SA\Desktop\robot_n\UART.c" 1
 109  000A              	MOV A,0
 109  000A              ;# 109 "C:\Users\SA\Desktop\robot_n\UART.c" 1
 109  000A              	fcall __DELAYY5 +5- (((212-( 9 + __PBP__ * 2))%0402h)%6) 
 109  000A              	ENDIF
 109  000A              ;# 109 "C:\Users\SA\Desktop\robot_n\UART.c" 1
 109  000A              	IF (212 >= ( 040bh + __PBP__ * 2)) AND ((((212-( 9 + __PBP__ * 2))%0402h)/4+1)<=256)
 109  000A              ;# 109 "C:\Users\SA\Desktop\robot_n\UART.c" 1
 109  000A              	MOV A,(212-( 9 + __PBP__ * 2))/0402h
 109  000A              ;# 109 "C:\Users\SA\Desktop\robot_n\UART.c" 1
 109  000A              	MOV _builtin_holtek_delay_2,A
 109  000A              ;# 109 "C:\Users\SA\Desktop\robot_n\UART.c" 1
 109  000A              	MOV A,((212-( 9 + __PBP__ * 2))%0402h)/4+1
 109  000A              ;# 109 "C:\Users\SA\Desktop\robot_n\UART.c" 1
 109  000A              	fcall __DELAYY3 +3-(((212-( 9 + __PBP__ * 2))%0402h)%4) 
 109  000A              	ENDIF
 109  000A  0F08        	mov a,8
 109  000B  0080     E  	mov ra,a
 109  000C              _L51:
 112  000C              #line 112 "C:\Users\SA\Desktop\robot_n\UART.c"
 112  000C  3800     R  	snz _PC_TX_115200_2[0].0
 112  000D  2800     R  	jmp _L48
 112  000E  31A2        	set [34].3
 112  000F  2800     R  	jmp _L49
 112  0010              _L48:
 113  0010              #line 113 "C:\Users\SA\Desktop\robot_n\UART.c"
 113  0010  35A2        	clr [34].3
 113  0011              _L49:
 114  0011              #line 114 "C:\Users\SA\Desktop\robot_n\UART.c"
 114  0011  1A00     R  	rlca _PC_TX_115200_2[0]
 114  0012  1B80     R  	rrc _PC_TX_115200_2[0]
 115  0013              #line 115 "C:\Users\SA\Desktop\robot_n\UART.c"
 115  0013              ;# 115 "C:\Users\SA\Desktop\robot_n\UART.c" 1
 115  0013              	IF 212-15>263690
 115  0013              ;# 115 "C:\Users\SA\Desktop\robot_n\UART.c" 1
 115  0013              	ERRMESSAGE 'the value 212-15of the argument exceeds the maxinum 263690'
 115  0013              	ENDIF
 115  0013              ;# 115 "C:\Users\SA\Desktop\robot_n\UART.c" 1
 115  0013              	IF 212-15<0
 115  0013              ;# 115 "C:\Users\SA\Desktop\robot_n\UART.c" 1
 115  0013              	ERRMESSAGE 'the value 212-15 of the argument exceeds the mininum 0'
 115  0013              	ENDIF
 115  0013              ;# 115 "C:\Users\SA\Desktop\robot_n\UART.c" 1
 115  0013              	IF 212-15==0
 115  0013              ;# 115 "C:\Users\SA\Desktop\robot_n\UART.c" 1
 115  0013              	JMP $
 115  0013              	ENDIF
 115  0013              ;# 115 "C:\Users\SA\Desktop\robot_n\UART.c" 1
 115  0013              	IF (212-15>=1) AND (212-15<( 4 + __PBP__ * 2))
 115  0013              ;# 115 "C:\Users\SA\Desktop\robot_n\UART.c" 1
"File: UART.c        Assembler  Version HGASM0202      Page 24

 115  0013              	NOP
 115  0013              	ENDIF
 115  0013              ;# 115 "C:\Users\SA\Desktop\robot_n\UART.c" 1
 115  0013              	IF (212-15>=2) AND (212-15<( 4 + __PBP__ * 2))
 115  0013              ;# 115 "C:\Users\SA\Desktop\robot_n\UART.c" 1
 115  0013              	NOP
 115  0013              	ENDIF
 115  0013              ;# 115 "C:\Users\SA\Desktop\robot_n\UART.c" 1
 115  0013              	IF (212-15>=3) AND (212-15<( 4 + __PBP__ * 2))
 115  0013              ;# 115 "C:\Users\SA\Desktop\robot_n\UART.c" 1
 115  0013              	NOP
 115  0013              	ENDIF
 115  0013              ;# 115 "C:\Users\SA\Desktop\robot_n\UART.c" 1
 115  0013              	IF (212-15>=4) AND (212-15<( 4 + __PBP__ * 2)) AND ( __PBP__ > 0 )
 115  0013              ;# 115 "C:\Users\SA\Desktop\robot_n\UART.c" 1
 115  0013              	NOP
 115  0013              	ENDIF
 115  0013              ;# 115 "C:\Users\SA\Desktop\robot_n\UART.c" 1
 115  0013              	IF (212-15>=5) AND (212-15<( 4 + __PBP__ * 2)) AND ( __PBP__ > 0 )
 115  0013              ;# 115 "C:\Users\SA\Desktop\robot_n\UART.c" 1
 115  0013              	NOP
 115  0013              	ENDIF
 115  0013              ;# 115 "C:\Users\SA\Desktop\robot_n\UART.c" 1
 115  0013              	IF (212-15>=6) AND (212-15<( 4 + __PBP__ * 2))  AND ( __PBP__ > 1 )
 115  0013              ;# 115 "C:\Users\SA\Desktop\robot_n\UART.c" 1
 115  0013              	NOP
 115  0013              	ENDIF
 115  0013              ;# 115 "C:\Users\SA\Desktop\robot_n\UART.c" 1
 115  0013              	IF (212-15>=7) AND (212-15<( 4 + __PBP__ * 2))  AND ( __PBP__ > 1 )
 115  0013              ;# 115 "C:\Users\SA\Desktop\robot_n\UART.c" 1
 115  0013              	NOP
 115  0013              	ENDIF
 115  0013              ;# 115 "C:\Users\SA\Desktop\robot_n\UART.c" 1
 115  0013              	IF (212-15>=8) AND (212-15<( 4 + __PBP__ * 2))  AND ( __PBP__ > 2 )
 115  0013              ;# 115 "C:\Users\SA\Desktop\robot_n\UART.c" 1
 115  0013              	NOP
 115  0013              	ENDIF
 115  0013              ;# 115 "C:\Users\SA\Desktop\robot_n\UART.c" 1
 115  0013              	IF (212-15==9)  AND ( __PBP__ > 2 )
 115  0013              ;# 115 "C:\Users\SA\Desktop\robot_n\UART.c" 1
 115  0013              	NOP
 115  0013              	ENDIF
 115  0013              ;# 115 "C:\Users\SA\Desktop\robot_n\UART.c" 1
 115  0013              	IF (212-15< ( 8 + __PBP__ * 2)) AND (212-15>( 3 + __PBP__ * 2))
 115  0013              ;# 115 "C:\Users\SA\Desktop\robot_n\UART.c" 1
 115  0013              	fcall __DELAY3 + ( 7 + __PBP__ * 2) -212-15
 115  0013              	ENDIF
 115  0013              ;# 115 "C:\Users\SA\Desktop\robot_n\UART.c" 1
 115  0013              	IF (212-15< ( 0404h + __PBP__ * 2)) AND (212-15>( 7 + __PBP__ * 2))
 115  0013              ;# 115 "C:\Users\SA\Desktop\robot_n\UART.c" 1
 115  0013  0F2F        	MOV A,(212-15-( 4 + __PBP__ * 2))/4
 115  0014              ;# 115 "C:\Users\SA\Desktop\robot_n\UART.c" 1
 115  0014              	fcall __DELAYX3 + 3 -((212-15-( 4 + __PBP__ * 2)) MOD 4) 
 115  001B              	ENDIF
 115  001B              ;# 115 "C:\Users\SA\Desktop\robot_n\UART.c" 1
 115  001B              	IF (212-15< ( 040bh + __PBP__ * 2)) AND (212-15> ( 0403h + __PBP__ * 2))
 115  001B              ;# 115 "C:\Users\SA\Desktop\robot_n\UART.c" 1
 115  001B              	MOV A,0 
 115  001B              ;# 115 "C:\Users\SA\Desktop\robot_n\UART.c" 1
 115  001B              	fcall __DELAYX6 + ( 040ah + __PBP__ * 2) -212-15
"File: UART.c        Assembler  Version HGASM0202      Page 25

 115  001B              	ENDIF
 115  001B              ;# 115 "C:\Users\SA\Desktop\robot_n\UART.c" 1
 115  001B              	IF (212-15 >= ( 040bh + __PBP__ * 2)) AND ((((212-15-( 9 + __PBP__ * 2))%0402h)/4+1)>256)
 115  001B              ;# 115 "C:\Users\SA\Desktop\robot_n\UART.c" 1
 115  001B              	MOV A,(212-15-( 9 + __PBP__ * 2))/0402h
 115  001B              ;# 115 "C:\Users\SA\Desktop\robot_n\UART.c" 1
 115  001B              	MOV _builtin_holtek_delay_2,A
 115  001B              ;# 115 "C:\Users\SA\Desktop\robot_n\UART.c" 1
 115  001B              	MOV A,0
 115  001B              ;# 115 "C:\Users\SA\Desktop\robot_n\UART.c" 1
 115  001B              	fcall __DELAYY5 +5- (((212-15-( 9 + __PBP__ * 2))%0402h)%6) 
 115  001B              	ENDIF
 115  001B              ;# 115 "C:\Users\SA\Desktop\robot_n\UART.c" 1
 115  001B              	IF (212-15 >= ( 040bh + __PBP__ * 2)) AND ((((212-15-( 9 + __PBP__ * 2))%0402h)/4+1)<=256)
 115  001B              ;# 115 "C:\Users\SA\Desktop\robot_n\UART.c" 1
 115  001B              	MOV A,(212-15-( 9 + __PBP__ * 2))/0402h
 115  001B              ;# 115 "C:\Users\SA\Desktop\robot_n\UART.c" 1
 115  001B              	MOV _builtin_holtek_delay_2,A
 115  001B              ;# 115 "C:\Users\SA\Desktop\robot_n\UART.c" 1
 115  001B              	MOV A,((212-15-( 9 + __PBP__ * 2))%0402h)/4+1
 115  001B              ;# 115 "C:\Users\SA\Desktop\robot_n\UART.c" 1
 115  001B              	fcall __DELAYY3 +3-(((212-15-( 9 + __PBP__ * 2))%0402h)%4) 
 115  001B              	ENDIF
 115  001B  1780     E  	sdz ra
 115  001C  2800     R  	jmp _L51
 117  001D              #line 117 "C:\Users\SA\Desktop\robot_n\UART.c"
 117  001D  31A2        	set [34].3
 117  001E              ;# 117 "C:\Users\SA\Desktop\robot_n\UART.c" 1
 117  001E              	IF 212>263690
 117  001E              ;# 117 "C:\Users\SA\Desktop\robot_n\UART.c" 1
 117  001E              	ERRMESSAGE 'the value 212of the argument exceeds the maxinum 263690'
 117  001E              	ENDIF
 117  001E              ;# 117 "C:\Users\SA\Desktop\robot_n\UART.c" 1
 117  001E              	IF 212<0
 117  001E              ;# 117 "C:\Users\SA\Desktop\robot_n\UART.c" 1
 117  001E              	ERRMESSAGE 'the value 212 of the argument exceeds the mininum 0'
 117  001E              	ENDIF
 117  001E              ;# 117 "C:\Users\SA\Desktop\robot_n\UART.c" 1
 117  001E              	IF 212==0
 117  001E              ;# 117 "C:\Users\SA\Desktop\robot_n\UART.c" 1
 117  001E              	JMP $
 117  001E              	ENDIF
 117  001E              ;# 117 "C:\Users\SA\Desktop\robot_n\UART.c" 1
 117  001E              	IF (212>=1) AND (212<( 4 + __PBP__ * 2))
 117  001E              ;# 117 "C:\Users\SA\Desktop\robot_n\UART.c" 1
 117  001E              	NOP
 117  001E              	ENDIF
 117  001E              ;# 117 "C:\Users\SA\Desktop\robot_n\UART.c" 1
 117  001E              	IF (212>=2) AND (212<( 4 + __PBP__ * 2))
 117  001E              ;# 117 "C:\Users\SA\Desktop\robot_n\UART.c" 1
 117  001E              	NOP
 117  001E              	ENDIF
 117  001E              ;# 117 "C:\Users\SA\Desktop\robot_n\UART.c" 1
 117  001E              	IF (212>=3) AND (212<( 4 + __PBP__ * 2))
 117  001E              ;# 117 "C:\Users\SA\Desktop\robot_n\UART.c" 1
 117  001E              	NOP
 117  001E              	ENDIF
 117  001E              ;# 117 "C:\Users\SA\Desktop\robot_n\UART.c" 1
 117  001E              	IF (212>=4) AND (212<( 4 + __PBP__ * 2)) AND ( __PBP__ > 0 )
 117  001E              ;# 117 "C:\Users\SA\Desktop\robot_n\UART.c" 1
"File: UART.c        Assembler  Version HGASM0202      Page 26

 117  001E              	NOP
 117  001E              	ENDIF
 117  001E              ;# 117 "C:\Users\SA\Desktop\robot_n\UART.c" 1
 117  001E              	IF (212>=5) AND (212<( 4 + __PBP__ * 2)) AND ( __PBP__ > 0 )
 117  001E              ;# 117 "C:\Users\SA\Desktop\robot_n\UART.c" 1
 117  001E              	NOP
 117  001E              	ENDIF
 117  001E              ;# 117 "C:\Users\SA\Desktop\robot_n\UART.c" 1
 117  001E              	IF (212>=6) AND (212<( 4 + __PBP__ * 2))  AND ( __PBP__ > 1 )
 117  001E              ;# 117 "C:\Users\SA\Desktop\robot_n\UART.c" 1
 117  001E              	NOP
 117  001E              	ENDIF
 117  001E              ;# 117 "C:\Users\SA\Desktop\robot_n\UART.c" 1
 117  001E              	IF (212>=7) AND (212<( 4 + __PBP__ * 2))  AND ( __PBP__ > 1 )
 117  001E              ;# 117 "C:\Users\SA\Desktop\robot_n\UART.c" 1
 117  001E              	NOP
 117  001E              	ENDIF
 117  001E              ;# 117 "C:\Users\SA\Desktop\robot_n\UART.c" 1
 117  001E              	IF (212>=8) AND (212<( 4 + __PBP__ * 2))  AND ( __PBP__ > 2 )
 117  001E              ;# 117 "C:\Users\SA\Desktop\robot_n\UART.c" 1
 117  001E              	NOP
 117  001E              	ENDIF
 117  001E              ;# 117 "C:\Users\SA\Desktop\robot_n\UART.c" 1
 117  001E              	IF (212==9)  AND ( __PBP__ > 2 )
 117  001E              ;# 117 "C:\Users\SA\Desktop\robot_n\UART.c" 1
 117  001E              	NOP
 117  001E              	ENDIF
 117  001E              ;# 117 "C:\Users\SA\Desktop\robot_n\UART.c" 1
 117  001E              	IF (212< ( 8 + __PBP__ * 2)) AND (212>( 3 + __PBP__ * 2))
 117  001E              ;# 117 "C:\Users\SA\Desktop\robot_n\UART.c" 1
 117  001E              	fcall __DELAY3 + ( 7 + __PBP__ * 2) -212
 117  001E              	ENDIF
 117  001E              ;# 117 "C:\Users\SA\Desktop\robot_n\UART.c" 1
 117  001E              	IF (212< ( 0404h + __PBP__ * 2)) AND (212>( 7 + __PBP__ * 2))
 117  001E              ;# 117 "C:\Users\SA\Desktop\robot_n\UART.c" 1
 117  001E  0F33        	MOV A,(212-( 4 + __PBP__ * 2))/4
 117  001F              ;# 117 "C:\Users\SA\Desktop\robot_n\UART.c" 1
 117  001F              	fcall __DELAYX3 + 3 -((212-( 4 + __PBP__ * 2)) MOD 4) 
 117  0026              	ENDIF
 117  0026              ;# 117 "C:\Users\SA\Desktop\robot_n\UART.c" 1
 117  0026              	IF (212< ( 040bh + __PBP__ * 2)) AND (212> ( 0403h + __PBP__ * 2))
 117  0026              ;# 117 "C:\Users\SA\Desktop\robot_n\UART.c" 1
 117  0026              	MOV A,0 
 117  0026              ;# 117 "C:\Users\SA\Desktop\robot_n\UART.c" 1
 117  0026              	fcall __DELAYX6 + ( 040ah + __PBP__ * 2) -212
 117  0026              	ENDIF
 117  0026              ;# 117 "C:\Users\SA\Desktop\robot_n\UART.c" 1
 117  0026              	IF (212 >= ( 040bh + __PBP__ * 2)) AND ((((212-( 9 + __PBP__ * 2))%0402h)/4+1)>256)
 117  0026              ;# 117 "C:\Users\SA\Desktop\robot_n\UART.c" 1
 117  0026              	MOV A,(212-( 9 + __PBP__ * 2))/0402h
 117  0026              ;# 117 "C:\Users\SA\Desktop\robot_n\UART.c" 1
 117  0026              	MOV _builtin_holtek_delay_2,A
 117  0026              ;# 117 "C:\Users\SA\Desktop\robot_n\UART.c" 1
 117  0026              	MOV A,0
 117  0026              ;# 117 "C:\Users\SA\Desktop\robot_n\UART.c" 1
 117  0026              	fcall __DELAYY5 +5- (((212-( 9 + __PBP__ * 2))%0402h)%6) 
 117  0026              	ENDIF
 117  0026              ;# 117 "C:\Users\SA\Desktop\robot_n\UART.c" 1
 117  0026              	IF (212 >= ( 040bh + __PBP__ * 2)) AND ((((212-( 9 + __PBP__ * 2))%0402h)/4+1)<=256)
 117  0026              ;# 117 "C:\Users\SA\Desktop\robot_n\UART.c" 1
"File: UART.c        Assembler  Version HGASM0202      Page 27

 117  0026              	MOV A,(212-( 9 + __PBP__ * 2))/0402h
 117  0026              ;# 117 "C:\Users\SA\Desktop\robot_n\UART.c" 1
 117  0026              	MOV _builtin_holtek_delay_2,A
 117  0026              ;# 117 "C:\Users\SA\Desktop\robot_n\UART.c" 1
 117  0026              	MOV A,((212-( 9 + __PBP__ * 2))%0402h)/4+1
 117  0026              ;# 117 "C:\Users\SA\Desktop\robot_n\UART.c" 1
 117  0026              	fcall __DELAYY3 +3-(((212-( 9 + __PBP__ * 2))%0402h)%4) 
 117  0026              	ENDIF
 117  0026  0003        	ret
 117  0027              _PC_TX_115200 endp
 117  0027              #line 117 "C:\Users\SA\Desktop\robot_n\UART.c"
 117  0027              #pragma debug scope 1 1
 117  0027              public _tx_string_115200
 117  0027              #pragma debug scope 10 1
 121  0027              #line 121 "C:\Users\SA\Desktop\robot_n\UART.c"
 121  0000              _tx_string_115200 .section 'code'
 121  0000              _tx_string_115200 proc
 121  0000              public _tx_string_115200_2
 121  0000  0005[           local _tx_string_115200_2 db 5 dup(?)	; 4,1
            00
            ]
 121  0005              #pragma debug pointer 43 7 10
 121  0005              #pragma debug pointer 43 7 10
 121  0005              #pragma debug variable 43 10 _tx_string_115200_2+0 "data"
 121  0005              #pragma debug variable 11 10 _tx_string_115200_2+2 "c"
 121  0005              #pragma debug variable 7 10 _tx_string_115200_2+4 "test"
 123  0005              #line 123 "C:\Users\SA\Desktop\robot_n\UART.c"
 123  0000  1F00     R  	clr _tx_string_115200_2[4]
 123  0001  2800     R  	jmp _L53
 123  0002              _L54:
 125  0002              #line 125 "C:\Users\SA\Desktop\robot_n\UART.c"
 125  0002  0700     E  	mov a,rb
 125  0003  0300     R  	add a,_tx_string_115200_2[0]
 125  0004  0083        	mov mp,a
 125  0005  0700     E  	mov a,rc
 125  0006  1300     R  	adc a,_tx_string_115200_2[1]
 125  0007  0084        	mov sbp,a
 125  0008              	fcall _Crom2Prom
 125  000F              	fcall _PC_TX_115200
 123  0016              #line 123 "C:\Users\SA\Desktop\robot_n\UART.c"
 123  0016  1480     R  	inc _tx_string_115200_2[4]
 123  0017              _L53:
 123  0017  0700     R  	mov a,_tx_string_115200_2[4]
 123  0018  0080     E  	mov rb,a
 123  0019  1F00     E  	clr rc
 123  001A  3F85        	sz acc.7
 123  001B  1F80     E  	set rc
 123  001C  0700     E  	mov a,rb
 123  001D  0200     R  	sub a,_tx_string_115200_2[2]
 123  001E  0700     E  	mov a,rc
 123  001F  1200     R  	sbc a,_tx_string_115200_2[3]
 123  0020  3F8A        	sz sc
 123  0021  2800     R  	jmp _L54
 123  0022  0003        	ret
 123  0023              _tx_string_115200 endp
 123  0023              #line 123 "C:\Users\SA\Desktop\robot_n\UART.c"
 123  0023              #pragma debug scope 1 1
  11  0023              #line 11 "C:\Users\SA\Desktop\robot_n\UART.c"
  11  0023              public _output
  11  0000              @HCCINIT0_output .section 'data'
"File: UART.c        Assembler  Version HGASM0202      Page 28

  11  0000  0032[       _output	db 50 dup(0)
            00
            ]
  11  0032              #pragma debug array 44 7 50 1
  11  0032              #pragma debug array 44 7 50 1
  11  0032              #pragma debug variable 44 1 _output "output"
  11  0032              
  11  0000              @HCCINIT .section 'data'
  11  0000              #pragma debug struct_end
  11  0000              #pragma debug struct_end
  11  0000              #pragma debug union_end
  11  0000              #pragma debug union_end
  11  0000              #pragma debug variable 46 1 ___pe "__pe" 1
  11  0000              #pragma debug struct_end
  11  0000              #pragma debug struct_end
  11  0000              #pragma debug union_end
  11  0000              #pragma debug union_end
  11  0000              #pragma debug variable 48 1 ___pec "__pec" 1
  11  0000              
  11  0000              ; 
  11  0000              ; Generated by holtek-gcc v3.17, Tue Nov 14 16:09:41 2017
  11  0000              ; Rebuild 307
  11  0000              ; end of file


        0 Errors, 0